	.text
	.syntax unified
	.eabi_attribute	67, "2.09"	@ Tag_conformance
	.cpu	cortex-a8
	.eabi_attribute	6, 10	@ Tag_CPU_arch
	.eabi_attribute	7, 65	@ Tag_CPU_arch_profile
	.eabi_attribute	8, 1	@ Tag_ARM_ISA_use
	.eabi_attribute	9, 2	@ Tag_THUMB_ISA_use
	.fpu	neon
	.eabi_attribute	17, 1	@ Tag_ABI_PCS_GOT_use
	.eabi_attribute	20, 2	@ Tag_ABI_FP_denormal
	.eabi_attribute	23, 1	@ Tag_ABI_FP_number_model
	.eabi_attribute	34, 1	@ Tag_CPU_unaligned_access
	.eabi_attribute	24, 1	@ Tag_ABI_align_needed
	.eabi_attribute	25, 1	@ Tag_ABI_align_preserved
	.eabi_attribute	28, 1	@ Tag_ABI_VFP_args
	.eabi_attribute	38, 1	@ Tag_ABI_FP_16bit_format
	.eabi_attribute	18, 4	@ Tag_ABI_PCS_wchar_t
	.eabi_attribute	26, 2	@ Tag_ABI_enum_size
	.eabi_attribute	14, 0	@ Tag_ABI_PCS_R9_use
	.eabi_attribute	68, 1	@ Tag_Virtualization_use
	.file	"/root/Bela/projects/board_6/build/Adafruit_PWMServoDriver.bc"
	.file	1 "/usr/bin/../lib/gcc/arm-linux-gnueabihf/6.3.0/../../../../include/arm-linux-gnueabihf/c++/6.3.0/bits" "c++config.h"
	.file	2 "/usr/bin/../lib/gcc/arm-linux-gnueabihf/6.3.0/../../../../include/arm-linux-gnueabihf/c++/6.3.0/bits" "atomic_word.h"
	.file	3 "/usr/bin/../lib/gcc/arm-linux-gnueabihf/6.3.0/../../../../include/c++/6.3.0/bits" "ios_base.h"
	.file	4 "/usr/bin/../lib/gcc/arm-linux-gnueabihf/6.3.0/../../../../include/c++/6.3.0" "iostream"
	.file	5 "/usr/include" "stdint.h"
	.file	6 "/usr/include" "stdlib.h"
	.file	7 "/usr/include/arm-linux-gnueabihf/bits" "stdlib-float.h"
	.file	8 "/usr/include/arm-linux-gnueabihf/bits" "stdlib-bsearch.h"
	.file	9 "/usr/lib/llvm-3.9/bin/../lib/clang/3.9.1/include" "stddef.h"
	.file	10 "/usr/bin/../lib/gcc/arm-linux-gnueabihf/6.3.0/../../../../include/c++/6.3.0" "cstdlib"
	.file	11 "/root/Bela/projects/board_6/build" "Adafruit_PWMServoDriver.cpp"
	.file	12 "/usr/include" "wchar.h"
	.file	13 "/usr/include" "libio.h"
	.file	14 "/usr/include/arm-linux-gnueabihf/bits" "types.h"
	.file	15 "/usr/include" "stdio.h"
	.file	16 "/usr/lib/llvm-3.9/bin/../lib/clang/3.9.1/include" "stdarg.h"
	.file	17 "/usr/bin/../lib/gcc/arm-linux-gnueabihf/6.3.0/../../../../include/c++/6.3.0/bits" "exception_ptr.h"
	.file	18 "/usr/bin/../lib/gcc/arm-linux-gnueabihf/6.3.0/../../../../include/c++/6.3.0/debug" "debug.h"
	.file	19 "/usr/include/arm-linux-gnueabihf/sys" "types.h"
	.file	20 "/usr/include" "unistd.h"
	.file	21 "/usr/include" "locale.h"
	.file	22 "/usr/include" "ctype.h"
	.file	23 "/usr/include" "_G_config.h"
	.file	24 "/usr/include/arm-linux-gnueabihf/bits" "stdio.h"
	.file	25 "/usr/include" "wctype.h"
	.globl	_ZN23Adafruit_PWMServoDriverC2Ev
	.p2align	2
	.type	_ZN23Adafruit_PWMServoDriverC2Ev,%function
_ZN23Adafruit_PWMServoDriverC2Ev:       @ @_ZN23Adafruit_PWMServoDriverC2Ev
.Lfunc_begin0:
	.file	26 "/root/Bela/projects/board_6" "Adafruit_PWMServoDriver.cpp"
	.loc	26 39 0                 @ /root/Bela/projects/board_6/Adafruit_PWMServoDriver.cpp:39:0
	.fnstart
	.cfi_startproc
@ BB#0:
	@DEBUG_VALUE: Adafruit_PWMServoDriver:this <- %R0
	.loc	26 39 7 prologue_end    @ /root/Bela/projects/board_6/Adafruit_PWMServoDriver.cpp:39:7
	mov	r1, #64
	mov	r2, #0
	strb	r1, [r0]
	.loc	26 39 23 is_stmt 0      @ /root/Bela/projects/board_6/Adafruit_PWMServoDriver.cpp:39:23
	movw	r1, :lower16:Wire
	movt	r1, :upper16:Wire
	stmib	r0, {r1, r2}
	.loc	26 39 36                @ /root/Bela/projects/board_6/Adafruit_PWMServoDriver.cpp:39:36
	bx	lr
.Ltmp0:
.Lfunc_end0:
	.size	_ZN23Adafruit_PWMServoDriverC2Ev, .Lfunc_end0-_ZN23Adafruit_PWMServoDriverC2Ev
	.cfi_endproc
	.file	27 "/root/Bela/projects/board_6" "Adafruit_PWMServoDriver.h"
	.fnend

	.globl	_ZN23Adafruit_PWMServoDriverC2Eh
	.p2align	2
	.type	_ZN23Adafruit_PWMServoDriverC2Eh,%function
_ZN23Adafruit_PWMServoDriverC2Eh:       @ @_ZN23Adafruit_PWMServoDriverC2Eh
.Lfunc_begin1:
	.loc	26 47 0 is_stmt 1       @ /root/Bela/projects/board_6/Adafruit_PWMServoDriver.cpp:47:0
	.fnstart
	.cfi_startproc
@ BB#0:
	@DEBUG_VALUE: Adafruit_PWMServoDriver:this <- %R0
	@DEBUG_VALUE: Adafruit_PWMServoDriver:addr <- %R1
	.loc	26 47 7 prologue_end    @ /root/Bela/projects/board_6/Adafruit_PWMServoDriver.cpp:47:7
	strb	r1, [r0]
	.loc	26 47 23 is_stmt 0      @ /root/Bela/projects/board_6/Adafruit_PWMServoDriver.cpp:47:23
	movw	r1, :lower16:Wire
.Ltmp1:
	movt	r1, :upper16:Wire
	mov	r2, #0
	stmib	r0, {r1, r2}
	.loc	26 47 36                @ /root/Bela/projects/board_6/Adafruit_PWMServoDriver.cpp:47:36
	bx	lr
.Ltmp2:
.Lfunc_end1:
	.size	_ZN23Adafruit_PWMServoDriverC2Eh, .Lfunc_end1-_ZN23Adafruit_PWMServoDriverC2Eh
	.cfi_endproc
	.fnend

	.globl	_ZN23Adafruit_PWMServoDriverC2EhR7TwoWire
	.p2align	2
	.type	_ZN23Adafruit_PWMServoDriverC2EhR7TwoWire,%function
_ZN23Adafruit_PWMServoDriverC2EhR7TwoWire: @ @_ZN23Adafruit_PWMServoDriverC2EhR7TwoWire
.Lfunc_begin2:
	.loc	26 58 0 is_stmt 1       @ /root/Bela/projects/board_6/Adafruit_PWMServoDriver.cpp:58:0
	.fnstart
	.cfi_startproc
@ BB#0:
	@DEBUG_VALUE: Adafruit_PWMServoDriver:this <- %R0
	@DEBUG_VALUE: Adafruit_PWMServoDriver:addr <- %R1
	@DEBUG_VALUE: Adafruit_PWMServoDriver:i2c <- %R2
	.loc	26 58 7 prologue_end    @ /root/Bela/projects/board_6/Adafruit_PWMServoDriver.cpp:58:7
	strb	r1, [r0]
	mov	r1, #0
.Ltmp3:
	.loc	26 58 23 is_stmt 0      @ /root/Bela/projects/board_6/Adafruit_PWMServoDriver.cpp:58:23
	str	r2, [r0, #4]
	.loc	27 99 23 is_stmt 1      @ /root/Bela/projects/board_6/Adafruit_PWMServoDriver.h:99:23
	str	r1, [r0, #8]
	.loc	26 58 35                @ /root/Bela/projects/board_6/Adafruit_PWMServoDriver.cpp:58:35
	bx	lr
.Ltmp4:
.Lfunc_end2:
	.size	_ZN23Adafruit_PWMServoDriverC2EhR7TwoWire, .Lfunc_end2-_ZN23Adafruit_PWMServoDriverC2EhR7TwoWire
	.cfi_endproc
	.fnend

	.globl	_ZN23Adafruit_PWMServoDriver5beginEh
	.p2align	2
	.type	_ZN23Adafruit_PWMServoDriver5beginEh,%function
_ZN23Adafruit_PWMServoDriver5beginEh:   @ @_ZN23Adafruit_PWMServoDriver5beginEh
.Lfunc_begin3:
	.loc	26 66 0                 @ /root/Bela/projects/board_6/Adafruit_PWMServoDriver.cpp:66:0
	.fnstart
	.cfi_startproc
@ BB#0:
	.save	{r4, r5, r6, r7, r8, r9, r11, lr}
	push	{r4, r5, r6, r7, r8, r9, r11, lr}
.Ltmp8:
	.cfi_def_cfa_offset 32
.Ltmp9:
	.cfi_offset lr, -4
.Ltmp10:
	.cfi_offset r11, -8
.Ltmp11:
	.cfi_offset r9, -12
.Ltmp12:
	.cfi_offset r8, -16
.Ltmp13:
	.cfi_offset r7, -20
.Ltmp14:
	.cfi_offset r6, -24
.Ltmp15:
	.cfi_offset r5, -28
.Ltmp16:
	.cfi_offset r4, -32
	.setfp	r11, sp, #24
	add	r11, sp, #24
.Ltmp17:
	.cfi_def_cfa r11, 8
	.pad	#16
	sub	sp, sp, #16
	@DEBUG_VALUE: begin:this <- %R0
	@DEBUG_VALUE: begin:prescale <- %R1
	mov	r4, r0
.Ltmp18:
	@DEBUG_VALUE: begin:this <- %R4
	mov	r5, r1
.Ltmp19:
	@DEBUG_VALUE: begin:prescale <- %R5
	.loc	26 67 7 prologue_end    @ /root/Bela/projects/board_6/Adafruit_PWMServoDriver.cpp:67:7
	ldr	r0, [r4, #8]
.Ltmp20:
	.loc	26 67 7 is_stmt 0       @ /root/Bela/projects/board_6/Adafruit_PWMServoDriver.cpp:67:7
	cmp	r0, #0
	beq	.LBB3_2
.Ltmp21:
@ BB#1:
	@DEBUG_VALUE: begin:prescale <- %R5
	@DEBUG_VALUE: begin:this <- %R4
	.loc	26 68 5 is_stmt 1 discriminator 1 @ /root/Bela/projects/board_6/Adafruit_PWMServoDriver.cpp:68:5
	ldr	r1, [r0]
	ldr	r1, [r1, #4]
	blx	r1
.Ltmp22:
.LBB3_2:
	@DEBUG_VALUE: begin:prescale <- %R5
	@DEBUG_VALUE: begin:this <- %R4
	.loc	26 69 13                @ /root/Bela/projects/board_6/Adafruit_PWMServoDriver.cpp:69:13
	mov	r0, #24
	bl	_Znwj
	.loc	26 69 17 is_stmt 0      @ /root/Bela/projects/board_6/Adafruit_PWMServoDriver.cpp:69:17
	ldrb	r1, [r4]
	.loc	26 69 13                @ /root/Bela/projects/board_6/Adafruit_PWMServoDriver.cpp:69:13
	mov	r6, r0
	.loc	26 69 46                @ /root/Bela/projects/board_6/Adafruit_PWMServoDriver.cpp:69:46
	ldr	r2, [r4, #4]
	.loc	26 69 17                @ /root/Bela/projects/board_6/Adafruit_PWMServoDriver.cpp:69:17
.Ltmp5:
	bl	_ZN18Adafruit_I2CDeviceC1EhP7TwoWire
.Ltmp6:
.Ltmp23:
@ BB#3:
	@DEBUG_VALUE: begin:prescale <- %R5
	@DEBUG_VALUE: begin:this <- %R4
	.loc	26 70 17 is_stmt 1      @ /root/Bela/projects/board_6/Adafruit_PWMServoDriver.cpp:70:17
	mov	r0, r6
.Ltmp24:
	.loc	26 69 11 discriminator 1 @ /root/Bela/projects/board_6/Adafruit_PWMServoDriver.cpp:69:11
	str	r6, [r4, #8]
.Ltmp25:
	.loc	26 70 17                @ /root/Bela/projects/board_6/Adafruit_PWMServoDriver.cpp:70:17
	bl	_ZN18Adafruit_I2CDevice5beginEv
	mov	r6, #0
.Ltmp26:
	.loc	26 70 7 is_stmt 0       @ /root/Bela/projects/board_6/Adafruit_PWMServoDriver.cpp:70:7
	cmp	r0, #0
	beq	.LBB3_7
.Ltmp27:
@ BB#4:
	@DEBUG_VALUE: begin:prescale <- %R5
	@DEBUG_VALUE: begin:this <- %R4
	@DEBUG_VALUE: write8:addr <- 0
	@DEBUG_VALUE: write8:d <- -128
	@DEBUG_VALUE: write8:this <- %R4
	.loc	26 372 23 is_stmt 1     @ /root/Bela/projects/board_6/Adafruit_PWMServoDriver.cpp:372:23
	mov	r0, #32768
	add	r1, sp, #13
	strh	r0, [sp, #13]
	.loc	26 373 12               @ /root/Bela/projects/board_6/Adafruit_PWMServoDriver.cpp:373:12
	mov	r2, #2
	.loc	26 373 3 is_stmt 0      @ /root/Bela/projects/board_6/Adafruit_PWMServoDriver.cpp:373:3
	ldr	r0, [r4, #8]
	.loc	26 373 12               @ /root/Bela/projects/board_6/Adafruit_PWMServoDriver.cpp:373:12
	bl	_ZN18Adafruit_I2CDevice5writeEPhj
.Ltmp28:
	.loc	26 92 3 is_stmt 1       @ /root/Bela/projects/board_6/Adafruit_PWMServoDriver.cpp:92:3
	mov	r0, #10
	bl	_Z5delayj
.Ltmp29:
	.loc	26 361 20               @ /root/Bela/projects/board_6/Adafruit_PWMServoDriver.cpp:361:20
	movw	r0, #30784
.Ltmp30:
	.loc	26 77 7                 @ /root/Bela/projects/board_6/Adafruit_PWMServoDriver.cpp:77:7
	cmp	r5, #0
.Ltmp31:
	.loc	26 361 20               @ /root/Bela/projects/board_6/Adafruit_PWMServoDriver.cpp:361:20
	movt	r0, #381
.Ltmp32:
	@DEBUG_VALUE: setOscillatorFrequency:this <- %R4
	@DEBUG_VALUE: setOscillatorFrequency:freq <- 25000000
	str	r0, [r4, #12]
.Ltmp33:
	.loc	26 77 7                 @ /root/Bela/projects/board_6/Adafruit_PWMServoDriver.cpp:77:7
	beq	.LBB3_6
.Ltmp34:
@ BB#5:
	@DEBUG_VALUE: setOscillatorFrequency:this <- %R4
	@DEBUG_VALUE: write8:this <- %R4
	@DEBUG_VALUE: begin:prescale <- %R5
	@DEBUG_VALUE: begin:this <- %R4
	@DEBUG_VALUE: begin:prescale <- %R5
	@DEBUG_VALUE: read8:addr <- 0
	@DEBUG_VALUE: read8:this <- %R4
	mov	r8, #0
	add	r1, sp, #15
.Ltmp35:
	.loc	26 366 23               @ /root/Bela/projects/board_6/Adafruit_PWMServoDriver.cpp:366:23
	strb	r8, [sp, #15]
	mov	r6, #1
	.loc	26 367 3                @ /root/Bela/projects/board_6/Adafruit_PWMServoDriver.cpp:367:3
	ldr	r0, [r4, #8]
	.loc	26 367 12 is_stmt 0     @ /root/Bela/projects/board_6/Adafruit_PWMServoDriver.cpp:367:12
	mov	r2, #1
	mov	r3, r1
	stm	sp, {r6, r8}
	bl	_ZN18Adafruit_I2CDevice15write_then_readEPKhjPhjb
.Ltmp36:
	.loc	26 121 22 is_stmt 1     @ /root/Bela/projects/board_6/Adafruit_PWMServoDriver.cpp:121:22
	ldrb	r0, [sp, #15]
.Ltmp37:
	@DEBUG_VALUE: write8:addr <- 0
	add	r9, sp, #13
.Ltmp38:
	.loc	26 372 23               @ /root/Bela/projects/board_6/Adafruit_PWMServoDriver.cpp:372:23
	strb	r8, [sp, #13]
	.loc	26 373 12               @ /root/Bela/projects/board_6/Adafruit_PWMServoDriver.cpp:373:12
	mov	r2, #2
.Ltmp39:
	.loc	26 121 30               @ /root/Bela/projects/board_6/Adafruit_PWMServoDriver.cpp:121:30
	and	r7, r0, #111
.Ltmp40:
	.loc	26 373 12               @ /root/Bela/projects/board_6/Adafruit_PWMServoDriver.cpp:373:12
	mov	r1, r9
.Ltmp41:
	.loc	26 121 39               @ /root/Bela/projects/board_6/Adafruit_PWMServoDriver.cpp:121:39
	orr	r0, r7, #16
.Ltmp42:
	.loc	26 372 23               @ /root/Bela/projects/board_6/Adafruit_PWMServoDriver.cpp:372:23
	strb	r0, [sp, #14]
	.loc	26 373 3                @ /root/Bela/projects/board_6/Adafruit_PWMServoDriver.cpp:373:3
	ldr	r0, [r4, #8]
	.loc	26 373 12 is_stmt 0     @ /root/Bela/projects/board_6/Adafruit_PWMServoDriver.cpp:373:12
	bl	_ZN18Adafruit_I2CDevice5writeEPhj
.Ltmp43:
	@DEBUG_VALUE: write8:addr <- 0
	.loc	26 372 23 is_stmt 1     @ /root/Bela/projects/board_6/Adafruit_PWMServoDriver.cpp:372:23
	strb	r8, [sp, #13]
.Ltmp44:
	.loc	26 126 25               @ /root/Bela/projects/board_6/Adafruit_PWMServoDriver.cpp:126:25
	orr	r0, r7, #80
.Ltmp45:
	.loc	26 372 23               @ /root/Bela/projects/board_6/Adafruit_PWMServoDriver.cpp:372:23
	strb	r0, [sp, #14]
	.loc	26 373 12               @ /root/Bela/projects/board_6/Adafruit_PWMServoDriver.cpp:373:12
	mov	r1, r9
	.loc	26 373 3 is_stmt 0      @ /root/Bela/projects/board_6/Adafruit_PWMServoDriver.cpp:373:3
	ldr	r0, [r4, #8]
	.loc	26 373 12               @ /root/Bela/projects/board_6/Adafruit_PWMServoDriver.cpp:373:12
	mov	r2, #2
	bl	_ZN18Adafruit_I2CDevice5writeEPhj
.Ltmp46:
	@DEBUG_VALUE: write8:addr <- -2
	.loc	26 372 23 is_stmt 1     @ /root/Bela/projects/board_6/Adafruit_PWMServoDriver.cpp:372:23
	mov	r0, #254
	.loc	26 373 12               @ /root/Bela/projects/board_6/Adafruit_PWMServoDriver.cpp:373:12
	mov	r1, r9
	.loc	26 372 23               @ /root/Bela/projects/board_6/Adafruit_PWMServoDriver.cpp:372:23
	strb	r0, [sp, #13]
	.loc	26 373 12               @ /root/Bela/projects/board_6/Adafruit_PWMServoDriver.cpp:373:12
	mov	r2, #2
	.loc	26 372 23               @ /root/Bela/projects/board_6/Adafruit_PWMServoDriver.cpp:372:23
	strb	r5, [sp, #14]
	.loc	26 373 3                @ /root/Bela/projects/board_6/Adafruit_PWMServoDriver.cpp:373:3
	ldr	r0, [r4, #8]
	.loc	26 373 12 is_stmt 0     @ /root/Bela/projects/board_6/Adafruit_PWMServoDriver.cpp:373:12
	bl	_ZN18Adafruit_I2CDevice5writeEPhj
.Ltmp47:
	.loc	26 130 3 is_stmt 1      @ /root/Bela/projects/board_6/Adafruit_PWMServoDriver.cpp:130:3
	mov	r0, #5
	bl	_Z5delayj
.Ltmp48:
	@DEBUG_VALUE: write8:addr <- 0
	.loc	26 372 23               @ /root/Bela/projects/board_6/Adafruit_PWMServoDriver.cpp:372:23
	strb	r8, [sp, #13]
.Ltmp49:
	.loc	26 132 41               @ /root/Bela/projects/board_6/Adafruit_PWMServoDriver.cpp:132:41
	orr	r0, r7, #224
.Ltmp50:
	.loc	26 372 23               @ /root/Bela/projects/board_6/Adafruit_PWMServoDriver.cpp:372:23
	strb	r0, [sp, #14]
	.loc	26 373 12               @ /root/Bela/projects/board_6/Adafruit_PWMServoDriver.cpp:373:12
	mov	r1, r9
	.loc	26 373 3 is_stmt 0      @ /root/Bela/projects/board_6/Adafruit_PWMServoDriver.cpp:373:3
	ldr	r0, [r4, #8]
	.loc	26 373 12               @ /root/Bela/projects/board_6/Adafruit_PWMServoDriver.cpp:373:12
	mov	r2, #2
	bl	_ZN18Adafruit_I2CDevice5writeEPhj
	b	.LBB3_7
.Ltmp51:
.LBB3_6:
	@DEBUG_VALUE: setOscillatorFrequency:this <- %R4
	@DEBUG_VALUE: write8:this <- %R4
	@DEBUG_VALUE: begin:prescale <- %R5
	@DEBUG_VALUE: begin:this <- %R4
	.loc	26 81 5 is_stmt 1       @ /root/Bela/projects/board_6/Adafruit_PWMServoDriver.cpp:81:5
	vldr	s0, .LCPI3_0
.Ltmp52:
	@DEBUG_VALUE: write8:this <- %R4
	mov	r0, r4
	bl	_ZN23Adafruit_PWMServoDriver10setPWMFreqEf
	mov	r6, #1
.Ltmp53:
.LBB3_7:
	@DEBUG_VALUE: begin:prescale <- %R5
	@DEBUG_VALUE: begin:this <- %R4
	.loc	26 85 1 discriminator 1 @ /root/Bela/projects/board_6/Adafruit_PWMServoDriver.cpp:85:1
	mov	r0, r6
	sub	sp, r11, #24
	pop	{r4, r5, r6, r7, r8, r9, r11, pc}
.Ltmp54:
.LBB3_8:
	@DEBUG_VALUE: begin:prescale <- %R5
	@DEBUG_VALUE: begin:this <- %R4
.Ltmp7:
	mov	r4, r0
.Ltmp55:
	.loc	26 69 13 discriminator 2 @ /root/Bela/projects/board_6/Adafruit_PWMServoDriver.cpp:69:13
	mov	r0, r6
	bl	_ZdlPv
	mov	r0, r4
	mov	lr, pc
	b	_Unwind_Resume
.Ltmp56:
	.p2align	2
@ BB#9:
.LCPI3_0:
	.long	1148846080              @ float 1000
.Lfunc_end3:
	.size	_ZN23Adafruit_PWMServoDriver5beginEh, .Lfunc_end3-_ZN23Adafruit_PWMServoDriver5beginEh
	.cfi_endproc
	.globl	__gxx_personality_v0
	.personality __gxx_personality_v0
	.handlerdata
	.p2align	2
GCC_except_table3:
.Lexception0:
	.byte	255                     @ @LPStart Encoding = omit
	.byte	0                       @ @TType Encoding = absptr
	.byte	41                      @ @TType base offset
	.byte	3                       @ Call site Encoding = udata4
	.byte	39                      @ Call site table length
	.long	.Lfunc_begin3-.Lfunc_begin3 @ >> Call Site 1 <<
	.long	.Ltmp5-.Lfunc_begin3    @   Call between .Lfunc_begin3 and .Ltmp5
	.long	0                       @     has no landing pad
	.byte	0                       @   On action: cleanup
	.long	.Ltmp5-.Lfunc_begin3    @ >> Call Site 2 <<
	.long	.Ltmp6-.Ltmp5           @   Call between .Ltmp5 and .Ltmp6
	.long	.Ltmp7-.Lfunc_begin3    @     jumps to .Ltmp7
	.byte	0                       @   On action: cleanup
	.long	.Ltmp6-.Lfunc_begin3    @ >> Call Site 3 <<
	.long	.Lfunc_end3-.Ltmp6      @   Call between .Ltmp6 and .Lfunc_end3
	.long	0                       @     has no landing pad
	.byte	0                       @   On action: cleanup
	.p2align	2
	.fnend

	.globl	_ZN23Adafruit_PWMServoDriver5resetEv
	.p2align	2
	.type	_ZN23Adafruit_PWMServoDriver5resetEv,%function
_ZN23Adafruit_PWMServoDriver5resetEv:   @ @_ZN23Adafruit_PWMServoDriver5resetEv
.Lfunc_begin4:
	.loc	26 90 0                 @ /root/Bela/projects/board_6/Adafruit_PWMServoDriver.cpp:90:0
	.fnstart
	.cfi_startproc
@ BB#0:
	.save	{r11, lr}
	push	{r11, lr}
.Ltmp57:
	.cfi_def_cfa_offset 8
.Ltmp58:
	.cfi_offset lr, -4
.Ltmp59:
	.cfi_offset r11, -8
	.setfp	r11, sp
	mov	r11, sp
.Ltmp60:
	.cfi_def_cfa_register r11
	.pad	#8
	sub	sp, sp, #8
	@DEBUG_VALUE: reset:this <- %R0
.Ltmp61:
	@DEBUG_VALUE: write8:this <- %R0
	@DEBUG_VALUE: write8:addr <- 0
	@DEBUG_VALUE: write8:d <- -128
	.loc	26 372 23 prologue_end  @ /root/Bela/projects/board_6/Adafruit_PWMServoDriver.cpp:372:23
	mov	r1, #32768
	.loc	26 373 12               @ /root/Bela/projects/board_6/Adafruit_PWMServoDriver.cpp:373:12
	mov	r2, #2
	.loc	26 372 23               @ /root/Bela/projects/board_6/Adafruit_PWMServoDriver.cpp:372:23
	strh	r1, [r11, #-2]
	sub	r1, r11, #2
	.loc	26 373 3                @ /root/Bela/projects/board_6/Adafruit_PWMServoDriver.cpp:373:3
	ldr	r0, [r0, #8]
.Ltmp62:
	.loc	26 373 12 is_stmt 0     @ /root/Bela/projects/board_6/Adafruit_PWMServoDriver.cpp:373:12
	bl	_ZN18Adafruit_I2CDevice5writeEPhj
.Ltmp63:
	.loc	26 92 3 is_stmt 1       @ /root/Bela/projects/board_6/Adafruit_PWMServoDriver.cpp:92:3
	mov	r0, #10
	bl	_Z5delayj
	.loc	26 93 1                 @ /root/Bela/projects/board_6/Adafruit_PWMServoDriver.cpp:93:1
	mov	sp, r11
	pop	{r11, pc}
.Ltmp64:
.Lfunc_end4:
	.size	_ZN23Adafruit_PWMServoDriver5resetEv, .Lfunc_end4-_ZN23Adafruit_PWMServoDriver5resetEv
	.cfi_endproc
	.fnend

	.globl	_ZN23Adafruit_PWMServoDriver22setOscillatorFrequencyEj
	.p2align	2
	.type	_ZN23Adafruit_PWMServoDriver22setOscillatorFrequencyEj,%function
_ZN23Adafruit_PWMServoDriver22setOscillatorFrequencyEj: @ @_ZN23Adafruit_PWMServoDriver22setOscillatorFrequencyEj
.Lfunc_begin5:
	.loc	26 360 0                @ /root/Bela/projects/board_6/Adafruit_PWMServoDriver.cpp:360:0
	.fnstart
	.cfi_startproc
@ BB#0:
	@DEBUG_VALUE: setOscillatorFrequency:this <- %R0
	@DEBUG_VALUE: setOscillatorFrequency:freq <- %R1
	.loc	26 361 20 prologue_end  @ /root/Bela/projects/board_6/Adafruit_PWMServoDriver.cpp:361:20
	str	r1, [r0, #12]
	.loc	26 362 1                @ /root/Bela/projects/board_6/Adafruit_PWMServoDriver.cpp:362:1
	bx	lr
.Ltmp65:
.Lfunc_end5:
	.size	_ZN23Adafruit_PWMServoDriver22setOscillatorFrequencyEj, .Lfunc_end5-_ZN23Adafruit_PWMServoDriver22setOscillatorFrequencyEj
	.cfi_endproc
	.fnend

	.globl	_ZN23Adafruit_PWMServoDriver9setExtClkEh
	.p2align	2
	.type	_ZN23Adafruit_PWMServoDriver9setExtClkEh,%function
_ZN23Adafruit_PWMServoDriver9setExtClkEh: @ @_ZN23Adafruit_PWMServoDriver9setExtClkEh
.Lfunc_begin6:
	.loc	26 119 0                @ /root/Bela/projects/board_6/Adafruit_PWMServoDriver.cpp:119:0
	.fnstart
	.cfi_startproc
@ BB#0:
	.save	{r4, r5, r6, r7, r8, r10, r11, lr}
	push	{r4, r5, r6, r7, r8, r10, r11, lr}
.Ltmp66:
	.cfi_def_cfa_offset 32
.Ltmp67:
	.cfi_offset lr, -4
.Ltmp68:
	.cfi_offset r11, -8
.Ltmp69:
	.cfi_offset r10, -12
.Ltmp70:
	.cfi_offset r8, -16
.Ltmp71:
	.cfi_offset r7, -20
.Ltmp72:
	.cfi_offset r6, -24
.Ltmp73:
	.cfi_offset r5, -28
.Ltmp74:
	.cfi_offset r4, -32
	.setfp	r11, sp, #24
	add	r11, sp, #24
.Ltmp75:
	.cfi_def_cfa r11, 8
	.pad	#16
	sub	sp, sp, #16
	@DEBUG_VALUE: setExtClk:this <- %R0
	@DEBUG_VALUE: setExtClk:prescale <- %R1
	mov	r7, #0
	mov	r8, r1
.Ltmp76:
	@DEBUG_VALUE: setExtClk:prescale <- %R8
	mov	r4, r0
.Ltmp77:
	@DEBUG_VALUE: read8:addr <- 0
	@DEBUG_VALUE: read8:this <- %R4
	@DEBUG_VALUE: setExtClk:this <- %R4
	.loc	26 366 23 prologue_end  @ /root/Bela/projects/board_6/Adafruit_PWMServoDriver.cpp:366:23
	strb	r7, [sp, #13]
	mov	r1, #1
	.loc	26 367 3                @ /root/Bela/projects/board_6/Adafruit_PWMServoDriver.cpp:367:3
	ldr	r0, [r4, #8]
	.loc	26 367 12 is_stmt 0     @ /root/Bela/projects/board_6/Adafruit_PWMServoDriver.cpp:367:12
	stm	sp, {r1, r7}
	add	r1, sp, #13
	mov	r2, #1
	mov	r3, r1
	bl	_ZN18Adafruit_I2CDevice15write_then_readEPKhjPhjb
.Ltmp78:
	.loc	26 121 22 is_stmt 1     @ /root/Bela/projects/board_6/Adafruit_PWMServoDriver.cpp:121:22
	ldrb	r0, [sp, #13]
.Ltmp79:
	@DEBUG_VALUE: write8:addr <- 0
	@DEBUG_VALUE: write8:this <- %R4
	add	r6, sp, #14
.Ltmp80:
	.loc	26 372 23               @ /root/Bela/projects/board_6/Adafruit_PWMServoDriver.cpp:372:23
	strb	r7, [sp, #14]
	.loc	26 373 12               @ /root/Bela/projects/board_6/Adafruit_PWMServoDriver.cpp:373:12
	mov	r2, #2
.Ltmp81:
	.loc	26 121 30               @ /root/Bela/projects/board_6/Adafruit_PWMServoDriver.cpp:121:30
	and	r5, r0, #111
.Ltmp82:
	.loc	26 373 12               @ /root/Bela/projects/board_6/Adafruit_PWMServoDriver.cpp:373:12
	mov	r1, r6
.Ltmp83:
	.loc	26 121 39               @ /root/Bela/projects/board_6/Adafruit_PWMServoDriver.cpp:121:39
	orr	r0, r5, #16
.Ltmp84:
	.loc	26 372 23               @ /root/Bela/projects/board_6/Adafruit_PWMServoDriver.cpp:372:23
	strb	r0, [sp, #15]
	.loc	26 373 3                @ /root/Bela/projects/board_6/Adafruit_PWMServoDriver.cpp:373:3
	ldr	r0, [r4, #8]
	.loc	26 373 12 is_stmt 0     @ /root/Bela/projects/board_6/Adafruit_PWMServoDriver.cpp:373:12
	bl	_ZN18Adafruit_I2CDevice5writeEPhj
.Ltmp85:
	@DEBUG_VALUE: write8:addr <- 0
	@DEBUG_VALUE: write8:this <- %R4
	.loc	26 372 23 is_stmt 1     @ /root/Bela/projects/board_6/Adafruit_PWMServoDriver.cpp:372:23
	strb	r7, [sp, #14]
.Ltmp86:
	.loc	26 126 25               @ /root/Bela/projects/board_6/Adafruit_PWMServoDriver.cpp:126:25
	orr	r0, r5, #80
.Ltmp87:
	.loc	26 372 23               @ /root/Bela/projects/board_6/Adafruit_PWMServoDriver.cpp:372:23
	strb	r0, [sp, #15]
	.loc	26 373 12               @ /root/Bela/projects/board_6/Adafruit_PWMServoDriver.cpp:373:12
	mov	r1, r6
	.loc	26 373 3 is_stmt 0      @ /root/Bela/projects/board_6/Adafruit_PWMServoDriver.cpp:373:3
	ldr	r0, [r4, #8]
	.loc	26 373 12               @ /root/Bela/projects/board_6/Adafruit_PWMServoDriver.cpp:373:12
	mov	r2, #2
	bl	_ZN18Adafruit_I2CDevice5writeEPhj
.Ltmp88:
	@DEBUG_VALUE: write8:addr <- -2
	@DEBUG_VALUE: write8:this <- %R4
	.loc	26 372 23 is_stmt 1     @ /root/Bela/projects/board_6/Adafruit_PWMServoDriver.cpp:372:23
	mov	r0, #254
	.loc	26 373 12               @ /root/Bela/projects/board_6/Adafruit_PWMServoDriver.cpp:373:12
	mov	r1, r6
	.loc	26 372 23               @ /root/Bela/projects/board_6/Adafruit_PWMServoDriver.cpp:372:23
	strb	r0, [sp, #14]
	.loc	26 373 12               @ /root/Bela/projects/board_6/Adafruit_PWMServoDriver.cpp:373:12
	mov	r2, #2
	.loc	26 372 23               @ /root/Bela/projects/board_6/Adafruit_PWMServoDriver.cpp:372:23
	strb	r8, [sp, #15]
	.loc	26 373 3                @ /root/Bela/projects/board_6/Adafruit_PWMServoDriver.cpp:373:3
	ldr	r0, [r4, #8]
	.loc	26 373 12 is_stmt 0     @ /root/Bela/projects/board_6/Adafruit_PWMServoDriver.cpp:373:12
	bl	_ZN18Adafruit_I2CDevice5writeEPhj
.Ltmp89:
	.loc	26 130 3 is_stmt 1      @ /root/Bela/projects/board_6/Adafruit_PWMServoDriver.cpp:130:3
	mov	r0, #5
	bl	_Z5delayj
.Ltmp90:
	@DEBUG_VALUE: write8:addr <- 0
	@DEBUG_VALUE: write8:this <- %R4
	.loc	26 372 23               @ /root/Bela/projects/board_6/Adafruit_PWMServoDriver.cpp:372:23
	strb	r7, [sp, #14]
.Ltmp91:
	.loc	26 132 41               @ /root/Bela/projects/board_6/Adafruit_PWMServoDriver.cpp:132:41
	orr	r0, r5, #224
.Ltmp92:
	.loc	26 372 23               @ /root/Bela/projects/board_6/Adafruit_PWMServoDriver.cpp:372:23
	strb	r0, [sp, #15]
	.loc	26 373 12               @ /root/Bela/projects/board_6/Adafruit_PWMServoDriver.cpp:373:12
	mov	r1, r6
	.loc	26 373 3 is_stmt 0      @ /root/Bela/projects/board_6/Adafruit_PWMServoDriver.cpp:373:3
	ldr	r0, [r4, #8]
	.loc	26 373 12               @ /root/Bela/projects/board_6/Adafruit_PWMServoDriver.cpp:373:12
	mov	r2, #2
	bl	_ZN18Adafruit_I2CDevice5writeEPhj
.Ltmp93:
	.loc	26 138 1 is_stmt 1      @ /root/Bela/projects/board_6/Adafruit_PWMServoDriver.cpp:138:1
	sub	sp, r11, #24
	pop	{r4, r5, r6, r7, r8, r10, r11, pc}
.Ltmp94:
.Lfunc_end6:
	.size	_ZN23Adafruit_PWMServoDriver9setExtClkEh, .Lfunc_end6-_ZN23Adafruit_PWMServoDriver9setExtClkEh
	.cfi_endproc
	.fnend

	.globl	_ZN23Adafruit_PWMServoDriver10setPWMFreqEf
	.p2align	3
	.type	_ZN23Adafruit_PWMServoDriver10setPWMFreqEf,%function
_ZN23Adafruit_PWMServoDriver10setPWMFreqEf: @ @_ZN23Adafruit_PWMServoDriver10setPWMFreqEf
.Lfunc_begin7:
	.loc	26 144 0                @ /root/Bela/projects/board_6/Adafruit_PWMServoDriver.cpp:144:0
	.fnstart
	.cfi_startproc
@ BB#0:
	.save	{r4, r5, r6, r7, r8, r10, r11, lr}
	push	{r4, r5, r6, r7, r8, r10, r11, lr}
.Ltmp95:
	.cfi_def_cfa_offset 32
.Ltmp96:
	.cfi_offset lr, -4
.Ltmp97:
	.cfi_offset r11, -8
.Ltmp98:
	.cfi_offset r10, -12
.Ltmp99:
	.cfi_offset r8, -16
.Ltmp100:
	.cfi_offset r7, -20
.Ltmp101:
	.cfi_offset r6, -24
.Ltmp102:
	.cfi_offset r5, -28
.Ltmp103:
	.cfi_offset r4, -32
	.setfp	r11, sp, #24
	add	r11, sp, #24
.Ltmp104:
	.cfi_def_cfa r11, 8
	.vsave	{d8}
	vpush	{d8}
.Ltmp105:
	.cfi_offset d8, -40
	.pad	#16
	sub	sp, sp, #16
	@DEBUG_VALUE: setPWMFreq:this <- %R0
	@DEBUG_VALUE: setPWMFreq:freq <- %S0
	mov	r4, r0
.Ltmp106:
	@DEBUG_VALUE: setPWMFreq:freq <- 1.000000e+00
	@DEBUG_VALUE: setPWMFreq:this <- %R4
	mov	r6, #0
.Ltmp107:
	.loc	26 155 25 prologue_end  @ /root/Bela/projects/board_6/Adafruit_PWMServoDriver.cpp:155:25
	ldr	r5, [r4, #12]
.Ltmp108:
	@DEBUG_VALUE: read8:addr <- 0
	@DEBUG_VALUE: read8:this <- %R4
	mov	r1, #1
.Ltmp109:
	.loc	26 366 23               @ /root/Bela/projects/board_6/Adafruit_PWMServoDriver.cpp:366:23
	strb	r6, [sp, #13]
	.loc	26 367 12               @ /root/Bela/projects/board_6/Adafruit_PWMServoDriver.cpp:367:12
	mov	r2, #1
	.loc	26 367 3 is_stmt 0      @ /root/Bela/projects/board_6/Adafruit_PWMServoDriver.cpp:367:3
	ldr	r0, [r4, #8]
	vorr	d8, d0, d0
.Ltmp110:
	@DEBUG_VALUE: setPWMFreq:freq <- %S16
	.loc	26 367 12               @ /root/Bela/projects/board_6/Adafruit_PWMServoDriver.cpp:367:12
	stm	sp, {r1, r6}
	add	r1, sp, #13
	mov	r3, r1
	bl	_ZN18Adafruit_I2CDevice15write_then_readEPKhjPhjb
	.loc	26 368 10 is_stmt 1     @ /root/Bela/projects/board_6/Adafruit_PWMServoDriver.cpp:368:10
	ldrb	r7, [sp, #13]
.Ltmp111:
	@DEBUG_VALUE: write8:addr <- 0
	@DEBUG_VALUE: write8:this <- %R4
	add	r8, sp, #14
.Ltmp112:
	.loc	26 372 23               @ /root/Bela/projects/board_6/Adafruit_PWMServoDriver.cpp:372:23
	strb	r6, [sp, #14]
	.loc	26 373 12               @ /root/Bela/projects/board_6/Adafruit_PWMServoDriver.cpp:373:12
	mov	r2, #2
.Ltmp113:
	.loc	26 168 30               @ /root/Bela/projects/board_6/Adafruit_PWMServoDriver.cpp:168:30
	and	r0, r7, #111
.Ltmp114:
	.loc	26 373 12               @ /root/Bela/projects/board_6/Adafruit_PWMServoDriver.cpp:373:12
	mov	r1, r8
.Ltmp115:
	.loc	26 168 39               @ /root/Bela/projects/board_6/Adafruit_PWMServoDriver.cpp:168:39
	orr	r0, r0, #16
.Ltmp116:
	.loc	26 372 23               @ /root/Bela/projects/board_6/Adafruit_PWMServoDriver.cpp:372:23
	strb	r0, [sp, #15]
	.loc	26 373 3                @ /root/Bela/projects/board_6/Adafruit_PWMServoDriver.cpp:373:3
	ldr	r0, [r4, #8]
	.loc	26 373 12 is_stmt 0     @ /root/Bela/projects/board_6/Adafruit_PWMServoDriver.cpp:373:12
	bl	_ZN18Adafruit_I2CDevice5writeEPhj
.Ltmp117:
	.loc	26 150 12 is_stmt 1     @ /root/Bela/projects/board_6/Adafruit_PWMServoDriver.cpp:150:12
	vmov.f32	d16, #1.000000e+00
.Ltmp118:
	.loc	26 152 12               @ /root/Bela/projects/board_6/Adafruit_PWMServoDriver.cpp:152:12
	vldr	s0, .LCPI7_0
.Ltmp119:
	.loc	26 155 50               @ /root/Bela/projects/board_6/Adafruit_PWMServoDriver.cpp:155:50
	vldr	d17, .LCPI7_1
.Ltmp120:
	.loc	26 372 23               @ /root/Bela/projects/board_6/Adafruit_PWMServoDriver.cpp:372:23
	mov	r0, #254
.Ltmp121:
	.loc	26 150 7                @ /root/Bela/projects/board_6/Adafruit_PWMServoDriver.cpp:150:7
	vmax.f32	d16, d8, d16
.Ltmp122:
	@DEBUG_VALUE: setPWMFreq:freq <- 3.500000e+03
	.loc	26 158 19               @ /root/Bela/projects/board_6/Adafruit_PWMServoDriver.cpp:158:19
	vldr	s2, .LCPI7_2
.Ltmp123:
	@DEBUG_VALUE: setPWMFreq:prescaleval <- 3.000000e+00
	.loc	26 373 12               @ /root/Bela/projects/board_6/Adafruit_PWMServoDriver.cpp:373:12
	mov	r1, r8
	mov	r2, #2
.Ltmp124:
	.loc	26 152 7                @ /root/Bela/projects/board_6/Adafruit_PWMServoDriver.cpp:152:7
	vmin.f32	d0, d16, d0
	.loc	26 155 45               @ /root/Bela/projects/board_6/Adafruit_PWMServoDriver.cpp:155:45
	vcvt.f64.f32	d16, s0
	.loc	26 155 50 is_stmt 0     @ /root/Bela/projects/board_6/Adafruit_PWMServoDriver.cpp:155:50
	vmul.f64	d16, d16, d17
	.loc	26 155 25               @ /root/Bela/projects/board_6/Adafruit_PWMServoDriver.cpp:155:25
	vmov	s0, r5
	vcvt.f64.u32	d17, s0
.Ltmp125:
	.loc	26 372 23 is_stmt 1     @ /root/Bela/projects/board_6/Adafruit_PWMServoDriver.cpp:372:23
	strb	r0, [sp, #14]
.Ltmp126:
	.loc	26 155 42               @ /root/Bela/projects/board_6/Adafruit_PWMServoDriver.cpp:155:42
	vdiv.f64	d16, d17, d16
	.loc	26 155 68 is_stmt 0     @ /root/Bela/projects/board_6/Adafruit_PWMServoDriver.cpp:155:68
	vmov.f64	d17, #-5.000000e-01
	vadd.f64	d16, d16, d17
	.loc	26 155 23               @ /root/Bela/projects/board_6/Adafruit_PWMServoDriver.cpp:155:23
	vcvt.f32.f64	s0, d16
.Ltmp127:
	@DEBUG_VALUE: setPWMFreq:prescaleval <- %S0
	.loc	26 156 19 is_stmt 1     @ /root/Bela/projects/board_6/Adafruit_PWMServoDriver.cpp:156:19
	vmov.f32	d16, #3.000000e+00
.Ltmp128:
	.loc	26 156 7 is_stmt 0      @ /root/Bela/projects/board_6/Adafruit_PWMServoDriver.cpp:156:7
	vmax.f32	d16, d0, d16
.Ltmp129:
	@DEBUG_VALUE: setPWMFreq:prescaleval <- 2.550000e+02
	.loc	26 158 7 is_stmt 1      @ /root/Bela/projects/board_6/Adafruit_PWMServoDriver.cpp:158:7
	vmin.f32	d16, d16, d1
.Ltmp130:
	@DEBUG_VALUE: write8:addr <- -2
	@DEBUG_VALUE: write8:this <- %R4
	.loc	26 160 31               @ /root/Bela/projects/board_6/Adafruit_PWMServoDriver.cpp:160:31
	vcvt.u32.f32	d0, d16
	vmov	r0, s0
.Ltmp131:
	.loc	26 372 23               @ /root/Bela/projects/board_6/Adafruit_PWMServoDriver.cpp:372:23
	strb	r0, [sp, #15]
	.loc	26 373 3                @ /root/Bela/projects/board_6/Adafruit_PWMServoDriver.cpp:373:3
	ldr	r0, [r4, #8]
	.loc	26 373 12 is_stmt 0     @ /root/Bela/projects/board_6/Adafruit_PWMServoDriver.cpp:373:12
	bl	_ZN18Adafruit_I2CDevice5writeEPhj
.Ltmp132:
	@DEBUG_VALUE: write8:addr <- 0
	@DEBUG_VALUE: write8:this <- %R4
	.loc	26 372 23 is_stmt 1     @ /root/Bela/projects/board_6/Adafruit_PWMServoDriver.cpp:372:23
	strb	r6, [sp, #14]
	.loc	26 373 12               @ /root/Bela/projects/board_6/Adafruit_PWMServoDriver.cpp:373:12
	mov	r1, r8
	.loc	26 372 23               @ /root/Bela/projects/board_6/Adafruit_PWMServoDriver.cpp:372:23
	strb	r7, [sp, #15]
	.loc	26 373 12               @ /root/Bela/projects/board_6/Adafruit_PWMServoDriver.cpp:373:12
	mov	r2, #2
	.loc	26 373 3 is_stmt 0      @ /root/Bela/projects/board_6/Adafruit_PWMServoDriver.cpp:373:3
	ldr	r0, [r4, #8]
	.loc	26 373 12               @ /root/Bela/projects/board_6/Adafruit_PWMServoDriver.cpp:373:12
	bl	_ZN18Adafruit_I2CDevice5writeEPhj
.Ltmp133:
	.loc	26 172 3 is_stmt 1      @ /root/Bela/projects/board_6/Adafruit_PWMServoDriver.cpp:172:3
	mov	r0, #5
	bl	_Z5delayj
.Ltmp134:
	@DEBUG_VALUE: write8:addr <- 0
	@DEBUG_VALUE: write8:this <- %R4
	.loc	26 372 23               @ /root/Bela/projects/board_6/Adafruit_PWMServoDriver.cpp:372:23
	strb	r6, [sp, #14]
.Ltmp135:
	.loc	26 174 31               @ /root/Bela/projects/board_6/Adafruit_PWMServoDriver.cpp:174:31
	orr	r0, r7, #160
.Ltmp136:
	.loc	26 372 23               @ /root/Bela/projects/board_6/Adafruit_PWMServoDriver.cpp:372:23
	strb	r0, [sp, #15]
	.loc	26 373 12               @ /root/Bela/projects/board_6/Adafruit_PWMServoDriver.cpp:373:12
	mov	r1, r8
	.loc	26 373 3 is_stmt 0      @ /root/Bela/projects/board_6/Adafruit_PWMServoDriver.cpp:373:3
	ldr	r0, [r4, #8]
	.loc	26 373 12               @ /root/Bela/projects/board_6/Adafruit_PWMServoDriver.cpp:373:12
	mov	r2, #2
	bl	_ZN18Adafruit_I2CDevice5writeEPhj
.Ltmp137:
	.loc	26 180 1 is_stmt 1      @ /root/Bela/projects/board_6/Adafruit_PWMServoDriver.cpp:180:1
	sub	sp, r11, #32
	vpop	{d8}
	pop	{r4, r5, r6, r7, r8, r10, r11, pc}
.Ltmp138:
	.p2align	3
@ BB#1:
.LCPI7_1:
	.long	0                       @ double 4096
	.long	1085276160
.LCPI7_0:
	.long	1163575296              @ float 3500
.LCPI7_2:
	.long	1132396544              @ float 255
.Lfunc_end7:
	.size	_ZN23Adafruit_PWMServoDriver10setPWMFreqEf, .Lfunc_end7-_ZN23Adafruit_PWMServoDriver10setPWMFreqEf
	.cfi_endproc
	.fnend

	.globl	_ZN23Adafruit_PWMServoDriver6write8Ehh
	.p2align	2
	.type	_ZN23Adafruit_PWMServoDriver6write8Ehh,%function
_ZN23Adafruit_PWMServoDriver6write8Ehh: @ @_ZN23Adafruit_PWMServoDriver6write8Ehh
.Lfunc_begin8:
	.loc	26 371 0                @ /root/Bela/projects/board_6/Adafruit_PWMServoDriver.cpp:371:0
	.fnstart
	.cfi_startproc
@ BB#0:
	.save	{r11, lr}
	push	{r11, lr}
.Ltmp139:
	.cfi_def_cfa_offset 8
.Ltmp140:
	.cfi_offset lr, -4
.Ltmp141:
	.cfi_offset r11, -8
	.setfp	r11, sp
	mov	r11, sp
.Ltmp142:
	.cfi_def_cfa_register r11
	.pad	#8
	sub	sp, sp, #8
	@DEBUG_VALUE: write8:this <- %R0
	@DEBUG_VALUE: write8:addr <- %R1
	@DEBUG_VALUE: write8:d <- %R2
.Ltmp143:
	.loc	26 372 23 prologue_end  @ /root/Bela/projects/board_6/Adafruit_PWMServoDriver.cpp:372:23
	strb	r1, [r11, #-2]
	sub	r1, r11, #2
.Ltmp144:
	@DEBUG_VALUE: write8:buffer <- [%R1+0]
	strb	r2, [r11, #-1]
	.loc	26 373 12               @ /root/Bela/projects/board_6/Adafruit_PWMServoDriver.cpp:373:12
	mov	r2, #2
.Ltmp145:
	.loc	26 373 3 is_stmt 0      @ /root/Bela/projects/board_6/Adafruit_PWMServoDriver.cpp:373:3
	ldr	r0, [r0, #8]
.Ltmp146:
	.loc	26 373 12               @ /root/Bela/projects/board_6/Adafruit_PWMServoDriver.cpp:373:12
	bl	_ZN18Adafruit_I2CDevice5writeEPhj
.Ltmp147:
	.loc	26 374 1 is_stmt 1      @ /root/Bela/projects/board_6/Adafruit_PWMServoDriver.cpp:374:1
	mov	sp, r11
	pop	{r11, pc}
.Ltmp148:
.Lfunc_end8:
	.size	_ZN23Adafruit_PWMServoDriver6write8Ehh, .Lfunc_end8-_ZN23Adafruit_PWMServoDriver6write8Ehh
	.cfi_endproc
	.fnend

	.globl	_ZN23Adafruit_PWMServoDriver5sleepEv
	.p2align	2
	.type	_ZN23Adafruit_PWMServoDriver5sleepEv,%function
_ZN23Adafruit_PWMServoDriver5sleepEv:   @ @_ZN23Adafruit_PWMServoDriver5sleepEv
.Lfunc_begin9:
	.loc	26 98 0                 @ /root/Bela/projects/board_6/Adafruit_PWMServoDriver.cpp:98:0
	.fnstart
	.cfi_startproc
@ BB#0:
	.save	{r4, r5, r11, lr}
	push	{r4, r5, r11, lr}
.Ltmp149:
	.cfi_def_cfa_offset 16
.Ltmp150:
	.cfi_offset lr, -4
.Ltmp151:
	.cfi_offset r11, -8
.Ltmp152:
	.cfi_offset r5, -12
.Ltmp153:
	.cfi_offset r4, -16
	.setfp	r11, sp, #8
	add	r11, sp, #8
.Ltmp154:
	.cfi_def_cfa r11, 8
	.pad	#16
	sub	sp, sp, #16
	@DEBUG_VALUE: sleep:this <- %R0
	mov	r5, #0
	mov	r4, r0
.Ltmp155:
	@DEBUG_VALUE: read8:addr <- 0
	@DEBUG_VALUE: read8:this <- %R4
	@DEBUG_VALUE: sleep:this <- %R4
	.loc	26 366 23 prologue_end  @ /root/Bela/projects/board_6/Adafruit_PWMServoDriver.cpp:366:23
	strb	r5, [r11, #-11]
	mov	r1, #1
	.loc	26 367 3                @ /root/Bela/projects/board_6/Adafruit_PWMServoDriver.cpp:367:3
	ldr	r0, [r4, #8]
	.loc	26 367 12 is_stmt 0     @ /root/Bela/projects/board_6/Adafruit_PWMServoDriver.cpp:367:12
	mov	r2, #1
	stm	sp, {r1, r5}
	sub	r1, r11, #11
	mov	r3, r1
	bl	_ZN18Adafruit_I2CDevice15write_then_readEPKhjPhjb
.Ltmp156:
	.loc	26 100 19 is_stmt 1     @ /root/Bela/projects/board_6/Adafruit_PWMServoDriver.cpp:100:19
	ldrb	r0, [r11, #-11]
.Ltmp157:
	@DEBUG_VALUE: write8:addr <- 0
	@DEBUG_VALUE: write8:this <- %R4
	sub	r1, r11, #10
.Ltmp158:
	.loc	26 372 23               @ /root/Bela/projects/board_6/Adafruit_PWMServoDriver.cpp:372:23
	strb	r5, [r11, #-10]
	.loc	26 373 12               @ /root/Bela/projects/board_6/Adafruit_PWMServoDriver.cpp:373:12
	mov	r2, #2
.Ltmp159:
	.loc	26 100 25               @ /root/Bela/projects/board_6/Adafruit_PWMServoDriver.cpp:100:25
	orr	r0, r0, #16
.Ltmp160:
	.loc	26 372 23               @ /root/Bela/projects/board_6/Adafruit_PWMServoDriver.cpp:372:23
	strb	r0, [r11, #-9]
	.loc	26 373 3                @ /root/Bela/projects/board_6/Adafruit_PWMServoDriver.cpp:373:3
	ldr	r0, [r4, #8]
	.loc	26 373 12 is_stmt 0     @ /root/Bela/projects/board_6/Adafruit_PWMServoDriver.cpp:373:12
	bl	_ZN18Adafruit_I2CDevice5writeEPhj
.Ltmp161:
	.loc	26 102 3 is_stmt 1      @ /root/Bela/projects/board_6/Adafruit_PWMServoDriver.cpp:102:3
	mov	r0, #5
	bl	_Z5delayj
	.loc	26 103 1                @ /root/Bela/projects/board_6/Adafruit_PWMServoDriver.cpp:103:1
	sub	sp, r11, #8
	pop	{r4, r5, r11, pc}
.Ltmp162:
.Lfunc_end9:
	.size	_ZN23Adafruit_PWMServoDriver5sleepEv, .Lfunc_end9-_ZN23Adafruit_PWMServoDriver5sleepEv
	.cfi_endproc
	.fnend

	.globl	_ZN23Adafruit_PWMServoDriver5read8Eh
	.p2align	2
	.type	_ZN23Adafruit_PWMServoDriver5read8Eh,%function
_ZN23Adafruit_PWMServoDriver5read8Eh:   @ @_ZN23Adafruit_PWMServoDriver5read8Eh
.Lfunc_begin10:
	.loc	26 365 0                @ /root/Bela/projects/board_6/Adafruit_PWMServoDriver.cpp:365:0
	.fnstart
	.cfi_startproc
@ BB#0:
	.save	{r11, lr}
	push	{r11, lr}
.Ltmp163:
	.cfi_def_cfa_offset 8
.Ltmp164:
	.cfi_offset lr, -4
.Ltmp165:
	.cfi_offset r11, -8
	.setfp	r11, sp
	mov	r11, sp
.Ltmp166:
	.cfi_def_cfa_register r11
	.pad	#16
	sub	sp, sp, #16
	@DEBUG_VALUE: read8:this <- %R0
	@DEBUG_VALUE: read8:addr <- %R1
.Ltmp167:
	.loc	26 366 23 prologue_end  @ /root/Bela/projects/board_6/Adafruit_PWMServoDriver.cpp:366:23
	strb	r1, [r11, #-1]
	mov	r1, #0
.Ltmp168:
	.loc	26 367 12               @ /root/Bela/projects/board_6/Adafruit_PWMServoDriver.cpp:367:12
	mov	r2, #1
	.loc	26 367 3 is_stmt 0      @ /root/Bela/projects/board_6/Adafruit_PWMServoDriver.cpp:367:3
	ldr	r0, [r0, #8]
.Ltmp169:
	.loc	26 367 12               @ /root/Bela/projects/board_6/Adafruit_PWMServoDriver.cpp:367:12
	str	r2, [sp]
	mov	r2, #1
	str	r1, [sp, #4]
	sub	r1, r11, #1
.Ltmp170:
	@DEBUG_VALUE: read8:buffer <- [%R1+0]
	mov	r3, r1
	bl	_ZN18Adafruit_I2CDevice15write_then_readEPKhjPhjb
.Ltmp171:
	.loc	26 368 3 is_stmt 1      @ /root/Bela/projects/board_6/Adafruit_PWMServoDriver.cpp:368:3
	ldrb	r0, [r11, #-1]
	mov	sp, r11
	pop	{r11, pc}
.Ltmp172:
.Lfunc_end10:
	.size	_ZN23Adafruit_PWMServoDriver5read8Eh, .Lfunc_end10-_ZN23Adafruit_PWMServoDriver5read8Eh
	.cfi_endproc
	.fnend

	.globl	_ZN23Adafruit_PWMServoDriver6wakeupEv
	.p2align	2
	.type	_ZN23Adafruit_PWMServoDriver6wakeupEv,%function
_ZN23Adafruit_PWMServoDriver6wakeupEv:  @ @_ZN23Adafruit_PWMServoDriver6wakeupEv
.Lfunc_begin11:
	.loc	26 108 0                @ /root/Bela/projects/board_6/Adafruit_PWMServoDriver.cpp:108:0
	.fnstart
	.cfi_startproc
@ BB#0:
	.save	{r4, r5, r11, lr}
	push	{r4, r5, r11, lr}
.Ltmp173:
	.cfi_def_cfa_offset 16
.Ltmp174:
	.cfi_offset lr, -4
.Ltmp175:
	.cfi_offset r11, -8
.Ltmp176:
	.cfi_offset r5, -12
.Ltmp177:
	.cfi_offset r4, -16
	.setfp	r11, sp, #8
	add	r11, sp, #8
.Ltmp178:
	.cfi_def_cfa r11, 8
	.pad	#16
	sub	sp, sp, #16
	@DEBUG_VALUE: wakeup:this <- %R0
	mov	r5, #0
	mov	r4, r0
.Ltmp179:
	@DEBUG_VALUE: read8:addr <- 0
	@DEBUG_VALUE: read8:this <- %R4
	@DEBUG_VALUE: wakeup:this <- %R4
	.loc	26 366 23 prologue_end  @ /root/Bela/projects/board_6/Adafruit_PWMServoDriver.cpp:366:23
	strb	r5, [r11, #-11]
	mov	r1, #1
	.loc	26 367 3                @ /root/Bela/projects/board_6/Adafruit_PWMServoDriver.cpp:367:3
	ldr	r0, [r4, #8]
	.loc	26 367 12 is_stmt 0     @ /root/Bela/projects/board_6/Adafruit_PWMServoDriver.cpp:367:12
	mov	r2, #1
	stm	sp, {r1, r5}
	sub	r1, r11, #11
	mov	r3, r1
	bl	_ZN18Adafruit_I2CDevice15write_then_readEPKhjPhjb
.Ltmp180:
	.loc	26 110 20 is_stmt 1     @ /root/Bela/projects/board_6/Adafruit_PWMServoDriver.cpp:110:20
	ldrb	r0, [r11, #-11]
.Ltmp181:
	@DEBUG_VALUE: write8:addr <- 0
	@DEBUG_VALUE: write8:this <- %R4
	sub	r1, r11, #10
.Ltmp182:
	.loc	26 372 23               @ /root/Bela/projects/board_6/Adafruit_PWMServoDriver.cpp:372:23
	strb	r5, [r11, #-10]
	.loc	26 373 12               @ /root/Bela/projects/board_6/Adafruit_PWMServoDriver.cpp:373:12
	mov	r2, #2
.Ltmp183:
	.loc	26 110 26               @ /root/Bela/projects/board_6/Adafruit_PWMServoDriver.cpp:110:26
	and	r0, r0, #239
.Ltmp184:
	.loc	26 372 23               @ /root/Bela/projects/board_6/Adafruit_PWMServoDriver.cpp:372:23
	strb	r0, [r11, #-9]
	.loc	26 373 3                @ /root/Bela/projects/board_6/Adafruit_PWMServoDriver.cpp:373:3
	ldr	r0, [r4, #8]
	.loc	26 373 12 is_stmt 0     @ /root/Bela/projects/board_6/Adafruit_PWMServoDriver.cpp:373:12
	bl	_ZN18Adafruit_I2CDevice5writeEPhj
.Ltmp185:
	.loc	26 112 1 is_stmt 1      @ /root/Bela/projects/board_6/Adafruit_PWMServoDriver.cpp:112:1
	sub	sp, r11, #8
	pop	{r4, r5, r11, pc}
.Ltmp186:
.Lfunc_end11:
	.size	_ZN23Adafruit_PWMServoDriver6wakeupEv, .Lfunc_end11-_ZN23Adafruit_PWMServoDriver6wakeupEv
	.cfi_endproc
	.fnend

	.globl	_ZN23Adafruit_PWMServoDriver13setOutputModeEb
	.p2align	2
	.type	_ZN23Adafruit_PWMServoDriver13setOutputModeEb,%function
_ZN23Adafruit_PWMServoDriver13setOutputModeEb: @ @_ZN23Adafruit_PWMServoDriver13setOutputModeEb
.Lfunc_begin12:
	.loc	26 189 0                @ /root/Bela/projects/board_6/Adafruit_PWMServoDriver.cpp:189:0
	.fnstart
	.cfi_startproc
@ BB#0:
	.save	{r4, r5, r6, r10, r11, lr}
	push	{r4, r5, r6, r10, r11, lr}
.Ltmp187:
	.cfi_def_cfa_offset 24
.Ltmp188:
	.cfi_offset lr, -4
.Ltmp189:
	.cfi_offset r11, -8
.Ltmp190:
	.cfi_offset r10, -12
.Ltmp191:
	.cfi_offset r6, -16
.Ltmp192:
	.cfi_offset r5, -20
.Ltmp193:
	.cfi_offset r4, -24
	.setfp	r11, sp, #16
	add	r11, sp, #16
.Ltmp194:
	.cfi_def_cfa r11, 8
	.pad	#16
	sub	sp, sp, #16
	@DEBUG_VALUE: setOutputMode:this <- %R0
	@DEBUG_VALUE: setOutputMode:totempole [bit_piece offset=0 size=1] <- %R1
	mov	r6, #1
	mov	r4, r1
.Ltmp195:
	@DEBUG_VALUE: setOutputMode:totempole [bit_piece offset=0 size=1] <- %R4
	mov	r5, r0
.Ltmp196:
	@DEBUG_VALUE: read8:addr <- 1
	@DEBUG_VALUE: read8:this <- %R5
	@DEBUG_VALUE: setOutputMode:this <- %R5
	.loc	26 366 23 prologue_end  @ /root/Bela/projects/board_6/Adafruit_PWMServoDriver.cpp:366:23
	strb	r6, [sp, #13]
	mov	r1, #0
	.loc	26 367 3                @ /root/Bela/projects/board_6/Adafruit_PWMServoDriver.cpp:367:3
	ldr	r0, [r5, #8]
	.loc	26 367 12 is_stmt 0     @ /root/Bela/projects/board_6/Adafruit_PWMServoDriver.cpp:367:12
	str	r6, [sp]
	mov	r2, #1
	str	r1, [sp, #4]
	add	r1, sp, #13
	mov	r3, r1
	bl	_ZN18Adafruit_I2CDevice15write_then_readEPKhjPhjb
.Ltmp197:
	.loc	26 193 15 is_stmt 1     @ /root/Bela/projects/board_6/Adafruit_PWMServoDriver.cpp:193:15
	ldrb	r0, [sp, #13]
.Ltmp198:
	@DEBUG_VALUE: write8:addr <- 1
	@DEBUG_VALUE: write8:this <- %R5
	.loc	26 192 7                @ /root/Bela/projects/board_6/Adafruit_PWMServoDriver.cpp:192:7
	cmp	r4, #0
.Ltmp199:
	.loc	26 372 23               @ /root/Bela/projects/board_6/Adafruit_PWMServoDriver.cpp:372:23
	strb	r6, [sp, #14]
	.loc	26 373 12               @ /root/Bela/projects/board_6/Adafruit_PWMServoDriver.cpp:373:12
	mov	r2, #2
.Ltmp200:
	.loc	26 195 23               @ /root/Bela/projects/board_6/Adafruit_PWMServoDriver.cpp:195:23
	and	r1, r0, #251
.Ltmp201:
	.loc	26 192 7                @ /root/Bela/projects/board_6/Adafruit_PWMServoDriver.cpp:192:7
	orrne	r1, r0, #4
.Ltmp202:
	.loc	26 372 23               @ /root/Bela/projects/board_6/Adafruit_PWMServoDriver.cpp:372:23
	strb	r1, [sp, #15]
	.loc	26 373 3                @ /root/Bela/projects/board_6/Adafruit_PWMServoDriver.cpp:373:3
	ldr	r0, [r5, #8]
	add	r1, sp, #14
	.loc	26 373 12 is_stmt 0     @ /root/Bela/projects/board_6/Adafruit_PWMServoDriver.cpp:373:12
	bl	_ZN18Adafruit_I2CDevice5writeEPhj
.Ltmp203:
	.loc	26 204 1 is_stmt 1      @ /root/Bela/projects/board_6/Adafruit_PWMServoDriver.cpp:204:1
	sub	sp, r11, #16
	pop	{r4, r5, r6, r10, r11, pc}
.Ltmp204:
.Lfunc_end12:
	.size	_ZN23Adafruit_PWMServoDriver13setOutputModeEb, .Lfunc_end12-_ZN23Adafruit_PWMServoDriver13setOutputModeEb
	.cfi_endproc
	.fnend

	.globl	_ZN23Adafruit_PWMServoDriver12readPrescaleEv
	.p2align	2
	.type	_ZN23Adafruit_PWMServoDriver12readPrescaleEv,%function
_ZN23Adafruit_PWMServoDriver12readPrescaleEv: @ @_ZN23Adafruit_PWMServoDriver12readPrescaleEv
.Lfunc_begin13:
	.loc	26 210 0                @ /root/Bela/projects/board_6/Adafruit_PWMServoDriver.cpp:210:0
	.fnstart
	.cfi_startproc
@ BB#0:
	.save	{r11, lr}
	push	{r11, lr}
.Ltmp205:
	.cfi_def_cfa_offset 8
.Ltmp206:
	.cfi_offset lr, -4
.Ltmp207:
	.cfi_offset r11, -8
	.setfp	r11, sp
	mov	r11, sp
.Ltmp208:
	.cfi_def_cfa_register r11
	.pad	#16
	sub	sp, sp, #16
	@DEBUG_VALUE: readPrescale:this <- %R0
.Ltmp209:
	@DEBUG_VALUE: read8:this <- %R0
	@DEBUG_VALUE: read8:addr <- -2
	.loc	26 366 23 prologue_end  @ /root/Bela/projects/board_6/Adafruit_PWMServoDriver.cpp:366:23
	mov	r1, #254
	.loc	26 367 12               @ /root/Bela/projects/board_6/Adafruit_PWMServoDriver.cpp:367:12
	mov	r2, #1
	.loc	26 366 23               @ /root/Bela/projects/board_6/Adafruit_PWMServoDriver.cpp:366:23
	strb	r1, [r11, #-1]
	mov	r1, #0
	.loc	26 367 3                @ /root/Bela/projects/board_6/Adafruit_PWMServoDriver.cpp:367:3
	ldr	r0, [r0, #8]
.Ltmp210:
	.loc	26 367 12 is_stmt 0     @ /root/Bela/projects/board_6/Adafruit_PWMServoDriver.cpp:367:12
	str	r2, [sp]
	mov	r2, #1
	str	r1, [sp, #4]
	sub	r1, r11, #1
	mov	r3, r1
	bl	_ZN18Adafruit_I2CDevice15write_then_readEPKhjPhjb
.Ltmp211:
	.loc	26 211 3 is_stmt 1      @ /root/Bela/projects/board_6/Adafruit_PWMServoDriver.cpp:211:3
	ldrb	r0, [r11, #-1]
	mov	sp, r11
	pop	{r11, pc}
.Ltmp212:
.Lfunc_end13:
	.size	_ZN23Adafruit_PWMServoDriver12readPrescaleEv, .Lfunc_end13-_ZN23Adafruit_PWMServoDriver12readPrescaleEv
	.cfi_endproc
	.fnend

	.globl	_ZN23Adafruit_PWMServoDriver6getPWMEhb
	.p2align	2
	.type	_ZN23Adafruit_PWMServoDriver6getPWMEhb,%function
_ZN23Adafruit_PWMServoDriver6getPWMEhb: @ @_ZN23Adafruit_PWMServoDriver6getPWMEhb
.Lfunc_begin14:
	.loc	26 220 0                @ /root/Bela/projects/board_6/Adafruit_PWMServoDriver.cpp:220:0
	.fnstart
	.cfi_startproc
@ BB#0:
	.save	{r11, lr}
	push	{r11, lr}
.Ltmp213:
	.cfi_def_cfa_offset 8
.Ltmp214:
	.cfi_offset lr, -4
.Ltmp215:
	.cfi_offset r11, -8
	.setfp	r11, sp
	mov	r11, sp
.Ltmp216:
	.cfi_def_cfa_register r11
	.pad	#16
	sub	sp, sp, #16
	@DEBUG_VALUE: getPWM:this <- %R0
	@DEBUG_VALUE: getPWM:num <- %R1
	@DEBUG_VALUE: getPWM:off [bit_piece offset=0 size=1] <- %R2
.Ltmp217:
	.loc	26 221 37 prologue_end  @ /root/Bela/projects/board_6/Adafruit_PWMServoDriver.cpp:221:37
	mov	r3, #6
	.loc	26 222 7                @ /root/Bela/projects/board_6/Adafruit_PWMServoDriver.cpp:222:7
	cmp	r2, #1
	.loc	26 221 37               @ /root/Bela/projects/board_6/Adafruit_PWMServoDriver.cpp:221:37
	add	r3, r3, r1, lsl #2
	.loc	26 221 41 is_stmt 0     @ /root/Bela/projects/board_6/Adafruit_PWMServoDriver.cpp:221:41
	lsleq	r1, r1, #2
.Ltmp218:
	.loc	26 221 23               @ /root/Bela/projects/board_6/Adafruit_PWMServoDriver.cpp:221:23
	strb	r3, [r11, #-2]
	mov	r3, #0
.Ltmp219:
	.loc	26 223 15 is_stmt 1     @ /root/Bela/projects/board_6/Adafruit_PWMServoDriver.cpp:223:15
	addeq	r1, r1, #8
.Ltmp220:
	.loc	26 221 23               @ /root/Bela/projects/board_6/Adafruit_PWMServoDriver.cpp:221:23
	strb	r3, [r11, #-1]
.Ltmp221:
	.loc	26 223 15               @ /root/Bela/projects/board_6/Adafruit_PWMServoDriver.cpp:223:15
	strbeq	r1, [r11, #-2]
.Ltmp222:
	.loc	26 224 12               @ /root/Bela/projects/board_6/Adafruit_PWMServoDriver.cpp:224:12
	mov	r1, #2
	.loc	26 224 3 is_stmt 0      @ /root/Bela/projects/board_6/Adafruit_PWMServoDriver.cpp:224:3
	ldr	r0, [r0, #8]
.Ltmp223:
	.loc	26 224 12               @ /root/Bela/projects/board_6/Adafruit_PWMServoDriver.cpp:224:12
	mov	r2, #1
.Ltmp224:
	stm	sp, {r1, r3}
	sub	r1, r11, #2
	mov	r3, r1
	bl	_ZN18Adafruit_I2CDevice15write_then_readEPKhjPhjb
	.loc	26 225 33 is_stmt 1     @ /root/Bela/projects/board_6/Adafruit_PWMServoDriver.cpp:225:33
	ldrb	r1, [r11, #-1]
	.loc	26 225 10 is_stmt 0     @ /root/Bela/projects/board_6/Adafruit_PWMServoDriver.cpp:225:10
	ldrb	r0, [r11, #-2]
	.loc	26 225 30               @ /root/Bela/projects/board_6/Adafruit_PWMServoDriver.cpp:225:30
	orr	r0, r0, r1, lsl #8
	.loc	26 225 3                @ /root/Bela/projects/board_6/Adafruit_PWMServoDriver.cpp:225:3
	mov	sp, r11
	pop	{r11, pc}
.Ltmp225:
.Lfunc_end14:
	.size	_ZN23Adafruit_PWMServoDriver6getPWMEhb, .Lfunc_end14-_ZN23Adafruit_PWMServoDriver6getPWMEhb
	.cfi_endproc
	.fnend

	.globl	_ZN23Adafruit_PWMServoDriver6setPWMEhtt
	.p2align	2
	.type	_ZN23Adafruit_PWMServoDriver6setPWMEhtt,%function
_ZN23Adafruit_PWMServoDriver6setPWMEhtt: @ @_ZN23Adafruit_PWMServoDriver6setPWMEhtt
.Lfunc_begin15:
	.loc	26 236 0 is_stmt 1      @ /root/Bela/projects/board_6/Adafruit_PWMServoDriver.cpp:236:0
	.fnstart
	.cfi_startproc
@ BB#0:
	.save	{r11, lr}
	push	{r11, lr}
.Ltmp226:
	.cfi_def_cfa_offset 8
.Ltmp227:
	.cfi_offset lr, -4
.Ltmp228:
	.cfi_offset r11, -8
	.setfp	r11, sp
	mov	r11, sp
.Ltmp229:
	.cfi_def_cfa_register r11
	.pad	#8
	sub	sp, sp, #8
	@DEBUG_VALUE: setPWM:this <- %R0
	@DEBUG_VALUE: setPWM:num <- %R1
	@DEBUG_VALUE: setPWM:on <- %R2
	@DEBUG_VALUE: setPWM:off <- %R3
.Ltmp230:
	.loc	26 247 20 prologue_end  @ /root/Bela/projects/board_6/Adafruit_PWMServoDriver.cpp:247:20
	mov	r12, #6
	add	r1, r12, r1, lsl #2
.Ltmp231:
	.loc	26 247 13 is_stmt 0     @ /root/Bela/projects/board_6/Adafruit_PWMServoDriver.cpp:247:13
	strb	r1, [sp, #3]
	.loc	26 249 15 is_stmt 1     @ /root/Bela/projects/board_6/Adafruit_PWMServoDriver.cpp:249:15
	lsr	r1, r2, #8
	.loc	26 248 13               @ /root/Bela/projects/board_6/Adafruit_PWMServoDriver.cpp:248:13
	strb	r2, [sp, #4]
.Ltmp232:
	.loc	26 253 16               @ /root/Bela/projects/board_6/Adafruit_PWMServoDriver.cpp:253:16
	mov	r2, #5
.Ltmp233:
	.loc	26 249 13               @ /root/Bela/projects/board_6/Adafruit_PWMServoDriver.cpp:249:13
	strb	r1, [sp, #5]
	.loc	26 251 15               @ /root/Bela/projects/board_6/Adafruit_PWMServoDriver.cpp:251:15
	lsr	r1, r3, #8
	.loc	26 250 13               @ /root/Bela/projects/board_6/Adafruit_PWMServoDriver.cpp:250:13
	strb	r3, [sp, #6]
	.loc	26 251 13               @ /root/Bela/projects/board_6/Adafruit_PWMServoDriver.cpp:251:13
	strb	r1, [sp, #7]
	add	r1, sp, #3
.Ltmp234:
	@DEBUG_VALUE: setPWM:buffer <- [%R1+0]
	.loc	26 253 7                @ /root/Bela/projects/board_6/Adafruit_PWMServoDriver.cpp:253:7
	ldr	r0, [r0, #8]
.Ltmp235:
	.loc	26 253 16 is_stmt 0     @ /root/Bela/projects/board_6/Adafruit_PWMServoDriver.cpp:253:16
	bl	_ZN18Adafruit_I2CDevice5writeEPhj
.Ltmp236:
	.loc	26 254 5 is_stmt 1      @ /root/Bela/projects/board_6/Adafruit_PWMServoDriver.cpp:254:5
	eor	r0, r0, #1
.Ltmp237:
	.loc	26 258 1                @ /root/Bela/projects/board_6/Adafruit_PWMServoDriver.cpp:258:1
	mov	sp, r11
	pop	{r11, pc}
.Ltmp238:
.Lfunc_end15:
	.size	_ZN23Adafruit_PWMServoDriver6setPWMEhtt, .Lfunc_end15-_ZN23Adafruit_PWMServoDriver6setPWMEhtt
	.cfi_endproc
	.fnend

	.globl	_ZN23Adafruit_PWMServoDriver6setPinEhtb
	.p2align	2
	.type	_ZN23Adafruit_PWMServoDriver6setPinEhtb,%function
_ZN23Adafruit_PWMServoDriver6setPinEhtb: @ @_ZN23Adafruit_PWMServoDriver6setPinEhtb
.Lfunc_begin16:
	.loc	26 270 0                @ /root/Bela/projects/board_6/Adafruit_PWMServoDriver.cpp:270:0
	.fnstart
	.cfi_startproc
@ BB#0:
	.save	{r11, lr}
	push	{r11, lr}
.Ltmp239:
	.cfi_def_cfa_offset 8
.Ltmp240:
	.cfi_offset lr, -4
.Ltmp241:
	.cfi_offset r11, -8
	.setfp	r11, sp
	mov	r11, sp
.Ltmp242:
	.cfi_def_cfa_register r11
	.pad	#8
	sub	sp, sp, #8
	@DEBUG_VALUE: setPin:this <- %R0
	@DEBUG_VALUE: setPin:num <- %R1
	@DEBUG_VALUE: setPin:val <- %R2
	@DEBUG_VALUE: setPin:invert [bit_piece offset=0 size=1] <- %R3
.Ltmp243:
	.loc	26 272 13 prologue_end  @ /root/Bela/projects/board_6/Adafruit_PWMServoDriver.cpp:272:13
	vmov	s2, r2
.Ltmp244:
	@DEBUG_VALUE: setPin:val <- %S2
	.file	28 "./include" "Utilities.h"
	.loc	28 93 11                @ ./include/Utilities.h:93:11
	vldr	s0, .LCPI16_0
.Ltmp245:
	.loc	26 272 13               @ /root/Bela/projects/board_6/Adafruit_PWMServoDriver.cpp:272:13
	vcvt.f32.u32	d16, d1
.Ltmp246:
	@DEBUG_VALUE: min:y <- 4.095000e+03
	.loc	26 273 7                @ /root/Bela/projects/board_6/Adafruit_PWMServoDriver.cpp:273:7
	cmp	r3, #1
.Ltmp247:
	.loc	28 93 9                 @ ./include/Utilities.h:93:9
	vmin.f32	d16, d16, d0
.Ltmp248:
	.loc	26 272 9                @ /root/Bela/projects/board_6/Adafruit_PWMServoDriver.cpp:272:9
	vcvt.u32.f32	d0, d16
	vmov	r2, s0
.Ltmp249:
	@DEBUG_VALUE: setPin:num <- undef
	.loc	26 273 7                @ /root/Bela/projects/board_6/Adafruit_PWMServoDriver.cpp:273:7
	bne	.LBB16_4
.Ltmp250:
@ BB#1:
	@DEBUG_VALUE: setPin:val <- %S2
	@DEBUG_VALUE: setPin:invert [bit_piece offset=0 size=1] <- %R3
	@DEBUG_VALUE: setPin:this <- %R0
	.loc	26 274 9                @ /root/Bela/projects/board_6/Adafruit_PWMServoDriver.cpp:274:9
	movw	r3, #4095
.Ltmp251:
	cmp	r2, r3
	beq	.LBB16_7
.Ltmp252:
@ BB#2:
	@DEBUG_VALUE: setPin:val <- %S2
	@DEBUG_VALUE: setPin:this <- %R0
	cmp	r2, #0
	beq	.LBB16_6
.Ltmp253:
@ BB#3:
	@DEBUG_VALUE: setPin:val <- %S2
	@DEBUG_VALUE: setPin:this <- %R0
	.loc	26 247 20               @ /root/Bela/projects/board_6/Adafruit_PWMServoDriver.cpp:247:20
	mov	r3, #6
	add	r1, r3, r1, lsl #2
.Ltmp254:
	@DEBUG_VALUE: setPWM:this <- %R0
	@DEBUG_VALUE: setPWM:on <- 0
	.loc	26 247 13 is_stmt 0     @ /root/Bela/projects/board_6/Adafruit_PWMServoDriver.cpp:247:13
	strb	r1, [sp, #3]
	.loc	26 248 13 is_stmt 1     @ /root/Bela/projects/board_6/Adafruit_PWMServoDriver.cpp:248:13
	mov	r1, #0
	strb	r1, [sp, #4]
	.loc	26 249 13               @ /root/Bela/projects/board_6/Adafruit_PWMServoDriver.cpp:249:13
	strb	r1, [sp, #5]
.Ltmp255:
	.loc	26 281 27               @ /root/Bela/projects/board_6/Adafruit_PWMServoDriver.cpp:281:27
	movw	r1, #4095
	sub	r1, r1, r2
.Ltmp256:
	.loc	26 250 13               @ /root/Bela/projects/board_6/Adafruit_PWMServoDriver.cpp:250:13
	strb	r1, [sp, #6]
	.loc	26 251 15               @ /root/Bela/projects/board_6/Adafruit_PWMServoDriver.cpp:251:15
	lsr	r1, r1, #8
	b	.LBB16_9
.Ltmp257:
.LBB16_4:
	@DEBUG_VALUE: setPin:val <- %S2
	@DEBUG_VALUE: setPin:invert [bit_piece offset=0 size=1] <- %R3
	@DEBUG_VALUE: setPin:this <- %R0
	.loc	26 284 9                @ /root/Bela/projects/board_6/Adafruit_PWMServoDriver.cpp:284:9
	cmp	r2, #0
	beq	.LBB16_7
.Ltmp258:
@ BB#5:
	@DEBUG_VALUE: setPin:val <- %S2
	@DEBUG_VALUE: setPin:invert [bit_piece offset=0 size=1] <- %R3
	@DEBUG_VALUE: setPin:this <- %R0
	movw	r3, #4095
.Ltmp259:
	cmp	r2, r3
	bne	.LBB16_8
.Ltmp260:
.LBB16_6:
	@DEBUG_VALUE: setPin:val <- %S2
	@DEBUG_VALUE: setPin:this <- %R0
	@DEBUG_VALUE: setPWM:on <- 4096
	@DEBUG_VALUE: setPWM:off <- 0
	@DEBUG_VALUE: setPWM:this <- %R0
	.loc	26 247 20               @ /root/Bela/projects/board_6/Adafruit_PWMServoDriver.cpp:247:20
	mov	r2, #6
	add	r1, r2, r1, lsl #2
	.loc	26 247 13 is_stmt 0     @ /root/Bela/projects/board_6/Adafruit_PWMServoDriver.cpp:247:13
	strb	r1, [sp, #3]
	.loc	26 248 13 is_stmt 1     @ /root/Bela/projects/board_6/Adafruit_PWMServoDriver.cpp:248:13
	mov	r1, #0
	.loc	26 249 13               @ /root/Bela/projects/board_6/Adafruit_PWMServoDriver.cpp:249:13
	mov	r2, #16
	.loc	26 248 13               @ /root/Bela/projects/board_6/Adafruit_PWMServoDriver.cpp:248:13
	strb	r1, [sp, #4]
	.loc	26 249 13               @ /root/Bela/projects/board_6/Adafruit_PWMServoDriver.cpp:249:13
	strb	r2, [sp, #5]
	.loc	26 250 13               @ /root/Bela/projects/board_6/Adafruit_PWMServoDriver.cpp:250:13
	strb	r1, [sp, #6]
	b	.LBB16_9
.Ltmp261:
.LBB16_7:
	@DEBUG_VALUE: setPin:val <- %S2
	@DEBUG_VALUE: setPin:this <- %R0
	@DEBUG_VALUE: setPWM:on <- 0
	@DEBUG_VALUE: setPWM:off <- 4096
	@DEBUG_VALUE: setPWM:this <- %R0
	.loc	26 247 20               @ /root/Bela/projects/board_6/Adafruit_PWMServoDriver.cpp:247:20
	mov	r2, #6
	add	r1, r2, r1, lsl #2
	.loc	26 247 13 is_stmt 0     @ /root/Bela/projects/board_6/Adafruit_PWMServoDriver.cpp:247:13
	strb	r1, [sp, #3]
	.loc	26 248 13 is_stmt 1     @ /root/Bela/projects/board_6/Adafruit_PWMServoDriver.cpp:248:13
	mov	r1, #0
	strb	r1, [sp, #4]
	.loc	26 249 13               @ /root/Bela/projects/board_6/Adafruit_PWMServoDriver.cpp:249:13
	strb	r1, [sp, #5]
	.loc	26 250 13               @ /root/Bela/projects/board_6/Adafruit_PWMServoDriver.cpp:250:13
	strb	r1, [sp, #6]
	.loc	26 251 13               @ /root/Bela/projects/board_6/Adafruit_PWMServoDriver.cpp:251:13
	mov	r1, #16
	b	.LBB16_9
.Ltmp262:
.LBB16_8:
	@DEBUG_VALUE: setPin:val <- %S2
	@DEBUG_VALUE: setPin:this <- %R0
	@DEBUG_VALUE: setPWM:on <- 0
	@DEBUG_VALUE: setPWM:this <- %R0
	.loc	26 247 20               @ /root/Bela/projects/board_6/Adafruit_PWMServoDriver.cpp:247:20
	mov	r3, #6
	add	r1, r3, r1, lsl #2
	.loc	26 247 13 is_stmt 0     @ /root/Bela/projects/board_6/Adafruit_PWMServoDriver.cpp:247:13
	strb	r1, [sp, #3]
	.loc	26 248 13 is_stmt 1     @ /root/Bela/projects/board_6/Adafruit_PWMServoDriver.cpp:248:13
	mov	r1, #0
	strb	r1, [sp, #4]
	.loc	26 249 13               @ /root/Bela/projects/board_6/Adafruit_PWMServoDriver.cpp:249:13
	strb	r1, [sp, #5]
	.loc	26 251 15               @ /root/Bela/projects/board_6/Adafruit_PWMServoDriver.cpp:251:15
	lsr	r1, r2, #8
	.loc	26 250 13               @ /root/Bela/projects/board_6/Adafruit_PWMServoDriver.cpp:250:13
	strb	r2, [sp, #6]
.Ltmp263:
.LBB16_9:
	@DEBUG_VALUE: setPin:val <- %S2
	@DEBUG_VALUE: setPin:this <- %R0
	.loc	26 251 13               @ /root/Bela/projects/board_6/Adafruit_PWMServoDriver.cpp:251:13
	strb	r1, [sp, #7]
	add	r1, sp, #3
.Ltmp264:
	.loc	26 253 7                @ /root/Bela/projects/board_6/Adafruit_PWMServoDriver.cpp:253:7
	ldr	r0, [r0, #8]
.Ltmp265:
	.loc	26 253 16 is_stmt 0     @ /root/Bela/projects/board_6/Adafruit_PWMServoDriver.cpp:253:16
	mov	r2, #5
	bl	_ZN18Adafruit_I2CDevice5writeEPhj
.Ltmp266:
	.loc	26 294 1 is_stmt 1      @ /root/Bela/projects/board_6/Adafruit_PWMServoDriver.cpp:294:1
	mov	sp, r11
	pop	{r11, pc}
.Ltmp267:
	.p2align	2
@ BB#10:
.LCPI16_0:
	.long	1166012416              @ float 4095
.Lfunc_end16:
	.size	_ZN23Adafruit_PWMServoDriver6setPinEhtb, .Lfunc_end16-_ZN23Adafruit_PWMServoDriver6setPinEhtb
	.cfi_endproc
	.fnend

	.globl	_ZN23Adafruit_PWMServoDriver17writeMicrosecondsEht
	.p2align	3
	.type	_ZN23Adafruit_PWMServoDriver17writeMicrosecondsEht,%function
_ZN23Adafruit_PWMServoDriver17writeMicrosecondsEht: @ @_ZN23Adafruit_PWMServoDriver17writeMicrosecondsEht
.Lfunc_begin17:
	.loc	26 303 0                @ /root/Bela/projects/board_6/Adafruit_PWMServoDriver.cpp:303:0
	.fnstart
	.cfi_startproc
@ BB#0:
	.save	{r4, r5, r6, r7, r11, lr}
	push	{r4, r5, r6, r7, r11, lr}
.Ltmp268:
	.cfi_def_cfa_offset 24
.Ltmp269:
	.cfi_offset lr, -4
.Ltmp270:
	.cfi_offset r11, -8
.Ltmp271:
	.cfi_offset r7, -12
.Ltmp272:
	.cfi_offset r6, -16
.Ltmp273:
	.cfi_offset r5, -20
.Ltmp274:
	.cfi_offset r4, -24
	.setfp	r11, sp, #16
	add	r11, sp, #16
.Ltmp275:
	.cfi_def_cfa r11, 8
	.pad	#16
	sub	sp, sp, #16
	@DEBUG_VALUE: writeMicroseconds:this <- %R0
	@DEBUG_VALUE: writeMicroseconds:num <- %R1
	@DEBUG_VALUE: writeMicroseconds:Microseconds <- %R2
	mov	r4, r0
.Ltmp276:
	@DEBUG_VALUE: read8:addr <- -2
	@DEBUG_VALUE: read8:this <- %R4
	@DEBUG_VALUE: readPrescale:this <- %R4
	@DEBUG_VALUE: writeMicroseconds:pulselength <- 1.000000e+06
	@DEBUG_VALUE: writeMicroseconds:this <- %R4
	.loc	26 366 23 prologue_end  @ /root/Bela/projects/board_6/Adafruit_PWMServoDriver.cpp:366:23
	mov	r0, #254
	strb	r0, [sp, #10]
	mov	r5, r1
.Ltmp277:
	@DEBUG_VALUE: writeMicroseconds:num <- %R5
	mov	r7, #0
	mov	r1, #1
	.loc	26 367 3                @ /root/Bela/projects/board_6/Adafruit_PWMServoDriver.cpp:367:3
	ldr	r0, [r4, #8]
	mov	r6, r2
.Ltmp278:
	@DEBUG_VALUE: writeMicroseconds:Microseconds <- %R6
	.loc	26 367 12 is_stmt 0     @ /root/Bela/projects/board_6/Adafruit_PWMServoDriver.cpp:367:12
	stm	sp, {r1, r7}
	add	r1, sp, #10
	mov	r2, #1
	mov	r3, r1
	bl	_ZN18Adafruit_I2CDevice15write_then_readEPKhjPhjb
.Ltmp279:
	.loc	26 326 12 is_stmt 1     @ /root/Bela/projects/board_6/Adafruit_PWMServoDriver.cpp:326:12
	ldrb	r0, [sp, #10]
	add	r1, sp, #11
	.loc	26 327 15               @ /root/Bela/projects/board_6/Adafruit_PWMServoDriver.cpp:327:15
	vldr	d17, .LCPI17_0
.Ltmp280:
	.loc	26 253 16               @ /root/Bela/projects/board_6/Adafruit_PWMServoDriver.cpp:253:16
	mov	r2, #5
.Ltmp281:
	.loc	26 326 12               @ /root/Bela/projects/board_6/Adafruit_PWMServoDriver.cpp:326:12
	add	r0, r0, #1
	.loc	26 327 18               @ /root/Bela/projects/board_6/Adafruit_PWMServoDriver.cpp:327:18
	vmov	s0, r0
	vcvt.f64.s32	d16, s0
	.loc	26 328 18               @ /root/Bela/projects/board_6/Adafruit_PWMServoDriver.cpp:328:18
	ldr	r0, [r4, #12]
	.loc	26 312 18               @ /root/Bela/projects/board_6/Adafruit_PWMServoDriver.cpp:312:18
	vmov	s0, r6
.Ltmp282:
	@DEBUG_VALUE: writeMicroseconds:Microseconds <- %S0
	.loc	26 327 15               @ /root/Bela/projects/board_6/Adafruit_PWMServoDriver.cpp:327:15
	vmul.f64	d16, d16, d17
.Ltmp283:
	@DEBUG_VALUE: writeMicroseconds:pulselength <- %D16
	.loc	26 312 18               @ /root/Bela/projects/board_6/Adafruit_PWMServoDriver.cpp:312:18
	vcvt.f64.u32	d18, s0
.Ltmp284:
	@DEBUG_VALUE: writeMicroseconds:pulse <- %D18
	.loc	26 328 18               @ /root/Bela/projects/board_6/Adafruit_PWMServoDriver.cpp:328:18
	vmov	s0, r0
.Ltmp285:
	.loc	26 247 20               @ /root/Bela/projects/board_6/Adafruit_PWMServoDriver.cpp:247:20
	mov	r0, #6
	add	r0, r0, r5, lsl #2
.Ltmp286:
	@DEBUG_VALUE: setPWM:on <- 0
	@DEBUG_VALUE: setPWM:this <- %R4
	.loc	26 328 18               @ /root/Bela/projects/board_6/Adafruit_PWMServoDriver.cpp:328:18
	vcvt.f64.u32	d19, s0
	.loc	26 335 9                @ /root/Bela/projects/board_6/Adafruit_PWMServoDriver.cpp:335:9
	vmul.f64	d17, d19, d18
	vdiv.f64	d16, d17, d16
.Ltmp287:
	@DEBUG_VALUE: writeMicroseconds:pulse <- %D16
	.loc	26 342 18               @ /root/Bela/projects/board_6/Adafruit_PWMServoDriver.cpp:342:18
	vcvt.u32.f64	s0, d16
.Ltmp288:
	.loc	26 247 13               @ /root/Bela/projects/board_6/Adafruit_PWMServoDriver.cpp:247:13
	strb	r0, [sp, #11]
	.loc	26 248 13               @ /root/Bela/projects/board_6/Adafruit_PWMServoDriver.cpp:248:13
	strb	r7, [sp, #12]
	.loc	26 249 13               @ /root/Bela/projects/board_6/Adafruit_PWMServoDriver.cpp:249:13
	strb	r7, [sp, #13]
.Ltmp289:
	.loc	26 342 18               @ /root/Bela/projects/board_6/Adafruit_PWMServoDriver.cpp:342:18
	vmov	r0, s0
.Ltmp290:
	.loc	26 250 13               @ /root/Bela/projects/board_6/Adafruit_PWMServoDriver.cpp:250:13
	strb	r0, [sp, #14]
	.loc	26 251 15               @ /root/Bela/projects/board_6/Adafruit_PWMServoDriver.cpp:251:15
	lsr	r0, r0, #8
	.loc	26 251 13 is_stmt 0     @ /root/Bela/projects/board_6/Adafruit_PWMServoDriver.cpp:251:13
	strb	r0, [sp, #15]
.Ltmp291:
	.loc	26 253 7 is_stmt 1      @ /root/Bela/projects/board_6/Adafruit_PWMServoDriver.cpp:253:7
	ldr	r0, [r4, #8]
	.loc	26 253 16 is_stmt 0     @ /root/Bela/projects/board_6/Adafruit_PWMServoDriver.cpp:253:16
	bl	_ZN18Adafruit_I2CDevice5writeEPhj
.Ltmp292:
	.loc	26 343 1 is_stmt 1      @ /root/Bela/projects/board_6/Adafruit_PWMServoDriver.cpp:343:1
	sub	sp, r11, #16
	pop	{r4, r5, r6, r7, r11, pc}
.Ltmp293:
	.p2align	3
@ BB#1:
.LCPI17_0:
	.long	0                       @ double 1.0E+6
	.long	1093567616
.Lfunc_end17:
	.size	_ZN23Adafruit_PWMServoDriver17writeMicrosecondsEht, .Lfunc_end17-_ZN23Adafruit_PWMServoDriver17writeMicrosecondsEht
	.cfi_endproc
	.fnend

	.globl	_ZN23Adafruit_PWMServoDriver22getOscillatorFrequencyEv
	.p2align	2
	.type	_ZN23Adafruit_PWMServoDriver22getOscillatorFrequencyEv,%function
_ZN23Adafruit_PWMServoDriver22getOscillatorFrequencyEv: @ @_ZN23Adafruit_PWMServoDriver22getOscillatorFrequencyEv
.Lfunc_begin18:
	.loc	26 351 0                @ /root/Bela/projects/board_6/Adafruit_PWMServoDriver.cpp:351:0
	.fnstart
	.cfi_startproc
@ BB#0:
	@DEBUG_VALUE: getOscillatorFrequency:this <- %R0
	.loc	26 352 10 prologue_end  @ /root/Bela/projects/board_6/Adafruit_PWMServoDriver.cpp:352:10
	ldr	r0, [r0, #12]
.Ltmp294:
	.loc	26 352 3 is_stmt 0      @ /root/Bela/projects/board_6/Adafruit_PWMServoDriver.cpp:352:3
	bx	lr
.Ltmp295:
.Lfunc_end18:
	.size	_ZN23Adafruit_PWMServoDriver22getOscillatorFrequencyEv, .Lfunc_end18-_ZN23Adafruit_PWMServoDriver22getOscillatorFrequencyEv
	.cfi_endproc
	.fnend

	.section	.text.startup,"ax",%progbits
	.p2align	2
	.type	_GLOBAL__sub_I_Adafruit_PWMServoDriver.ii,%function
_GLOBAL__sub_I_Adafruit_PWMServoDriver.ii: @ @_GLOBAL__sub_I_Adafruit_PWMServoDriver.ii
.Lfunc_begin19:
	.loc	11 0 0 is_stmt 1        @ /root/Bela/projects/board_6/build/Adafruit_PWMServoDriver.cpp:0:0
	.fnstart
	.cfi_startproc
@ BB#0:
	.save	{r4, r10, r11, lr}
	push	{r4, r10, r11, lr}
.Ltmp296:
	.cfi_def_cfa_offset 16
.Ltmp297:
	.cfi_offset lr, -4
.Ltmp298:
	.cfi_offset r11, -8
.Ltmp299:
	.cfi_offset r10, -12
.Ltmp300:
	.cfi_offset r4, -16
	.setfp	r11, sp, #8
	add	r11, sp, #8
.Ltmp301:
	.cfi_def_cfa r11, 8
.Ltmp302:
	.loc	4 74 25 prologue_end    @ /usr/bin/../lib/gcc/arm-linux-gnueabihf/6.3.0/../../../../include/c++/6.3.0/iostream:74:25
	movw	r4, :lower16:_ZStL8__ioinit
	movt	r4, :upper16:_ZStL8__ioinit
	mov	r0, r4
	bl	_ZNSt8ios_base4InitC1Ev
	.loc	4 74 25 is_stmt 0 discriminator 1 @ /usr/bin/../lib/gcc/arm-linux-gnueabihf/6.3.0/../../../../include/c++/6.3.0/iostream:74:25
	movw	r0, :lower16:_ZNSt8ios_base4InitD1Ev
	movw	r2, :lower16:__dso_handle
	movt	r0, :upper16:_ZNSt8ios_base4InitD1Ev
	movt	r2, :upper16:__dso_handle
	mov	r1, r4
	pop	{r4, r10, r11, lr}
	b	__cxa_atexit
.Ltmp303:
.Lfunc_end19:
	.size	_GLOBAL__sub_I_Adafruit_PWMServoDriver.ii, .Lfunc_end19-_GLOBAL__sub_I_Adafruit_PWMServoDriver.ii
	.cfi_endproc
	.fnend

	.type	_ZStL8__ioinit,%object  @ @_ZStL8__ioinit
	.local	_ZStL8__ioinit
	.comm	_ZStL8__ioinit,1,1
	.section	.init_array,"aw",%init_array
	.p2align	2
	.long	_GLOBAL__sub_I_Adafruit_PWMServoDriver.ii(target1)
	.section	".note.GNU-stack","",%progbits
	.eabi_attribute	30, 2	@ Tag_ABI_optimization_goals