	.text
	.syntax unified
	.eabi_attribute	67, "2.09"	@ Tag_conformance
	.cpu	cortex-a8
	.eabi_attribute	6, 10	@ Tag_CPU_arch
	.eabi_attribute	7, 65	@ Tag_CPU_arch_profile
	.eabi_attribute	8, 1	@ Tag_ARM_ISA_use
	.eabi_attribute	9, 2	@ Tag_THUMB_ISA_use
	.fpu	neon
	.eabi_attribute	17, 1	@ Tag_ABI_PCS_GOT_use
	.eabi_attribute	20, 2	@ Tag_ABI_FP_denormal
	.eabi_attribute	23, 1	@ Tag_ABI_FP_number_model
	.eabi_attribute	34, 1	@ Tag_CPU_unaligned_access
	.eabi_attribute	24, 1	@ Tag_ABI_align_needed
	.eabi_attribute	25, 1	@ Tag_ABI_align_preserved
	.eabi_attribute	28, 1	@ Tag_ABI_VFP_args
	.eabi_attribute	38, 1	@ Tag_ABI_FP_16bit_format
	.eabi_attribute	18, 4	@ Tag_ABI_PCS_wchar_t
	.eabi_attribute	26, 2	@ Tag_ABI_enum_size
	.eabi_attribute	14, 0	@ Tag_ABI_PCS_R9_use
	.eabi_attribute	68, 1	@ Tag_Virtualization_use
	.file	"/root/Bela/projects/board_6/build/Adafruit_I2CDevice.bc"
	.file	1 "./include" "I2c.h"
	.globl	_ZN18Adafruit_I2CDeviceC2EhP7TwoWire
	.p2align	2
	.type	_ZN18Adafruit_I2CDeviceC2EhP7TwoWire,%function
_ZN18Adafruit_I2CDeviceC2EhP7TwoWire:   @ @_ZN18Adafruit_I2CDeviceC2EhP7TwoWire
.Lfunc_begin0:
	.file	2 "/root/Bela/projects/board_6" "Adafruit_I2CDevice.cpp"
	.loc	2 4 0                   @ /root/Bela/projects/board_6/Adafruit_I2CDevice.cpp:4:0
	.fnstart
	.cfi_startproc
@ BB#0:
	@DEBUG_VALUE: Adafruit_I2CDevice:this <- %R0
	@DEBUG_VALUE: Adafruit_I2CDevice:address <- %R1
	@DEBUG_VALUE: Adafruit_I2CDevice:wire <- %R2
	.loc	2 4 1 prologue_end      @ /root/Bela/projects/board_6/Adafruit_I2CDevice.cpp:4:1
	movw	r3, :lower16:_ZTV18Adafruit_I2CDevice
.Ltmp0:
	.loc	2 5 13                  @ /root/Bela/projects/board_6/Adafruit_I2CDevice.cpp:5:13
	movw	r12, :lower16:Wire
.Ltmp1:
	.loc	2 4 1                   @ /root/Bela/projects/board_6/Adafruit_I2CDevice.cpp:4:1
	movt	r3, :upper16:_ZTV18Adafruit_I2CDevice
.Ltmp2:
	.loc	2 5 13                  @ /root/Bela/projects/board_6/Adafruit_I2CDevice.cpp:5:13
	movt	r12, :upper16:Wire
.Ltmp3:
	.loc	2 4 1                   @ /root/Bela/projects/board_6/Adafruit_I2CDevice.cpp:4:1
	add	r3, r3, #8
	str	r3, [r0]
.Ltmp4:
	.loc	2 5 8                   @ /root/Bela/projects/board_6/Adafruit_I2CDevice.cpp:5:8
	mov	r3, #2
	cmp	r2, r12
	movweq	r3, #1
	.loc	2 5 6 is_stmt 0         @ /root/Bela/projects/board_6/Adafruit_I2CDevice.cpp:5:6
	str	r3, [r0, #16]
	.loc	2 6 7 is_stmt 1         @ /root/Bela/projects/board_6/Adafruit_I2CDevice.cpp:6:7
	str	r1, [r0, #20]
.Ltmp5:
	.loc	2 7 1                   @ /root/Bela/projects/board_6/Adafruit_I2CDevice.cpp:7:1
	bx	lr
.Ltmp6:
.Lfunc_end0:
	.size	_ZN18Adafruit_I2CDeviceC2EhP7TwoWire, .Lfunc_end0-_ZN18Adafruit_I2CDeviceC2EhP7TwoWire
	.cfi_endproc
	.file	3 "/usr/include/arm-linux-gnueabihf/bits" "types.h"
	.file	4 "/usr/include" "stdio.h"
	.file	5 "/usr/lib/llvm-3.9/bin/../lib/clang/3.9.1/include" "stddef.h"
	.file	6 "/root/Bela/projects/board_6" "Adafruit_I2CDevice.h"
	.file	7 "/usr/include" "stdint.h"
	.fnend

	.globl	_ZN18Adafruit_I2CDeviceD2Ev
	.p2align	2
	.type	_ZN18Adafruit_I2CDeviceD2Ev,%function
_ZN18Adafruit_I2CDeviceD2Ev:            @ @_ZN18Adafruit_I2CDeviceD2Ev
.Lfunc_begin1:
	.loc	2 10 0                  @ /root/Bela/projects/board_6/Adafruit_I2CDevice.cpp:10:0
	.fnstart
	.cfi_startproc
@ BB#0:
	@DEBUG_VALUE: ~Adafruit_I2CDevice:this <- %R0
	.loc	2 11 1 prologue_end     @ /root/Bela/projects/board_6/Adafruit_I2CDevice.cpp:11:1
	bx	lr
.Ltmp7:
.Lfunc_end1:
	.size	_ZN18Adafruit_I2CDeviceD2Ev, .Lfunc_end1-_ZN18Adafruit_I2CDeviceD2Ev
	.cfi_endproc
	.fnend

	.globl	_ZN18Adafruit_I2CDeviceD0Ev
	.p2align	2
	.type	_ZN18Adafruit_I2CDeviceD0Ev,%function
_ZN18Adafruit_I2CDeviceD0Ev:            @ @_ZN18Adafruit_I2CDeviceD0Ev
.Lfunc_begin2:
	.loc	2 10 0                  @ /root/Bela/projects/board_6/Adafruit_I2CDevice.cpp:10:0
	.fnstart
	.cfi_startproc
@ BB#0:
	@DEBUG_VALUE: ~Adafruit_I2CDevice:this <- %R0
	.loc	2 10 1 prologue_end discriminator 1 @ /root/Bela/projects/board_6/Adafruit_I2CDevice.cpp:10:1
	b	_ZdlPv
.Ltmp8:
.Lfunc_end2:
	.size	_ZN18Adafruit_I2CDeviceD0Ev, .Lfunc_end2-_ZN18Adafruit_I2CDeviceD0Ev
	.cfi_endproc
	.fnend

	.globl	_ZN18Adafruit_I2CDevice5beginEv
	.p2align	2
	.type	_ZN18Adafruit_I2CDevice5beginEv,%function
_ZN18Adafruit_I2CDevice5beginEv:        @ @_ZN18Adafruit_I2CDevice5beginEv
.Lfunc_begin3:
	.loc	2 14 0                  @ /root/Bela/projects/board_6/Adafruit_I2CDevice.cpp:14:0
	.fnstart
	.cfi_startproc
@ BB#0:
	.save	{r4, r5, r11, lr}
	push	{r4, r5, r11, lr}
.Ltmp9:
	.cfi_def_cfa_offset 16
.Ltmp10:
	.cfi_offset lr, -4
.Ltmp11:
	.cfi_offset r11, -8
.Ltmp12:
	.cfi_offset r5, -12
.Ltmp13:
	.cfi_offset r4, -16
	.setfp	r11, sp, #8
	add	r11, sp, #8
.Ltmp14:
	.cfi_def_cfa r11, 8
	.pad	#64
	sub	sp, sp, #64
	@DEBUG_VALUE: begin:this <- %R0
	mov	r4, r0
.Ltmp15:
	@DEBUG_VALUE: initI2C_RW:address <- %R0
	@DEBUG_VALUE: initI2C_RW:fileHnd <- -1
	@DEBUG_VALUE: initI2C_RW:bus <- %R3
	@DEBUG_VALUE: begin:this <- %R4
	.loc	1 50 2 prologue_end     @ ./include/I2c.h:50:2
	movw	r2, :lower16:.L.str.1
.Ltmp16:
	.loc	2 15 25                 @ /root/Bela/projects/board_6/Adafruit_I2CDevice.cpp:15:25
	ldr	r3, [r4, #16]
.Ltmp17:
	mvn	r1, #0
	.loc	2 15 30 is_stmt 0       @ /root/Bela/projects/board_6/Adafruit_I2CDevice.cpp:15:30
	ldr	r0, [r4, #20]
.Ltmp18:
	mov	r5, sp
.Ltmp19:
	.loc	1 44 10 is_stmt 1       @ ./include/I2c.h:44:10
	str	r3, [r4, #4]
	.loc	1 50 2                  @ ./include/I2c.h:50:2
	movt	r2, :upper16:.L.str.1
	.loc	1 45 14                 @ ./include/I2c.h:45:14
	str	r0, [r4, #8]
	.loc	1 50 2                  @ ./include/I2c.h:50:2
	mov	r0, r5
	.loc	1 46 11                 @ ./include/I2c.h:46:11
	str	r1, [r4, #12]
	.loc	1 50 2                  @ ./include/I2c.h:50:2
	mov	r1, #64
	bl	snprintf
.Ltmp20:
	.loc	1 52 18                 @ ./include/I2c.h:52:18
	mov	r0, r5
	mov	r1, #2
	bl	open
	.loc	1 52 16 is_stmt 0       @ ./include/I2c.h:52:16
	str	r0, [r4, #12]
.Ltmp21:
	.loc	1 52 6                  @ ./include/I2c.h:52:6
	cmp	r0, #0
	blt	.LBB3_3
.Ltmp22:
@ BB#1:
	@DEBUG_VALUE: begin:this <- %R4
	.loc	1 59 30 is_stmt 1       @ ./include/I2c.h:59:30
	ldr	r2, [r4, #8]
	.loc	1 59 6 is_stmt 0        @ ./include/I2c.h:59:6
	movw	r1, #1795
	bl	ioctl
	mov	r1, r0
	mov	r0, #1
.Ltmp23:
	.loc	1 59 6                  @ ./include/I2c.h:59:6
	cmp	r1, #0
	blt	.LBB3_4
.Ltmp24:
.LBB3_2:                                @ %_ZN3I2c10initI2C_RWEiii.exit
	@DEBUG_VALUE: begin:this <- %R4
	.loc	2 15 2 is_stmt 1        @ /root/Bela/projects/board_6/Adafruit_I2CDevice.cpp:15:2
	sub	sp, r11, #8
	pop	{r4, r5, r11, pc}
.Ltmp25:
.LBB3_3:
	@DEBUG_VALUE: begin:this <- %R4
	.loc	1 54 11                 @ ./include/I2c.h:54:11
	movw	r0, :lower16:stderr
	.loc	1 54 3 is_stmt 0        @ ./include/I2c.h:54:3
	movw	r1, :lower16:.L.str.2
	.loc	1 54 11                 @ ./include/I2c.h:54:11
	movt	r0, :upper16:stderr
	.loc	1 54 3                  @ ./include/I2c.h:54:3
	movt	r1, :upper16:.L.str.2
	.loc	1 54 11                 @ ./include/I2c.h:54:11
	ldr	r0, [r0]
	mov	r2, sp
	b	.LBB3_5
.Ltmp26:
.LBB3_4:
	@DEBUG_VALUE: begin:this <- %R4
	.loc	1 60 11 is_stmt 1       @ ./include/I2c.h:60:11
	movw	r0, :lower16:stderr
	.loc	1 60 54 is_stmt 0       @ ./include/I2c.h:60:54
	ldr	r2, [r4, #8]
	.loc	1 60 11                 @ ./include/I2c.h:60:11
	movt	r0, :upper16:stderr
	.loc	1 60 3                  @ ./include/I2c.h:60:3
	movw	r1, :lower16:.L.str.3
	.loc	1 60 11                 @ ./include/I2c.h:60:11
	ldr	r0, [r0]
	.loc	1 60 3                  @ ./include/I2c.h:60:3
	movt	r1, :upper16:.L.str.3
.Ltmp27:
.LBB3_5:                                @ %_ZN3I2c10initI2C_RWEiii.exit
	@DEBUG_VALUE: begin:this <- %R4
	bl	fprintf
	mov	r0, #0
	b	.LBB3_2
.Ltmp28:
.Lfunc_end3:
	.size	_ZN18Adafruit_I2CDevice5beginEv, .Lfunc_end3-_ZN18Adafruit_I2CDevice5beginEv
	.cfi_endproc
	.fnend

	.globl	_ZN18Adafruit_I2CDevice5writeEPhj
	.p2align	2
	.type	_ZN18Adafruit_I2CDevice5writeEPhj,%function
_ZN18Adafruit_I2CDevice5writeEPhj:      @ @_ZN18Adafruit_I2CDevice5writeEPhj
.Lfunc_begin4:
	.loc	2 18 0 is_stmt 1        @ /root/Bela/projects/board_6/Adafruit_I2CDevice.cpp:18:0
	.fnstart
	.cfi_startproc
@ BB#0:
	.save	{r4, r10, r11, lr}
	push	{r4, r10, r11, lr}
.Ltmp29:
	.cfi_def_cfa_offset 16
.Ltmp30:
	.cfi_offset lr, -4
.Ltmp31:
	.cfi_offset r11, -8
.Ltmp32:
	.cfi_offset r10, -12
.Ltmp33:
	.cfi_offset r4, -16
	.setfp	r11, sp, #8
	add	r11, sp, #8
.Ltmp34:
	.cfi_def_cfa r11, 8
	@DEBUG_VALUE: write:this <- %R0
	@DEBUG_VALUE: write:bytes <- %R1
	@DEBUG_VALUE: write:len <- %R2
.Ltmp35:
	.loc	1 87 15 prologue_end    @ ./include/I2c.h:87:15
	ldr	r0, [r0, #12]
.Ltmp36:
	@DEBUG_VALUE: writeBytes:count <- %R4
	@DEBUG_VALUE: writeBytes:buf <- %R1
	mov	r4, r2
.Ltmp37:
	@DEBUG_VALUE: write:len <- %R4
	.loc	1 87 9 is_stmt 0        @ ./include/I2c.h:87:9
	bl	write
.Ltmp38:
	.loc	2 19 13 is_stmt 1       @ /root/Bela/projects/board_6/Adafruit_I2CDevice.cpp:19:13
	mov	r1, #0
	cmp	r0, r4
	movweq	r1, #1
	.loc	2 19 2 is_stmt 0        @ /root/Bela/projects/board_6/Adafruit_I2CDevice.cpp:19:2
	mov	r0, r1
	pop	{r4, r10, r11, pc}
.Ltmp39:
.Lfunc_end4:
	.size	_ZN18Adafruit_I2CDevice5writeEPhj, .Lfunc_end4-_ZN18Adafruit_I2CDevice5writeEPhj
	.cfi_endproc
	.fnend

	.globl	_ZN18Adafruit_I2CDevice4readEPhj
	.p2align	2
	.type	_ZN18Adafruit_I2CDevice4readEPhj,%function
_ZN18Adafruit_I2CDevice4readEPhj:       @ @_ZN18Adafruit_I2CDevice4readEPhj
.Lfunc_begin5:
	.loc	2 23 0 is_stmt 1        @ /root/Bela/projects/board_6/Adafruit_I2CDevice.cpp:23:0
	.fnstart
	.cfi_startproc
@ BB#0:
	.save	{r4, r10, r11, lr}
	push	{r4, r10, r11, lr}
.Ltmp40:
	.cfi_def_cfa_offset 16
.Ltmp41:
	.cfi_offset lr, -4
.Ltmp42:
	.cfi_offset r11, -8
.Ltmp43:
	.cfi_offset r10, -12
.Ltmp44:
	.cfi_offset r4, -16
	.setfp	r11, sp, #8
	add	r11, sp, #8
.Ltmp45:
	.cfi_def_cfa r11, 8
	@DEBUG_VALUE: read:this <- %R0
	@DEBUG_VALUE: read:bytes <- %R1
	@DEBUG_VALUE: read:len <- %R2
.Ltmp46:
	.loc	1 82 14 prologue_end    @ ./include/I2c.h:82:14
	ldr	r0, [r0, #12]
.Ltmp47:
	@DEBUG_VALUE: readBytes:count <- %R4
	@DEBUG_VALUE: readBytes:buf <- %R1
	mov	r4, r2
.Ltmp48:
	@DEBUG_VALUE: read:len <- %R4
	.loc	1 82 9 is_stmt 0        @ ./include/I2c.h:82:9
	bl	read
.Ltmp49:
	.loc	2 24 13 is_stmt 1       @ /root/Bela/projects/board_6/Adafruit_I2CDevice.cpp:24:13
	mov	r1, #0
	cmp	r0, r4
	movweq	r1, #1
	.loc	2 24 2 is_stmt 0        @ /root/Bela/projects/board_6/Adafruit_I2CDevice.cpp:24:2
	mov	r0, r1
	pop	{r4, r10, r11, pc}
.Ltmp50:
.Lfunc_end5:
	.size	_ZN18Adafruit_I2CDevice4readEPhj, .Lfunc_end5-_ZN18Adafruit_I2CDevice4readEPhj
	.cfi_endproc
	.fnend

	.globl	_ZN18Adafruit_I2CDevice15write_then_readEPKhjPhjb
	.p2align	2
	.type	_ZN18Adafruit_I2CDevice15write_then_readEPKhjPhjb,%function
_ZN18Adafruit_I2CDevice15write_then_readEPKhjPhjb: @ @_ZN18Adafruit_I2CDevice15write_then_readEPKhjPhjb
.Lfunc_begin6:
	.loc	2 27 0 is_stmt 1        @ /root/Bela/projects/board_6/Adafruit_I2CDevice.cpp:27:0
	.fnstart
	.cfi_startproc
@ BB#0:
	.save	{r4, r5, r11, lr}
	push	{r4, r5, r11, lr}
.Ltmp51:
	.cfi_def_cfa_offset 16
.Ltmp52:
	.cfi_offset lr, -4
.Ltmp53:
	.cfi_offset r11, -8
.Ltmp54:
	.cfi_offset r5, -12
.Ltmp55:
	.cfi_offset r4, -16
	.setfp	r11, sp, #8
	add	r11, sp, #8
.Ltmp56:
	.cfi_def_cfa r11, 8
	.pad	#32
	sub	sp, sp, #32
	@DEBUG_VALUE: write_then_read:this <- %R0
	@DEBUG_VALUE: write_then_read:write_buffer <- %R1
	@DEBUG_VALUE: write_then_read:write_len <- %R2
	@DEBUG_VALUE: write_then_read:read_buffer <- %R3
	@DEBUG_VALUE: write_then_read:read_len <- [%R11+8]
	ldr	lr, [r11, #12]
	mov	r5, #0
.Ltmp57:
	.loc	2 31 21 prologue_end    @ /root/Bela/projects/board_6/Adafruit_I2CDevice.cpp:31:21
	ldrh	r4, [r0, #20]
	.loc	2 31 19 is_stmt 0       @ /root/Bela/projects/board_6/Adafruit_I2CDevice.cpp:31:19
	strh	r4, [sp]
	.loc	2 38 22 is_stmt 1       @ /root/Bela/projects/board_6/Adafruit_I2CDevice.cpp:38:22
	cmp	lr, #0
	.loc	2 32 20                 @ /root/Bela/projects/board_6/Adafruit_I2CDevice.cpp:32:20
	strh	r5, [sp, #2]
	.loc	2 33 18                 @ /root/Bela/projects/board_6/Adafruit_I2CDevice.cpp:33:18
	strh	r2, [sp, #4]
	sub	r2, r11, #16
.Ltmp58:
	@DEBUG_VALUE: write_then_read:packets <- [%R2+0]
	.loc	2 34 18                 @ /root/Bela/projects/board_6/Adafruit_I2CDevice.cpp:34:18
	str	r1, [sp, #8]
	.loc	2 38 22                 @ /root/Bela/projects/board_6/Adafruit_I2CDevice.cpp:38:22
	movw	r1, #16385
.Ltmp59:
	movwne	r1, #1
	.loc	2 37 19                 @ /root/Bela/projects/board_6/Adafruit_I2CDevice.cpp:37:19
	strh	r4, [sp, #12]
	.loc	2 38 20                 @ /root/Bela/projects/board_6/Adafruit_I2CDevice.cpp:38:20
	strh	r1, [sp, #14]
	mov	r1, sp
.Ltmp60:
	@DEBUG_VALUE: write_then_read:messages <- [%R1+0]
	ldr	r12, [r11, #8]
	.loc	2 43 15                 @ /root/Bela/projects/board_6/Adafruit_I2CDevice.cpp:43:15
	str	r1, [r11, #-16]
	mov	r1, #2
.Ltmp61:
	.loc	2 39 18                 @ /root/Bela/projects/board_6/Adafruit_I2CDevice.cpp:39:18
	strh	r12, [sp, #16]
	.loc	2 44 16                 @ /root/Bela/projects/board_6/Adafruit_I2CDevice.cpp:44:16
	str	r1, [r11, #-12]
.Ltmp62:
	.loc	2 45 5                  @ /root/Bela/projects/board_6/Adafruit_I2CDevice.cpp:45:5
	movw	r1, #1799
.Ltmp63:
	.loc	2 40 18                 @ /root/Bela/projects/board_6/Adafruit_I2CDevice.cpp:40:18
	str	r3, [sp, #20]
.Ltmp64:
	.loc	2 45 11                 @ /root/Bela/projects/board_6/Adafruit_I2CDevice.cpp:45:11
	ldr	r0, [r0, #12]
.Ltmp65:
	.loc	2 45 5 is_stmt 0        @ /root/Bela/projects/board_6/Adafruit_I2CDevice.cpp:45:5
	bl	ioctl
.Ltmp66:
	mov	r1, r0
	mov	r0, #1
.Ltmp67:
	.loc	2 45 5                  @ /root/Bela/projects/board_6/Adafruit_I2CDevice.cpp:45:5
	cmp	r1, #0
	blt	.LBB6_2
.LBB6_1:
	@DEBUG_VALUE: write_then_read:read_len <- [%R11+8]
	.loc	2 52 1 is_stmt 1        @ /root/Bela/projects/board_6/Adafruit_I2CDevice.cpp:52:1
	sub	sp, r11, #8
	pop	{r4, r5, r11, pc}
.LBB6_2:
	@DEBUG_VALUE: write_then_read:read_len <- [%R11+8]
.Ltmp68:
	.loc	2 46 11                 @ /root/Bela/projects/board_6/Adafruit_I2CDevice.cpp:46:11
	movw	r0, :lower16:stderr
	.loc	2 46 3 is_stmt 0        @ /root/Bela/projects/board_6/Adafruit_I2CDevice.cpp:46:3
	mov	r1, #26
	.loc	2 46 11                 @ /root/Bela/projects/board_6/Adafruit_I2CDevice.cpp:46:11
	movt	r0, :upper16:stderr
	.loc	2 46 3                  @ /root/Bela/projects/board_6/Adafruit_I2CDevice.cpp:46:3
	mov	r2, #1
	.loc	2 46 11                 @ /root/Bela/projects/board_6/Adafruit_I2CDevice.cpp:46:11
	ldr	r3, [r0]
	.loc	2 46 3                  @ /root/Bela/projects/board_6/Adafruit_I2CDevice.cpp:46:3
	movw	r0, :lower16:.L.str
	movt	r0, :upper16:.L.str
	bl	fwrite
	mov	r0, #0
	b	.LBB6_1
.Ltmp69:
.Lfunc_end6:
	.size	_ZN18Adafruit_I2CDevice15write_then_readEPKhjPhjb, .Lfunc_end6-_ZN18Adafruit_I2CDevice15write_then_readEPKhjPhjb
	.cfi_endproc
	.fnend

	.type	_ZTV18Adafruit_I2CDevice,%object @ @_ZTV18Adafruit_I2CDevice
	.section	.rodata,"a",%progbits
	.globl	_ZTV18Adafruit_I2CDevice
	.p2align	2
_ZTV18Adafruit_I2CDevice:
	.long	0
	.long	_ZTI18Adafruit_I2CDevice
	.long	_ZN18Adafruit_I2CDeviceD2Ev
	.long	_ZN18Adafruit_I2CDeviceD0Ev
	.size	_ZTV18Adafruit_I2CDevice, 16

	.type	.L.str,%object          @ @.str
	.section	.rodata.str1.1,"aMS",%progbits,1
.L.str:
	.asciz	"Failed to write_then_read\n"
	.size	.L.str, 27

	.type	_ZTS18Adafruit_I2CDevice,%object @ @_ZTS18Adafruit_I2CDevice
	.section	.rodata,"a",%progbits
	.globl	_ZTS18Adafruit_I2CDevice
	.p2align	4
_ZTS18Adafruit_I2CDevice:
	.asciz	"18Adafruit_I2CDevice"
	.size	_ZTS18Adafruit_I2CDevice, 21

	.type	_ZTS3I2c,%object        @ @_ZTS3I2c
	.section	.rodata._ZTS3I2c,"aG",%progbits,_ZTS3I2c,comdat
	.weak	_ZTS3I2c
_ZTS3I2c:
	.asciz	"3I2c"
	.size	_ZTS3I2c, 5

	.type	_ZTI3I2c,%object        @ @_ZTI3I2c
	.section	.rodata._ZTI3I2c,"aG",%progbits,_ZTI3I2c,comdat
	.weak	_ZTI3I2c
	.p2align	2
_ZTI3I2c:
	.long	_ZTVN10__cxxabiv117__class_type_infoE+8
	.long	_ZTS3I2c
	.size	_ZTI3I2c, 8

	.type	_ZTI18Adafruit_I2CDevice,%object @ @_ZTI18Adafruit_I2CDevice
	.section	.rodata,"a",%progbits
	.globl	_ZTI18Adafruit_I2CDevice
	.p2align	4
_ZTI18Adafruit_I2CDevice:
	.long	_ZTVN10__cxxabiv121__vmi_class_type_infoE+8
	.long	_ZTS18Adafruit_I2CDevice
	.long	0                       @ 0x0
	.long	1                       @ 0x1
	.long	_ZTI3I2c
	.long	0                       @ 0x0
	.size	_ZTI18Adafruit_I2CDevice, 24

	.type	.L.str.1,%object        @ @.str.1
	.section	.rodata.str1.1,"aMS",%progbits,1
.L.str.1:
	.asciz	"/dev/i2c-%d"
	.size	.L.str.1, 12

	.type	.L.str.2,%object        @ @.str.2
.L.str.2:
	.asciz	"Failed to open %s I2C Bus\n"
	.size	.L.str.2, 27

	.type	.L.str.3,%object        @ @.str.3
.L.str.3:
	.asciz	"I2C_SLAVE address %#x failed..."
	.size	.L.str.3, 32

	.file	8 "/usr/include/asm-generic" "int-ll64.h"
	.file	9 "/usr/include/linux" "i2c.h"
	.file	10 "/usr/include/linux" "i2c-dev.h"
	.section	".note.GNU-stack","",%progbits
	.eabi_attribute	30, 2	@ Tag_ABI_optimization_goals