	.text
	.syntax unified
	.eabi_attribute	67, "2.09"	@ Tag_conformance
	.cpu	cortex-a8
	.eabi_attribute	6, 10	@ Tag_CPU_arch
	.eabi_attribute	7, 65	@ Tag_CPU_arch_profile
	.eabi_attribute	8, 1	@ Tag_ARM_ISA_use
	.eabi_attribute	9, 2	@ Tag_THUMB_ISA_use
	.fpu	neon
	.eabi_attribute	17, 1	@ Tag_ABI_PCS_GOT_use
	.eabi_attribute	20, 2	@ Tag_ABI_FP_denormal
	.eabi_attribute	23, 1	@ Tag_ABI_FP_number_model
	.eabi_attribute	34, 1	@ Tag_CPU_unaligned_access
	.eabi_attribute	24, 1	@ Tag_ABI_align_needed
	.eabi_attribute	25, 1	@ Tag_ABI_align_preserved
	.eabi_attribute	28, 1	@ Tag_ABI_VFP_args
	.eabi_attribute	38, 1	@ Tag_ABI_FP_16bit_format
	.eabi_attribute	18, 4	@ Tag_ABI_PCS_wchar_t
	.eabi_attribute	26, 2	@ Tag_ABI_enum_size
	.eabi_attribute	14, 0	@ Tag_ABI_PCS_R9_use
	.eabi_attribute	68, 1	@ Tag_Virtualization_use
	.file	"/root/Bela/projects/board_6/build/Adafruit_TSC2007.bc"
	.file	1 "/usr/bin/../lib/gcc/arm-linux-gnueabihf/6.3.0/../../../../include/arm-linux-gnueabihf/c++/6.3.0/bits" "c++config.h"
	.file	2 "/usr/bin/../lib/gcc/arm-linux-gnueabihf/6.3.0/../../../../include/arm-linux-gnueabihf/c++/6.3.0/bits" "atomic_word.h"
	.file	3 "/usr/bin/../lib/gcc/arm-linux-gnueabihf/6.3.0/../../../../include/c++/6.3.0/bits" "ios_base.h"
	.file	4 "/usr/bin/../lib/gcc/arm-linux-gnueabihf/6.3.0/../../../../include/c++/6.3.0" "iostream"
	.file	5 "/root/Bela/projects/board_6" "Adafruit_TSC2007.h"
	.file	6 "/usr/include" "stdint.h"
	.file	7 "/usr/include" "stdlib.h"
	.file	8 "/usr/include/arm-linux-gnueabihf/bits" "stdlib-float.h"
	.file	9 "/usr/include/arm-linux-gnueabihf/bits" "stdlib-bsearch.h"
	.file	10 "/usr/lib/llvm-3.9/bin/../lib/clang/3.9.1/include" "stddef.h"
	.file	11 "/usr/bin/../lib/gcc/arm-linux-gnueabihf/6.3.0/../../../../include/c++/6.3.0" "cstdlib"
	.file	12 "/root/Bela/projects/board_6/build" "Adafruit_TSC2007.cpp"
	.file	13 "/usr/include" "wchar.h"
	.file	14 "/usr/include" "libio.h"
	.file	15 "/usr/include/arm-linux-gnueabihf/bits" "types.h"
	.file	16 "/usr/include" "stdio.h"
	.file	17 "/usr/lib/llvm-3.9/bin/../lib/clang/3.9.1/include" "stdarg.h"
	.file	18 "/usr/bin/../lib/gcc/arm-linux-gnueabihf/6.3.0/../../../../include/c++/6.3.0/bits" "exception_ptr.h"
	.file	19 "/usr/bin/../lib/gcc/arm-linux-gnueabihf/6.3.0/../../../../include/c++/6.3.0/debug" "debug.h"
	.file	20 "/usr/include" "locale.h"
	.file	21 "/usr/include" "ctype.h"
	.file	22 "/usr/include" "_G_config.h"
	.file	23 "/usr/include/arm-linux-gnueabihf/bits" "stdio.h"
	.file	24 "/usr/include" "wctype.h"
	.globl	_ZN16Adafruit_TSC2007C2Ev
	.p2align	2
	.type	_ZN16Adafruit_TSC2007C2Ev,%function
_ZN16Adafruit_TSC2007C2Ev:              @ @_ZN16Adafruit_TSC2007C2Ev
.Lfunc_begin0:
	.file	25 "/root/Bela/projects/board_6" "Adafruit_TSC2007.cpp"
	.loc	25 41 0                 @ /root/Bela/projects/board_6/Adafruit_TSC2007.cpp:41:0
	.fnstart
	.cfi_startproc
@ BB#0:
	@DEBUG_VALUE: Adafruit_TSC2007:this <- %R0
	.loc	5 96 23 prologue_end    @ /root/Bela/projects/board_6/Adafruit_TSC2007.h:96:23
	mov	r1, #0
	str	r1, [r0]
	.loc	25 41 43                @ /root/Bela/projects/board_6/Adafruit_TSC2007.cpp:41:43
	bx	lr
.Ltmp0:
.Lfunc_end0:
	.size	_ZN16Adafruit_TSC2007C2Ev, .Lfunc_end0-_ZN16Adafruit_TSC2007C2Ev
	.cfi_endproc
	.fnend

	.globl	_ZN16Adafruit_TSC2007D2Ev
	.p2align	2
	.type	_ZN16Adafruit_TSC2007D2Ev,%function
_ZN16Adafruit_TSC2007D2Ev:              @ @_ZN16Adafruit_TSC2007D2Ev
.Lfunc_begin1:
	.loc	25 43 0                 @ /root/Bela/projects/board_6/Adafruit_TSC2007.cpp:43:0
	.fnstart
	.cfi_startproc
@ BB#0:
	.save	{r4, r10, r11, lr}
	push	{r4, r10, r11, lr}
.Ltmp1:
	.cfi_def_cfa_offset 16
.Ltmp2:
	.cfi_offset lr, -4
.Ltmp3:
	.cfi_offset r11, -8
.Ltmp4:
	.cfi_offset r10, -12
.Ltmp5:
	.cfi_offset r4, -16
	.setfp	r11, sp, #8
	add	r11, sp, #8
.Ltmp6:
	.cfi_def_cfa r11, 8
	@DEBUG_VALUE: ~Adafruit_TSC2007:this <- %R0
	mov	r4, r0
.Ltmp7:
	@DEBUG_VALUE: ~Adafruit_TSC2007:this <- %R4
	.loc	25 44 7 prologue_end    @ /root/Bela/projects/board_6/Adafruit_TSC2007.cpp:44:7
	ldr	r0, [r4]
.Ltmp8:
	.loc	25 44 7 is_stmt 0       @ /root/Bela/projects/board_6/Adafruit_TSC2007.cpp:44:7
	cmp	r0, #0
	beq	.LBB1_2
.Ltmp9:
@ BB#1:
	@DEBUG_VALUE: ~Adafruit_TSC2007:this <- %R4
	.loc	25 45 5 is_stmt 1 discriminator 1 @ /root/Bela/projects/board_6/Adafruit_TSC2007.cpp:45:5
	ldr	r1, [r0]
	ldr	r1, [r1, #4]
	blx	r1
.Ltmp10:
.LBB1_2:
	@DEBUG_VALUE: ~Adafruit_TSC2007:this <- %R4
	.loc	25 47 1                 @ /root/Bela/projects/board_6/Adafruit_TSC2007.cpp:47:1
	mov	r0, r4
	pop	{r4, r10, r11, pc}
.Ltmp11:
.Lfunc_end1:
	.size	_ZN16Adafruit_TSC2007D2Ev, .Lfunc_end1-_ZN16Adafruit_TSC2007D2Ev
	.cfi_endproc
	.fnend

	.globl	_ZN16Adafruit_TSC20075beginEhP7TwoWire
	.p2align	2
	.type	_ZN16Adafruit_TSC20075beginEhP7TwoWire,%function
_ZN16Adafruit_TSC20075beginEhP7TwoWire: @ @_ZN16Adafruit_TSC20075beginEhP7TwoWire
.Lfunc_begin2:
	.loc	25 57 0                 @ /root/Bela/projects/board_6/Adafruit_TSC2007.cpp:57:0
	.fnstart
	.cfi_startproc
@ BB#0:
	.save	{r4, r5, r6, r7, r11, lr}
	push	{r4, r5, r6, r7, r11, lr}
.Ltmp15:
	.cfi_def_cfa_offset 24
.Ltmp16:
	.cfi_offset lr, -4
.Ltmp17:
	.cfi_offset r11, -8
.Ltmp18:
	.cfi_offset r7, -12
.Ltmp19:
	.cfi_offset r6, -16
.Ltmp20:
	.cfi_offset r5, -20
.Ltmp21:
	.cfi_offset r4, -24
	.setfp	r11, sp, #16
	add	r11, sp, #16
.Ltmp22:
	.cfi_def_cfa r11, 8
	.pad	#8
	sub	sp, sp, #8
	@DEBUG_VALUE: begin:this <- %R0
	@DEBUG_VALUE: begin:address <- %R1
	@DEBUG_VALUE: begin:wire <- %R2
	mov	r4, r0
.Ltmp23:
	@DEBUG_VALUE: begin:this <- %R4
	mov	r5, r2
.Ltmp24:
	@DEBUG_VALUE: begin:wire <- %R5
	.loc	25 58 7 prologue_end    @ /root/Bela/projects/board_6/Adafruit_TSC2007.cpp:58:7
	ldr	r0, [r4]
	mov	r6, r1
.Ltmp25:
	@DEBUG_VALUE: begin:address <- %R6
	.loc	25 58 7 is_stmt 0       @ /root/Bela/projects/board_6/Adafruit_TSC2007.cpp:58:7
	cmp	r0, #0
	beq	.LBB2_2
.Ltmp26:
@ BB#1:
	@DEBUG_VALUE: begin:address <- %R6
	@DEBUG_VALUE: begin:wire <- %R5
	@DEBUG_VALUE: begin:this <- %R4
	.loc	25 59 5 is_stmt 1 discriminator 1 @ /root/Bela/projects/board_6/Adafruit_TSC2007.cpp:59:5
	ldr	r1, [r0]
	ldr	r1, [r1, #4]
	blx	r1
.Ltmp27:
.LBB2_2:
	@DEBUG_VALUE: begin:address <- %R6
	@DEBUG_VALUE: begin:wire <- %R5
	@DEBUG_VALUE: begin:this <- %R4
	.loc	25 62 13                @ /root/Bela/projects/board_6/Adafruit_TSC2007.cpp:62:13
	mov	r0, #24
	bl	_Znwj
	mov	r7, r0
	.loc	25 62 17 is_stmt 0      @ /root/Bela/projects/board_6/Adafruit_TSC2007.cpp:62:17
.Ltmp12:
	mov	r1, r6
	mov	r2, r5
	bl	_ZN18Adafruit_I2CDeviceC1EhP7TwoWire
.Ltmp13:
.Ltmp28:
@ BB#3:
	@DEBUG_VALUE: begin:address <- %R6
	@DEBUG_VALUE: begin:wire <- %R5
	@DEBUG_VALUE: begin:this <- %R4
	.loc	25 64 17 is_stmt 1      @ /root/Bela/projects/board_6/Adafruit_TSC2007.cpp:64:17
	mov	r0, r7
.Ltmp29:
	.loc	25 62 11 discriminator 1 @ /root/Bela/projects/board_6/Adafruit_TSC2007.cpp:62:11
	str	r7, [r4]
.Ltmp30:
	.loc	25 64 17                @ /root/Bela/projects/board_6/Adafruit_TSC2007.cpp:64:17
	bl	_ZN18Adafruit_I2CDevice5beginEv
	mov	r5, #0
.Ltmp31:
	.loc	25 64 7 is_stmt 0       @ /root/Bela/projects/board_6/Adafruit_TSC2007.cpp:64:7
	cmp	r0, #0
	beq	.LBB2_6
.Ltmp32:
@ BB#4:
	@DEBUG_VALUE: begin:address <- %R6
	@DEBUG_VALUE: begin:this <- %R4
	.loc	25 91 7 is_stmt 1       @ /root/Bela/projects/board_6/Adafruit_TSC2007.cpp:91:7
	mov	r0, #0
.Ltmp33:
	@DEBUG_VALUE: command:cmd <- 0
	add	r1, sp, #7
.Ltmp34:
	@DEBUG_VALUE: command:cmd <- [%R1+0]
	@DEBUG_VALUE: command:res <- 0
	@DEBUG_VALUE: command:pwr <- 0
	@DEBUG_VALUE: command:func <- 0
	strb	r0, [sp, #7]
.Ltmp35:
	.loc	25 95 17                @ /root/Bela/projects/board_6/Adafruit_TSC2007.cpp:95:17
	mov	r2, #1
	.loc	25 95 8 is_stmt 0       @ /root/Bela/projects/board_6/Adafruit_TSC2007.cpp:95:8
	ldr	r0, [r4]
	mov	r5, #1
	.loc	25 95 17                @ /root/Bela/projects/board_6/Adafruit_TSC2007.cpp:95:17
	bl	_ZN18Adafruit_I2CDevice5writeEPhj
.Ltmp36:
	.loc	25 95 7                 @ /root/Bela/projects/board_6/Adafruit_TSC2007.cpp:95:7
	cmp	r0, #1
	bne	.LBB2_6
.Ltmp37:
@ BB#5:
	@DEBUG_VALUE: begin:address <- %R6
	@DEBUG_VALUE: begin:this <- %R4
	@DEBUG_VALUE: command:this <- %R4
	.loc	25 100 3 is_stmt 1      @ /root/Bela/projects/board_6/Adafruit_TSC2007.cpp:100:3
	mov	r0, #500
	bl	_Z17delayMicrosecondsj
.Ltmp38:
	.loc	25 102 8                @ /root/Bela/projects/board_6/Adafruit_TSC2007.cpp:102:8
	ldr	r0, [r4]
	add	r1, sp, #5
	.loc	25 102 17 is_stmt 0     @ /root/Bela/projects/board_6/Adafruit_TSC2007.cpp:102:17
	mov	r2, #2
	bl	_ZN18Adafruit_I2CDevice4readEPhj
.Ltmp39:
.LBB2_6:
	@DEBUG_VALUE: begin:address <- %R6
	@DEBUG_VALUE: begin:this <- %R4
	.loc	25 77 1 is_stmt 1 discriminator 1 @ /root/Bela/projects/board_6/Adafruit_TSC2007.cpp:77:1
	mov	r0, r5
	sub	sp, r11, #16
	pop	{r4, r5, r6, r7, r11, pc}
.Ltmp40:
.LBB2_7:
	@DEBUG_VALUE: begin:address <- %R6
	@DEBUG_VALUE: begin:wire <- %R5
	@DEBUG_VALUE: begin:this <- %R4
.Ltmp14:
	mov	r4, r0
.Ltmp41:
	.loc	25 62 13 discriminator 2 @ /root/Bela/projects/board_6/Adafruit_TSC2007.cpp:62:13
	mov	r0, r7
	bl	_ZdlPv
	mov	r0, r4
	mov	lr, pc
	b	_Unwind_Resume
.Ltmp42:
.Lfunc_end2:
	.size	_ZN16Adafruit_TSC20075beginEhP7TwoWire, .Lfunc_end2-_ZN16Adafruit_TSC20075beginEhP7TwoWire
	.cfi_endproc
	.globl	__gxx_personality_v0
	.personality __gxx_personality_v0
	.handlerdata
	.p2align	2
GCC_except_table2:
.Lexception0:
	.byte	255                     @ @LPStart Encoding = omit
	.byte	0                       @ @TType Encoding = absptr
	.byte	41                      @ @TType base offset
	.byte	3                       @ Call site Encoding = udata4
	.byte	39                      @ Call site table length
	.long	.Lfunc_begin2-.Lfunc_begin2 @ >> Call Site 1 <<
	.long	.Ltmp12-.Lfunc_begin2   @   Call between .Lfunc_begin2 and .Ltmp12
	.long	0                       @     has no landing pad
	.byte	0                       @   On action: cleanup
	.long	.Ltmp12-.Lfunc_begin2   @ >> Call Site 2 <<
	.long	.Ltmp13-.Ltmp12         @   Call between .Ltmp12 and .Ltmp13
	.long	.Ltmp14-.Lfunc_begin2   @     jumps to .Ltmp14
	.byte	0                       @   On action: cleanup
	.long	.Ltmp13-.Lfunc_begin2   @ >> Call Site 3 <<
	.long	.Lfunc_end2-.Ltmp13     @   Call between .Ltmp13 and .Lfunc_end2
	.long	0                       @     has no landing pad
	.byte	0                       @   On action: cleanup
	.p2align	2
	.fnend

	.globl	_ZN16Adafruit_TSC20077commandE25adafruit_tsc2007_function22adafruit_tsc2007_power27adafruit_tsc2007_resolution
	.p2align	2
	.type	_ZN16Adafruit_TSC20077commandE25adafruit_tsc2007_function22adafruit_tsc2007_power27adafruit_tsc2007_resolution,%function
_ZN16Adafruit_TSC20077commandE25adafruit_tsc2007_function22adafruit_tsc2007_power27adafruit_tsc2007_resolution: @ @_ZN16Adafruit_TSC20077commandE25adafruit_tsc2007_function22adafruit_tsc2007_power27adafruit_tsc2007_resolution
.Lfunc_begin3:
	.loc	25 88 0                 @ /root/Bela/projects/board_6/Adafruit_TSC2007.cpp:88:0
	.fnstart
	.cfi_startproc
@ BB#0:
	.save	{r4, r5, r11, lr}
	push	{r4, r5, r11, lr}
.Ltmp43:
	.cfi_def_cfa_offset 16
.Ltmp44:
	.cfi_offset lr, -4
.Ltmp45:
	.cfi_offset r11, -8
.Ltmp46:
	.cfi_offset r5, -12
.Ltmp47:
	.cfi_offset r4, -16
	.setfp	r11, sp, #8
	add	r11, sp, #8
.Ltmp48:
	.cfi_def_cfa r11, 8
	.pad	#8
	sub	sp, sp, #8
	@DEBUG_VALUE: command:this <- %R0
	@DEBUG_VALUE: command:func <- %R1
	@DEBUG_VALUE: command:pwr <- %R2
	@DEBUG_VALUE: command:res <- %R3
	mov	r4, r0
.Ltmp49:
	@DEBUG_VALUE: command:this <- %R4
	.loc	25 90 23 prologue_end   @ /root/Bela/projects/board_6/Adafruit_TSC2007.cpp:90:23
	lsl	r0, r2, #2
	.loc	25 90 7 is_stmt 0       @ /root/Bela/projects/board_6/Adafruit_TSC2007.cpp:90:7
	orr	r0, r0, r1, lsl #4
	add	r1, sp, #7
.Ltmp50:
	@DEBUG_VALUE: command:cmd <- [%R1+0]
	.loc	25 91 7 is_stmt 1       @ /root/Bela/projects/board_6/Adafruit_TSC2007.cpp:91:7
	orr	r0, r0, r3, lsl #1
	strb	r0, [sp, #7]
.Ltmp51:
	.loc	25 95 8                 @ /root/Bela/projects/board_6/Adafruit_TSC2007.cpp:95:8
	ldr	r0, [r4]
	.loc	25 95 17 is_stmt 0      @ /root/Bela/projects/board_6/Adafruit_TSC2007.cpp:95:17
	mov	r2, #1
.Ltmp52:
	bl	_ZN18Adafruit_I2CDevice5writeEPhj
.Ltmp53:
	mov	r5, #0
.Ltmp54:
	.loc	25 95 7                 @ /root/Bela/projects/board_6/Adafruit_TSC2007.cpp:95:7
	cmp	r0, #1
	bne	.LBB3_2
.Ltmp55:
@ BB#1:
	@DEBUG_VALUE: command:this <- %R4
	.loc	25 100 3 is_stmt 1      @ /root/Bela/projects/board_6/Adafruit_TSC2007.cpp:100:3
	mov	r0, #500
	bl	_Z17delayMicrosecondsj
.Ltmp56:
	.loc	25 102 8                @ /root/Bela/projects/board_6/Adafruit_TSC2007.cpp:102:8
	ldr	r0, [r4]
	add	r1, sp, #5
	.loc	25 102 17 is_stmt 0     @ /root/Bela/projects/board_6/Adafruit_TSC2007.cpp:102:17
	mov	r2, #2
	bl	_ZN18Adafruit_I2CDevice4readEPhj
.Ltmp57:
	.loc	25 102 7                @ /root/Bela/projects/board_6/Adafruit_TSC2007.cpp:102:7
	cmp	r0, #1
	.loc	25 106 39 is_stmt 1     @ /root/Bela/projects/board_6/Adafruit_TSC2007.cpp:106:39
	ldrbeq	r1, [sp, #6]
	.loc	25 106 11 is_stmt 0     @ /root/Bela/projects/board_6/Adafruit_TSC2007.cpp:106:11
	ldrbeq	r0, [sp, #5]
	.loc	25 106 48               @ /root/Bela/projects/board_6/Adafruit_TSC2007.cpp:106:48
	lsreq	r1, r1, #4
	.loc	25 106 36               @ /root/Bela/projects/board_6/Adafruit_TSC2007.cpp:106:36
	orreq	r5, r1, r0, lsl #4
.Ltmp58:
.LBB3_2:
	@DEBUG_VALUE: command:this <- %R4
	.loc	25 107 1 is_stmt 1      @ /root/Bela/projects/board_6/Adafruit_TSC2007.cpp:107:1
	uxth	r0, r5
	sub	sp, r11, #8
	pop	{r4, r5, r11, pc}
.Ltmp59:
.Lfunc_end3:
	.size	_ZN16Adafruit_TSC20077commandE25adafruit_tsc2007_function22adafruit_tsc2007_power27adafruit_tsc2007_resolution, .Lfunc_end3-_ZN16Adafruit_TSC20077commandE25adafruit_tsc2007_function22adafruit_tsc2007_power27adafruit_tsc2007_resolution
	.cfi_endproc
	.fnend

	.globl	_ZN16Adafruit_TSC200710read_touchEPtS0_S0_S0_
	.p2align	2
	.type	_ZN16Adafruit_TSC200710read_touchEPtS0_S0_S0_,%function
_ZN16Adafruit_TSC200710read_touchEPtS0_S0_S0_: @ @_ZN16Adafruit_TSC200710read_touchEPtS0_S0_S0_
.Lfunc_begin4:
	.loc	25 118 0                @ /root/Bela/projects/board_6/Adafruit_TSC2007.cpp:118:0
	.fnstart
	.cfi_startproc
@ BB#0:
	.save	{r4, r5, r6, r7, r8, r9, r10, r11, lr}
	push	{r4, r5, r6, r7, r8, r9, r10, r11, lr}
.Ltmp60:
	.cfi_def_cfa_offset 36
.Ltmp61:
	.cfi_offset lr, -4
.Ltmp62:
	.cfi_offset r11, -8
.Ltmp63:
	.cfi_offset r10, -12
.Ltmp64:
	.cfi_offset r9, -16
.Ltmp65:
	.cfi_offset r8, -20
.Ltmp66:
	.cfi_offset r7, -24
.Ltmp67:
	.cfi_offset r6, -28
.Ltmp68:
	.cfi_offset r5, -32
.Ltmp69:
	.cfi_offset r4, -36
	.setfp	r11, sp, #28
	add	r11, sp, #28
.Ltmp70:
	.cfi_def_cfa r11, 8
	.pad	#12
	sub	sp, sp, #12
	@DEBUG_VALUE: read_touch:this <- %R0
	@DEBUG_VALUE: read_touch:x <- %R1
	@DEBUG_VALUE: read_touch:y <- %R2
	@DEBUG_VALUE: read_touch:z1 <- %R3
	mov	r6, r0
.Ltmp71:
	@DEBUG_VALUE: read_touch:this <- %R6
	.loc	25 91 7 prologue_end    @ /root/Bela/projects/board_6/Adafruit_TSC2007.cpp:91:7
	mov	r0, #228
.Ltmp72:
	@DEBUG_VALUE: command:cmd <- -28
	strb	r0, [sp, #5]
	mov	r9, r1
.Ltmp73:
	@DEBUG_VALUE: read_touch:x <- %R9
	.loc	25 95 8                 @ /root/Bela/projects/board_6/Adafruit_TSC2007.cpp:95:8
	ldr	r0, [r6]
	add	r1, sp, #5
.Ltmp74:
	@DEBUG_VALUE: command:cmd <- [%R1+0]
	@DEBUG_VALUE: command:res <- 0
	@DEBUG_VALUE: command:pwr <- 1
	@DEBUG_VALUE: command:func <- 14
	@DEBUG_VALUE: command:this <- %R6
	mov	r8, r2
.Ltmp75:
	@DEBUG_VALUE: read_touch:y <- %R8
	.loc	25 95 17 is_stmt 0      @ /root/Bela/projects/board_6/Adafruit_TSC2007.cpp:95:17
	mov	r2, #1
	mov	r7, r3
.Ltmp76:
	@DEBUG_VALUE: read_touch:z1 <- %R7
	bl	_ZN18Adafruit_I2CDevice5writeEPhj
.Ltmp77:
	.loc	25 95 7                 @ /root/Bela/projects/board_6/Adafruit_TSC2007.cpp:95:7
	cmp	r0, #1
	mov	r4, #0
.Ltmp78:
	.loc	25 119 9 is_stmt 1      @ /root/Bela/projects/board_6/Adafruit_TSC2007.cpp:119:9
	mov	r0, #0
	bne	.LBB4_2
.Ltmp79:
@ BB#1:
	@DEBUG_VALUE: read_touch:z1 <- %R7
	@DEBUG_VALUE: read_touch:y <- %R8
	@DEBUG_VALUE: command:this <- %R6
	@DEBUG_VALUE: read_touch:x <- %R9
	@DEBUG_VALUE: read_touch:this <- %R6
	.loc	25 100 3                @ /root/Bela/projects/board_6/Adafruit_TSC2007.cpp:100:3
	mov	r0, #500
	bl	_Z17delayMicrosecondsj
.Ltmp80:
	.loc	25 102 8                @ /root/Bela/projects/board_6/Adafruit_TSC2007.cpp:102:8
	ldr	r0, [r6]
	add	r1, sp, #3
	.loc	25 102 17 is_stmt 0     @ /root/Bela/projects/board_6/Adafruit_TSC2007.cpp:102:17
	mov	r2, #2
	bl	_ZN18Adafruit_I2CDevice4readEPhj
.Ltmp81:
	.loc	25 102 7                @ /root/Bela/projects/board_6/Adafruit_TSC2007.cpp:102:7
	cmp	r0, #1
.Ltmp82:
	.loc	25 119 9 is_stmt 1      @ /root/Bela/projects/board_6/Adafruit_TSC2007.cpp:119:9
	mov	r0, #0
.Ltmp83:
	.loc	25 106 39               @ /root/Bela/projects/board_6/Adafruit_TSC2007.cpp:106:39
	ldrbeq	r1, [sp, #4]
	.loc	25 106 11 is_stmt 0     @ /root/Bela/projects/board_6/Adafruit_TSC2007.cpp:106:11
	ldrbeq	r0, [sp, #3]
	.loc	25 106 48               @ /root/Bela/projects/board_6/Adafruit_TSC2007.cpp:106:48
	lsreq	r1, r1, #4
	.loc	25 106 36               @ /root/Bela/projects/board_6/Adafruit_TSC2007.cpp:106:36
	orreq	r0, r1, r0, lsl #4
.Ltmp84:
.LBB4_2:                                @ %_ZN16Adafruit_TSC20077commandE25adafruit_tsc2007_function22adafruit_tsc2007_power27adafruit_tsc2007_resolution.exit
	@DEBUG_VALUE: read_touch:z1 <- %R7
	@DEBUG_VALUE: read_touch:y <- %R8
	@DEBUG_VALUE: command:this <- %R6
	@DEBUG_VALUE: read_touch:x <- %R9
	@DEBUG_VALUE: read_touch:this <- %R6
	.loc	25 119 7 is_stmt 1      @ /root/Bela/projects/board_6/Adafruit_TSC2007.cpp:119:7
	strh	r0, [r7]
.Ltmp85:
	.loc	25 91 7                 @ /root/Bela/projects/board_6/Adafruit_TSC2007.cpp:91:7
	mov	r0, #244
.Ltmp86:
	@DEBUG_VALUE: command:cmd <- -12
	strb	r0, [sp, #6]
	add	r1, sp, #6
.Ltmp87:
	@DEBUG_VALUE: command:cmd <- [%R1+0]
	@DEBUG_VALUE: command:res <- 0
	@DEBUG_VALUE: command:pwr <- 1
	@DEBUG_VALUE: command:func <- 15
	.loc	25 95 8                 @ /root/Bela/projects/board_6/Adafruit_TSC2007.cpp:95:8
	ldr	r0, [r6]
	.loc	25 95 17 is_stmt 0      @ /root/Bela/projects/board_6/Adafruit_TSC2007.cpp:95:17
	mov	r2, #1
	ldr	r5, [r11, #8]
	@DEBUG_VALUE: read_touch:z2 <- %R5
	bl	_ZN18Adafruit_I2CDevice5writeEPhj
.Ltmp88:
	.loc	25 95 7                 @ /root/Bela/projects/board_6/Adafruit_TSC2007.cpp:95:7
	cmp	r0, #1
	bne	.LBB4_4
.Ltmp89:
@ BB#3:
	@DEBUG_VALUE: read_touch:z2 <- %R5
	@DEBUG_VALUE: read_touch:z1 <- %R7
	@DEBUG_VALUE: read_touch:y <- %R8
	@DEBUG_VALUE: command:this <- %R6
	@DEBUG_VALUE: read_touch:x <- %R9
	@DEBUG_VALUE: read_touch:this <- %R6
	.loc	25 100 3 is_stmt 1      @ /root/Bela/projects/board_6/Adafruit_TSC2007.cpp:100:3
	mov	r0, #500
	bl	_Z17delayMicrosecondsj
.Ltmp90:
	.loc	25 102 8                @ /root/Bela/projects/board_6/Adafruit_TSC2007.cpp:102:8
	ldr	r0, [r6]
	add	r1, sp, #3
	.loc	25 102 17 is_stmt 0     @ /root/Bela/projects/board_6/Adafruit_TSC2007.cpp:102:17
	mov	r2, #2
	bl	_ZN18Adafruit_I2CDevice4readEPhj
.Ltmp91:
	.loc	25 102 7                @ /root/Bela/projects/board_6/Adafruit_TSC2007.cpp:102:7
	cmp	r0, #1
.Ltmp92:
	@DEBUG_VALUE: command:this <- %R6
	.loc	25 106 39 is_stmt 1     @ /root/Bela/projects/board_6/Adafruit_TSC2007.cpp:106:39
	ldrbeq	r1, [sp, #4]
	.loc	25 106 11 is_stmt 0     @ /root/Bela/projects/board_6/Adafruit_TSC2007.cpp:106:11
	ldrbeq	r0, [sp, #3]
	.loc	25 106 48               @ /root/Bela/projects/board_6/Adafruit_TSC2007.cpp:106:48
	lsreq	r1, r1, #4
	.loc	25 106 36               @ /root/Bela/projects/board_6/Adafruit_TSC2007.cpp:106:36
	orreq	r4, r1, r0, lsl #4
.Ltmp93:
.LBB4_4:                                @ %_ZN16Adafruit_TSC20077commandE25adafruit_tsc2007_function22adafruit_tsc2007_power27adafruit_tsc2007_resolution.exit23
	@DEBUG_VALUE: read_touch:z2 <- %R5
	@DEBUG_VALUE: read_touch:z1 <- %R7
	@DEBUG_VALUE: read_touch:y <- %R8
	@DEBUG_VALUE: command:this <- %R6
	@DEBUG_VALUE: read_touch:x <- %R9
	@DEBUG_VALUE: read_touch:this <- %R6
	.loc	25 91 7 is_stmt 1       @ /root/Bela/projects/board_6/Adafruit_TSC2007.cpp:91:7
	mov	r0, #196
.Ltmp94:
	@DEBUG_VALUE: command:cmd <- -60
	.loc	25 120 7                @ /root/Bela/projects/board_6/Adafruit_TSC2007.cpp:120:7
	strh	r4, [r5]
.Ltmp95:
	.loc	25 91 7                 @ /root/Bela/projects/board_6/Adafruit_TSC2007.cpp:91:7
	strb	r0, [sp, #7]
	add	r1, sp, #7
.Ltmp96:
	@DEBUG_VALUE: command:cmd <- [%R1+0]
	@DEBUG_VALUE: command:res <- 0
	@DEBUG_VALUE: command:pwr <- 1
	@DEBUG_VALUE: command:func <- 12
	.loc	25 95 8                 @ /root/Bela/projects/board_6/Adafruit_TSC2007.cpp:95:8
	ldr	r0, [r6]
	.loc	25 95 17 is_stmt 0      @ /root/Bela/projects/board_6/Adafruit_TSC2007.cpp:95:17
	mov	r2, #1
	bl	_ZN18Adafruit_I2CDevice5writeEPhj
.Ltmp97:
	mov	r10, #0
.Ltmp98:
	.loc	25 123 8 is_stmt 1      @ /root/Bela/projects/board_6/Adafruit_TSC2007.cpp:123:8
	mov	r5, #0
.Ltmp99:
	.loc	25 95 7                 @ /root/Bela/projects/board_6/Adafruit_TSC2007.cpp:95:7
	cmp	r0, #1
	bne	.LBB4_6
.Ltmp100:
@ BB#5:
	@DEBUG_VALUE: read_touch:z1 <- %R7
	@DEBUG_VALUE: read_touch:y <- %R8
	@DEBUG_VALUE: command:this <- %R6
	@DEBUG_VALUE: read_touch:x <- %R9
	@DEBUG_VALUE: read_touch:this <- %R6
	.loc	25 100 3                @ /root/Bela/projects/board_6/Adafruit_TSC2007.cpp:100:3
	mov	r0, #500
	bl	_Z17delayMicrosecondsj
.Ltmp101:
	.loc	25 102 8                @ /root/Bela/projects/board_6/Adafruit_TSC2007.cpp:102:8
	ldr	r0, [r6]
	add	r1, sp, #3
	.loc	25 102 17 is_stmt 0     @ /root/Bela/projects/board_6/Adafruit_TSC2007.cpp:102:17
	mov	r2, #2
	bl	_ZN18Adafruit_I2CDevice4readEPhj
.Ltmp102:
	.loc	25 102 7                @ /root/Bela/projects/board_6/Adafruit_TSC2007.cpp:102:7
	cmp	r0, #1
.Ltmp103:
	@DEBUG_VALUE: command:this <- %R6
	.loc	25 123 8 is_stmt 1      @ /root/Bela/projects/board_6/Adafruit_TSC2007.cpp:123:8
	mov	r5, #0
.Ltmp104:
	.loc	25 106 39               @ /root/Bela/projects/board_6/Adafruit_TSC2007.cpp:106:39
	ldrbeq	r1, [sp, #4]
	.loc	25 106 11 is_stmt 0     @ /root/Bela/projects/board_6/Adafruit_TSC2007.cpp:106:11
	ldrbeq	r0, [sp, #3]
	.loc	25 106 48               @ /root/Bela/projects/board_6/Adafruit_TSC2007.cpp:106:48
	lsreq	r1, r1, #4
	.loc	25 106 36               @ /root/Bela/projects/board_6/Adafruit_TSC2007.cpp:106:36
	orreq	r5, r1, r0, lsl #4
.Ltmp105:
.LBB4_6:                                @ %_ZN16Adafruit_TSC20077commandE25adafruit_tsc2007_function22adafruit_tsc2007_power27adafruit_tsc2007_resolution.exit25
	@DEBUG_VALUE: read_touch:z1 <- %R7
	@DEBUG_VALUE: read_touch:y <- %R8
	@DEBUG_VALUE: command:this <- %R6
	@DEBUG_VALUE: read_touch:x <- %R9
	@DEBUG_VALUE: read_touch:this <- %R6
	.loc	25 91 7 is_stmt 1       @ /root/Bela/projects/board_6/Adafruit_TSC2007.cpp:91:7
	mov	r0, #212
.Ltmp106:
	@DEBUG_VALUE: command:cmd <- -44
	add	r1, sp, #8
.Ltmp107:
	@DEBUG_VALUE: command:cmd <- [%R1+0]
	@DEBUG_VALUE: command:res <- 0
	@DEBUG_VALUE: command:pwr <- 1
	@DEBUG_VALUE: command:func <- 13
	strb	r0, [sp, #8]
.Ltmp108:
	.loc	25 95 17                @ /root/Bela/projects/board_6/Adafruit_TSC2007.cpp:95:17
	mov	r2, #1
	.loc	25 95 8 is_stmt 0       @ /root/Bela/projects/board_6/Adafruit_TSC2007.cpp:95:8
	ldr	r0, [r6]
	.loc	25 95 17                @ /root/Bela/projects/board_6/Adafruit_TSC2007.cpp:95:17
	bl	_ZN18Adafruit_I2CDevice5writeEPhj
.Ltmp109:
	.loc	25 95 7                 @ /root/Bela/projects/board_6/Adafruit_TSC2007.cpp:95:7
	cmp	r0, #1
	bne	.LBB4_8
.Ltmp110:
@ BB#7:
	@DEBUG_VALUE: read_touch:z1 <- %R7
	@DEBUG_VALUE: read_touch:y <- %R8
	@DEBUG_VALUE: command:this <- %R6
	@DEBUG_VALUE: read_touch:x <- %R9
	@DEBUG_VALUE: read_touch:this <- %R6
	.loc	25 100 3 is_stmt 1      @ /root/Bela/projects/board_6/Adafruit_TSC2007.cpp:100:3
	mov	r0, #500
	bl	_Z17delayMicrosecondsj
.Ltmp111:
	.loc	25 102 8                @ /root/Bela/projects/board_6/Adafruit_TSC2007.cpp:102:8
	ldr	r0, [r6]
	add	r1, sp, #3
	.loc	25 102 17 is_stmt 0     @ /root/Bela/projects/board_6/Adafruit_TSC2007.cpp:102:17
	mov	r2, #2
	bl	_ZN18Adafruit_I2CDevice4readEPhj
.Ltmp112:
	.loc	25 102 7                @ /root/Bela/projects/board_6/Adafruit_TSC2007.cpp:102:7
	cmp	r0, #1
.Ltmp113:
	@DEBUG_VALUE: command:this <- %R6
	.loc	25 106 39 is_stmt 1     @ /root/Bela/projects/board_6/Adafruit_TSC2007.cpp:106:39
	ldrbeq	r1, [sp, #4]
	.loc	25 106 11 is_stmt 0     @ /root/Bela/projects/board_6/Adafruit_TSC2007.cpp:106:11
	ldrbeq	r0, [sp, #3]
	.loc	25 106 48               @ /root/Bela/projects/board_6/Adafruit_TSC2007.cpp:106:48
	lsreq	r1, r1, #4
	.loc	25 106 36               @ /root/Bela/projects/board_6/Adafruit_TSC2007.cpp:106:36
	orreq	r10, r1, r0, lsl #4
.Ltmp114:
.LBB4_8:                                @ %_ZN16Adafruit_TSC20077commandE25adafruit_tsc2007_function22adafruit_tsc2007_power27adafruit_tsc2007_resolution.exit27
	@DEBUG_VALUE: read_touch:z1 <- %R7
	@DEBUG_VALUE: read_touch:y <- %R8
	@DEBUG_VALUE: command:this <- %R6
	@DEBUG_VALUE: read_touch:x <- %R9
	@DEBUG_VALUE: read_touch:this <- %R6
	.loc	25 91 7 is_stmt 1       @ /root/Bela/projects/board_6/Adafruit_TSC2007.cpp:91:7
	mov	r0, #196
.Ltmp115:
	@DEBUG_VALUE: command:cmd <- -60
	add	r1, sp, #9
.Ltmp116:
	@DEBUG_VALUE: command:cmd <- [%R1+0]
	@DEBUG_VALUE: command:res <- 0
	@DEBUG_VALUE: command:pwr <- 1
	@DEBUG_VALUE: command:func <- 12
	strb	r0, [sp, #9]
.Ltmp117:
	.loc	25 95 17                @ /root/Bela/projects/board_6/Adafruit_TSC2007.cpp:95:17
	mov	r2, #1
	.loc	25 95 8 is_stmt 0       @ /root/Bela/projects/board_6/Adafruit_TSC2007.cpp:95:8
	ldr	r0, [r6]
	.loc	25 95 17                @ /root/Bela/projects/board_6/Adafruit_TSC2007.cpp:95:17
	bl	_ZN18Adafruit_I2CDevice5writeEPhj
.Ltmp118:
	mov	r4, #0
	mov	r7, #0
.Ltmp119:
	.loc	25 95 7                 @ /root/Bela/projects/board_6/Adafruit_TSC2007.cpp:95:7
	cmp	r0, #1
	bne	.LBB4_10
.Ltmp120:
@ BB#9:
	@DEBUG_VALUE: read_touch:y <- %R8
	@DEBUG_VALUE: command:this <- %R6
	@DEBUG_VALUE: read_touch:x <- %R9
	@DEBUG_VALUE: read_touch:this <- %R6
	.loc	25 100 3 is_stmt 1      @ /root/Bela/projects/board_6/Adafruit_TSC2007.cpp:100:3
	mov	r0, #500
	bl	_Z17delayMicrosecondsj
.Ltmp121:
	.loc	25 102 8                @ /root/Bela/projects/board_6/Adafruit_TSC2007.cpp:102:8
	ldr	r0, [r6]
	add	r1, sp, #3
	.loc	25 102 17 is_stmt 0     @ /root/Bela/projects/board_6/Adafruit_TSC2007.cpp:102:17
	mov	r2, #2
	bl	_ZN18Adafruit_I2CDevice4readEPhj
.Ltmp122:
	.loc	25 102 7                @ /root/Bela/projects/board_6/Adafruit_TSC2007.cpp:102:7
	cmp	r0, #1
.Ltmp123:
	@DEBUG_VALUE: command:this <- %R6
	mov	r7, #0
	.loc	25 106 39 is_stmt 1     @ /root/Bela/projects/board_6/Adafruit_TSC2007.cpp:106:39
	ldrbeq	r1, [sp, #4]
	.loc	25 106 11 is_stmt 0     @ /root/Bela/projects/board_6/Adafruit_TSC2007.cpp:106:11
	ldrbeq	r0, [sp, #3]
	.loc	25 106 48               @ /root/Bela/projects/board_6/Adafruit_TSC2007.cpp:106:48
	lsreq	r1, r1, #4
	.loc	25 106 36               @ /root/Bela/projects/board_6/Adafruit_TSC2007.cpp:106:36
	orreq	r7, r1, r0, lsl #4
.Ltmp124:
.LBB4_10:                               @ %_ZN16Adafruit_TSC20077commandE25adafruit_tsc2007_function22adafruit_tsc2007_power27adafruit_tsc2007_resolution.exit29
	@DEBUG_VALUE: read_touch:y <- %R8
	@DEBUG_VALUE: command:this <- %R6
	@DEBUG_VALUE: read_touch:x <- %R9
	@DEBUG_VALUE: read_touch:this <- %R6
	.loc	25 91 7 is_stmt 1       @ /root/Bela/projects/board_6/Adafruit_TSC2007.cpp:91:7
	mov	r0, #212
.Ltmp125:
	@DEBUG_VALUE: command:cmd <- -44
	add	r1, sp, #10
.Ltmp126:
	@DEBUG_VALUE: command:cmd <- [%R1+0]
	@DEBUG_VALUE: command:res <- 0
	@DEBUG_VALUE: command:pwr <- 1
	@DEBUG_VALUE: command:func <- 13
	strb	r0, [sp, #10]
.Ltmp127:
	.loc	25 95 17                @ /root/Bela/projects/board_6/Adafruit_TSC2007.cpp:95:17
	mov	r2, #1
	.loc	25 95 8 is_stmt 0       @ /root/Bela/projects/board_6/Adafruit_TSC2007.cpp:95:8
	ldr	r0, [r6]
	.loc	25 95 17                @ /root/Bela/projects/board_6/Adafruit_TSC2007.cpp:95:17
	bl	_ZN18Adafruit_I2CDevice5writeEPhj
.Ltmp128:
	.loc	25 95 7                 @ /root/Bela/projects/board_6/Adafruit_TSC2007.cpp:95:7
	cmp	r0, #1
	bne	.LBB4_12
.Ltmp129:
@ BB#11:
	@DEBUG_VALUE: read_touch:y <- %R8
	@DEBUG_VALUE: command:this <- %R6
	@DEBUG_VALUE: read_touch:x <- %R9
	@DEBUG_VALUE: read_touch:this <- %R6
	.loc	25 100 3 is_stmt 1      @ /root/Bela/projects/board_6/Adafruit_TSC2007.cpp:100:3
	mov	r0, #500
	bl	_Z17delayMicrosecondsj
.Ltmp130:
	.loc	25 102 8                @ /root/Bela/projects/board_6/Adafruit_TSC2007.cpp:102:8
	ldr	r0, [r6]
	add	r1, sp, #3
	.loc	25 102 17 is_stmt 0     @ /root/Bela/projects/board_6/Adafruit_TSC2007.cpp:102:17
	mov	r2, #2
	bl	_ZN18Adafruit_I2CDevice4readEPhj
.Ltmp131:
	.loc	25 102 7                @ /root/Bela/projects/board_6/Adafruit_TSC2007.cpp:102:7
	cmp	r0, #1
.Ltmp132:
	@DEBUG_VALUE: command:this <- %R6
	.loc	25 106 39 is_stmt 1     @ /root/Bela/projects/board_6/Adafruit_TSC2007.cpp:106:39
	ldrbeq	r1, [sp, #4]
	.loc	25 106 11 is_stmt 0     @ /root/Bela/projects/board_6/Adafruit_TSC2007.cpp:106:11
	ldrbeq	r0, [sp, #3]
	.loc	25 106 48               @ /root/Bela/projects/board_6/Adafruit_TSC2007.cpp:106:48
	lsreq	r1, r1, #4
	.loc	25 106 36               @ /root/Bela/projects/board_6/Adafruit_TSC2007.cpp:106:36
	orreq	r4, r1, r0, lsl #4
.Ltmp133:
.LBB4_12:                               @ %_ZN16Adafruit_TSC20077commandE25adafruit_tsc2007_function22adafruit_tsc2007_power27adafruit_tsc2007_resolution.exit31
	@DEBUG_VALUE: read_touch:y <- %R8
	@DEBUG_VALUE: command:this <- %R6
	@DEBUG_VALUE: read_touch:x <- %R9
	@DEBUG_VALUE: read_touch:this <- %R6
	.loc	25 91 7 is_stmt 1       @ /root/Bela/projects/board_6/Adafruit_TSC2007.cpp:91:7
	mov	r0, #0
.Ltmp134:
	@DEBUG_VALUE: command:cmd <- 0
	add	r1, sp, #11
.Ltmp135:
	@DEBUG_VALUE: command:cmd <- [%R1+0]
	@DEBUG_VALUE: command:res <- 0
	@DEBUG_VALUE: command:pwr <- 0
	@DEBUG_VALUE: command:func <- 0
	strb	r0, [sp, #11]
.Ltmp136:
	.loc	25 95 17                @ /root/Bela/projects/board_6/Adafruit_TSC2007.cpp:95:17
	mov	r2, #1
	.loc	25 95 8 is_stmt 0       @ /root/Bela/projects/board_6/Adafruit_TSC2007.cpp:95:8
	ldr	r0, [r6]
	.loc	25 95 17                @ /root/Bela/projects/board_6/Adafruit_TSC2007.cpp:95:17
	bl	_ZN18Adafruit_I2CDevice5writeEPhj
.Ltmp137:
	.loc	25 95 7                 @ /root/Bela/projects/board_6/Adafruit_TSC2007.cpp:95:7
	cmp	r0, #1
	bne	.LBB4_14
.Ltmp138:
@ BB#13:
	@DEBUG_VALUE: read_touch:y <- %R8
	@DEBUG_VALUE: command:this <- %R6
	@DEBUG_VALUE: read_touch:x <- %R9
	@DEBUG_VALUE: read_touch:this <- %R6
	.loc	25 100 3 is_stmt 1      @ /root/Bela/projects/board_6/Adafruit_TSC2007.cpp:100:3
	mov	r0, #500
	bl	_Z17delayMicrosecondsj
.Ltmp139:
	.loc	25 102 8                @ /root/Bela/projects/board_6/Adafruit_TSC2007.cpp:102:8
	ldr	r0, [r6]
	add	r1, sp, #3
	.loc	25 102 17 is_stmt 0     @ /root/Bela/projects/board_6/Adafruit_TSC2007.cpp:102:17
	mov	r2, #2
	bl	_ZN18Adafruit_I2CDevice4readEPhj
.Ltmp140:
	@DEBUG_VALUE: command:this <- %R6
.LBB4_14:                               @ %_ZN16Adafruit_TSC20077commandE25adafruit_tsc2007_function22adafruit_tsc2007_power27adafruit_tsc2007_resolution.exit33
	@DEBUG_VALUE: read_touch:y <- %R8
	@DEBUG_VALUE: command:this <- %R6
	@DEBUG_VALUE: read_touch:x <- %R9
	@DEBUG_VALUE: read_touch:this <- %R6
	.loc	25 130 20 is_stmt 1     @ /root/Bela/projects/board_6/Adafruit_TSC2007.cpp:130:20
	uxth	r0, r5
	.loc	25 130 23 is_stmt 0     @ /root/Bela/projects/board_6/Adafruit_TSC2007.cpp:130:23
	subs	r1, r0, r7
	rsbmi	r1, r1, #0
	mov	r0, #0
.Ltmp141:
	.loc	25 130 7                @ /root/Bela/projects/board_6/Adafruit_TSC2007.cpp:130:7
	cmp	r1, #100
	bgt	.LBB4_17
.Ltmp142:
@ BB#15:
	@DEBUG_VALUE: read_touch:y <- %R8
	@DEBUG_VALUE: command:this <- %R6
	@DEBUG_VALUE: read_touch:x <- %R9
	@DEBUG_VALUE: read_touch:this <- %R6
	.loc	25 132 20 is_stmt 1     @ /root/Bela/projects/board_6/Adafruit_TSC2007.cpp:132:20
	uxth	r1, r10
	.loc	25 132 23 is_stmt 0     @ /root/Bela/projects/board_6/Adafruit_TSC2007.cpp:132:23
	subs	r2, r1, r4
	rsbmi	r2, r2, #0
.Ltmp143:
	.loc	25 132 7                @ /root/Bela/projects/board_6/Adafruit_TSC2007.cpp:132:7
	cmp	r2, #100
	bgt	.LBB4_17
.Ltmp144:
@ BB#16:
	@DEBUG_VALUE: read_touch:y <- %R8
	@DEBUG_VALUE: command:this <- %R6
	@DEBUG_VALUE: read_touch:x <- %R9
	@DEBUG_VALUE: read_touch:this <- %R6
	.loc	25 135 6 is_stmt 1      @ /root/Bela/projects/board_6/Adafruit_TSC2007.cpp:135:6
	strh	r5, [r9]
	.loc	25 137 30 discriminator 1 @ /root/Bela/projects/board_6/Adafruit_TSC2007.cpp:137:30
	movw	r3, #4095
	.loc	25 136 6                @ /root/Bela/projects/board_6/Adafruit_TSC2007.cpp:136:6
	strh	r10, [r8]
	.loc	25 137 30 discriminator 1 @ /root/Bela/projects/board_6/Adafruit_TSC2007.cpp:137:30
	cmp	r1, r3
	.loc	25 137 11 is_stmt 0     @ /root/Bela/projects/board_6/Adafruit_TSC2007.cpp:137:11
	ldrh	r2, [r9]
	.loc	25 137 30 discriminator 1 @ /root/Bela/projects/board_6/Adafruit_TSC2007.cpp:137:30
	mov	r1, #0
	movwne	r1, #1
	mov	r0, #0
	.loc	25 137 23               @ /root/Bela/projects/board_6/Adafruit_TSC2007.cpp:137:23
	cmp	r2, r3
	movwne	r0, #1
	and	r0, r1, r0
.Ltmp145:
.LBB4_17:
	@DEBUG_VALUE: read_touch:y <- %R8
	@DEBUG_VALUE: command:this <- %R6
	@DEBUG_VALUE: read_touch:x <- %R9
	@DEBUG_VALUE: read_touch:this <- %R6
	.loc	25 138 1 is_stmt 1      @ /root/Bela/projects/board_6/Adafruit_TSC2007.cpp:138:1
	sub	sp, r11, #28
	pop	{r4, r5, r6, r7, r8, r9, r10, r11, pc}
.Ltmp146:
.Lfunc_end4:
	.size	_ZN16Adafruit_TSC200710read_touchEPtS0_S0_S0_, .Lfunc_end4-_ZN16Adafruit_TSC200710read_touchEPtS0_S0_S0_
	.cfi_endproc
	.fnend

	.globl	_ZN16Adafruit_TSC20078getPointEv
	.p2align	2
	.type	_ZN16Adafruit_TSC20078getPointEv,%function
_ZN16Adafruit_TSC20078getPointEv:       @ @_ZN16Adafruit_TSC20078getPointEv
.Lfunc_begin5:
	.loc	25 144 0                @ /root/Bela/projects/board_6/Adafruit_TSC2007.cpp:144:0
	.fnstart
	.cfi_startproc
@ BB#0:
	.save	{r4, r10, r11, lr}
	push	{r4, r10, r11, lr}
.Ltmp147:
	.cfi_def_cfa_offset 16
.Ltmp148:
	.cfi_offset lr, -4
.Ltmp149:
	.cfi_offset r11, -8
.Ltmp150:
	.cfi_offset r10, -12
.Ltmp151:
	.cfi_offset r4, -16
	.setfp	r11, sp, #8
	add	r11, sp, #8
.Ltmp152:
	.cfi_def_cfa r11, 8
	.pad	#16
	sub	sp, sp, #16
	@DEBUG_VALUE: getPoint:this <- %R1
	sub	r12, r11, #10
.Ltmp153:
	@DEBUG_VALUE: getPoint:x <- [%R12+0]
	mov	r4, r0
	add	r0, sp, #8
.Ltmp154:
	@DEBUG_VALUE: getPoint:z2 <- [%R0+0]
	add	r2, sp, #12
.Ltmp155:
	@DEBUG_VALUE: getPoint:y <- [%R2+0]
	add	r3, sp, #10
.Ltmp156:
	@DEBUG_VALUE: getPoint:z1 <- [%R3+0]
	.loc	25 147 14 prologue_end  @ /root/Bela/projects/board_6/Adafruit_TSC2007.cpp:147:14
	str	r0, [sp]
	mov	r0, r1
.Ltmp157:
	@DEBUG_VALUE: getPoint:this <- %R0
	mov	r1, r12
	bl	_ZN16Adafruit_TSC200710read_touchEPtS0_S0_S0_
.Ltmp158:
	.loc	25 147 7 is_stmt 0      @ /root/Bela/projects/board_6/Adafruit_TSC2007.cpp:147:7
	cmp	r0, #1
	mov	r1, #0
	mov	r2, #0
	mov	r0, #0
	.loc	25 150 19 is_stmt 1     @ /root/Bela/projects/board_6/Adafruit_TSC2007.cpp:150:19
	ldrheq	r1, [r11, #-10]
	.loc	25 150 25 is_stmt 0     @ /root/Bela/projects/board_6/Adafruit_TSC2007.cpp:150:25
	ldrheq	r0, [sp, #10]
	.loc	25 150 22               @ /root/Bela/projects/board_6/Adafruit_TSC2007.cpp:150:22
	ldrheq	r2, [sp, #12]
.Ltmp159:
	.loc	25 168 5 is_stmt 1      @ /root/Bela/projects/board_6/Adafruit_TSC2007.cpp:168:5
	strh	r1, [r4]
.Ltmp160:
	@DEBUG_VALUE: TS_Point:this <- %R4
	.loc	25 169 5                @ /root/Bela/projects/board_6/Adafruit_TSC2007.cpp:169:5
	strh	r2, [r4, #2]
	.loc	25 170 5                @ /root/Bela/projects/board_6/Adafruit_TSC2007.cpp:170:5
	strh	r0, [r4, #4]
.Ltmp161:
	.loc	25 151 1                @ /root/Bela/projects/board_6/Adafruit_TSC2007.cpp:151:1
	sub	sp, r11, #8
	pop	{r4, r10, r11, pc}
.Ltmp162:
.Lfunc_end5:
	.size	_ZN16Adafruit_TSC20078getPointEv, .Lfunc_end5-_ZN16Adafruit_TSC20078getPointEv
	.cfi_endproc
	.fnend

	.globl	_ZN8TS_PointC2Ev
	.p2align	2
	.type	_ZN8TS_PointC2Ev,%function
_ZN8TS_PointC2Ev:                       @ @_ZN8TS_PointC2Ev
.Lfunc_begin6:
	.loc	25 156 0                @ /root/Bela/projects/board_6/Adafruit_TSC2007.cpp:156:0
	.fnstart
	.cfi_startproc
@ BB#0:
	@DEBUG_VALUE: TS_Point:this <- %R0
	mov	r1, #0
.Ltmp163:
	.loc	25 156 26 prologue_end  @ /root/Bela/projects/board_6/Adafruit_TSC2007.cpp:156:26
	str	r1, [r0]
.Ltmp164:
	.loc	25 156 35 is_stmt 0     @ /root/Bela/projects/board_6/Adafruit_TSC2007.cpp:156:35
	bx	lr
.Ltmp165:
.Lfunc_end6:
	.size	_ZN8TS_PointC2Ev, .Lfunc_end6-_ZN8TS_PointC2Ev
	.cfi_endproc
	.fnend

	.globl	_ZN8TS_PointC2Esss
	.p2align	2
	.type	_ZN8TS_PointC2Esss,%function
_ZN8TS_PointC2Esss:                     @ @_ZN8TS_PointC2Esss
.Lfunc_begin7:
	.loc	25 167 0 is_stmt 1      @ /root/Bela/projects/board_6/Adafruit_TSC2007.cpp:167:0
	.fnstart
	.cfi_startproc
@ BB#0:
	@DEBUG_VALUE: TS_Point:this <- %R0
	@DEBUG_VALUE: TS_Point:x0 <- %R1
	@DEBUG_VALUE: TS_Point:y0 <- %R2
	@DEBUG_VALUE: TS_Point:z0 <- %R3
	.loc	25 168 5 prologue_end   @ /root/Bela/projects/board_6/Adafruit_TSC2007.cpp:168:5
	strh	r1, [r0]
	.loc	25 169 5                @ /root/Bela/projects/board_6/Adafruit_TSC2007.cpp:169:5
	strh	r2, [r0, #2]
	.loc	25 170 5                @ /root/Bela/projects/board_6/Adafruit_TSC2007.cpp:170:5
	strh	r3, [r0, #4]
.Ltmp166:
	.loc	25 171 1                @ /root/Bela/projects/board_6/Adafruit_TSC2007.cpp:171:1
	bx	lr
.Ltmp167:
.Lfunc_end7:
	.size	_ZN8TS_PointC2Esss, .Lfunc_end7-_ZN8TS_PointC2Esss
	.cfi_endproc
	.fnend

	.globl	_ZN8TS_PointeqES_
	.p2align	2
	.type	_ZN8TS_PointeqES_,%function
_ZN8TS_PointeqES_:                      @ @_ZN8TS_PointeqES_
.Lfunc_begin8:
	.loc	25 177 0                @ /root/Bela/projects/board_6/Adafruit_TSC2007.cpp:177:0
	.fnstart
	.cfi_startproc
@ BB#0:
	.save	{r11, lr}
	push	{r11, lr}
.Ltmp168:
	.cfi_def_cfa_offset 8
.Ltmp169:
	.cfi_offset lr, -4
.Ltmp170:
	.cfi_offset r11, -8
	@DEBUG_VALUE: operator==:this <- %R0
	mov	lr, r0
.Ltmp171:
	@DEBUG_VALUE: operator==:this <- %LR
	.loc	25 178 12 prologue_end  @ /root/Bela/projects/board_6/Adafruit_TSC2007.cpp:178:12
	sxth	r3, r1
	.loc	25 178 20 is_stmt 0     @ /root/Bela/projects/board_6/Adafruit_TSC2007.cpp:178:20
	ldrsh	r12, [lr]
	mov	r0, #0
	@DEBUG_VALUE: operator==:p1 [bit_piece offset=0 size=32] <- %R1
	.loc	25 178 23               @ /root/Bela/projects/board_6/Adafruit_TSC2007.cpp:178:23
	cmp	r3, r12
	.loc	25 178 35 discriminator 1 @ /root/Bela/projects/board_6/Adafruit_TSC2007.cpp:178:35
	ldrsheq	r3, [lr, #2]
	.loc	25 178 38 discriminator 1 @ /root/Bela/projects/board_6/Adafruit_TSC2007.cpp:178:38
	cmpeq	r3, r1, asr #16
	bne	.LBB8_2
.Ltmp172:
@ BB#1:
	@DEBUG_VALUE: operator==:p1 [bit_piece offset=0 size=32] <- %R1
	@DEBUG_VALUE: operator==:this <- %LR
	.loc	25 178 50 discriminator 2 @ /root/Bela/projects/board_6/Adafruit_TSC2007.cpp:178:50
	ldrsh	r1, [lr, #4]
.Ltmp173:
	.loc	25 178 42 discriminator 2 @ /root/Bela/projects/board_6/Adafruit_TSC2007.cpp:178:42
	sxth	r2, r2
	.loc	25 178 47 discriminator 2 @ /root/Bela/projects/board_6/Adafruit_TSC2007.cpp:178:47
	mov	r0, #0
	cmp	r2, r1
	movweq	r0, #1
.Ltmp174:
.LBB8_2:
	@DEBUG_VALUE: operator==:this <- %LR
	.loc	25 178 3 discriminator 3 @ /root/Bela/projects/board_6/Adafruit_TSC2007.cpp:178:3
	pop	{r11, pc}
.Ltmp175:
.Lfunc_end8:
	.size	_ZN8TS_PointeqES_, .Lfunc_end8-_ZN8TS_PointeqES_
	.cfi_endproc
	.fnend

	.globl	_ZN8TS_PointneES_
	.p2align	2
	.type	_ZN8TS_PointneES_,%function
_ZN8TS_PointneES_:                      @ @_ZN8TS_PointneES_
.Lfunc_begin9:
	.loc	25 185 0 is_stmt 1      @ /root/Bela/projects/board_6/Adafruit_TSC2007.cpp:185:0
	.fnstart
	.cfi_startproc
@ BB#0:
	.save	{r11, lr}
	push	{r11, lr}
.Ltmp176:
	.cfi_def_cfa_offset 8
.Ltmp177:
	.cfi_offset lr, -4
.Ltmp178:
	.cfi_offset r11, -8
	@DEBUG_VALUE: operator!=:this <- %R0
	mov	lr, r0
.Ltmp179:
	@DEBUG_VALUE: operator!=:this <- %LR
	.loc	25 186 12 prologue_end  @ /root/Bela/projects/board_6/Adafruit_TSC2007.cpp:186:12
	sxth	r3, r1
	.loc	25 186 20 is_stmt 0     @ /root/Bela/projects/board_6/Adafruit_TSC2007.cpp:186:20
	ldrsh	r12, [lr]
	mov	r0, #1
	@DEBUG_VALUE: operator!=:p1 [bit_piece offset=0 size=32] <- %R1
	.loc	25 186 23               @ /root/Bela/projects/board_6/Adafruit_TSC2007.cpp:186:23
	cmp	r3, r12
	.loc	25 186 35 discriminator 1 @ /root/Bela/projects/board_6/Adafruit_TSC2007.cpp:186:35
	ldrsheq	r3, [lr, #2]
	.loc	25 186 38 discriminator 1 @ /root/Bela/projects/board_6/Adafruit_TSC2007.cpp:186:38
	cmpeq	r3, r1, asr #16
	bne	.LBB9_2
.Ltmp180:
@ BB#1:
	@DEBUG_VALUE: operator!=:p1 [bit_piece offset=0 size=32] <- %R1
	@DEBUG_VALUE: operator!=:this <- %LR
	.loc	25 186 50 discriminator 2 @ /root/Bela/projects/board_6/Adafruit_TSC2007.cpp:186:50
	ldrsh	r1, [lr, #4]
.Ltmp181:
	.loc	25 186 42 discriminator 2 @ /root/Bela/projects/board_6/Adafruit_TSC2007.cpp:186:42
	sxth	r2, r2
	.loc	25 186 47 discriminator 2 @ /root/Bela/projects/board_6/Adafruit_TSC2007.cpp:186:47
	mov	r0, #0
	cmp	r2, r1
	movwne	r0, #1
.Ltmp182:
.LBB9_2:
	@DEBUG_VALUE: operator!=:this <- %LR
	.loc	25 186 3 discriminator 3 @ /root/Bela/projects/board_6/Adafruit_TSC2007.cpp:186:3
	pop	{r11, pc}
.Ltmp183:
.Lfunc_end9:
	.size	_ZN8TS_PointneES_, .Lfunc_end9-_ZN8TS_PointneES_
	.cfi_endproc
	.fnend

	.section	.text.startup,"ax",%progbits
	.p2align	2
	.type	_GLOBAL__sub_I_Adafruit_TSC2007.ii,%function
_GLOBAL__sub_I_Adafruit_TSC2007.ii:     @ @_GLOBAL__sub_I_Adafruit_TSC2007.ii
.Lfunc_begin10:
	.loc	12 0 0 is_stmt 1        @ /root/Bela/projects/board_6/build/Adafruit_TSC2007.cpp:0:0
	.fnstart
	.cfi_startproc
@ BB#0:
	.save	{r4, r10, r11, lr}
	push	{r4, r10, r11, lr}
.Ltmp184:
	.cfi_def_cfa_offset 16
.Ltmp185:
	.cfi_offset lr, -4
.Ltmp186:
	.cfi_offset r11, -8
.Ltmp187:
	.cfi_offset r10, -12
.Ltmp188:
	.cfi_offset r4, -16
	.setfp	r11, sp, #8
	add	r11, sp, #8
.Ltmp189:
	.cfi_def_cfa r11, 8
.Ltmp190:
	.loc	4 74 25 prologue_end    @ /usr/bin/../lib/gcc/arm-linux-gnueabihf/6.3.0/../../../../include/c++/6.3.0/iostream:74:25
	movw	r4, :lower16:_ZStL8__ioinit
	movt	r4, :upper16:_ZStL8__ioinit
	mov	r0, r4
	bl	_ZNSt8ios_base4InitC1Ev
	.loc	4 74 25 is_stmt 0 discriminator 1 @ /usr/bin/../lib/gcc/arm-linux-gnueabihf/6.3.0/../../../../include/c++/6.3.0/iostream:74:25
	movw	r0, :lower16:_ZNSt8ios_base4InitD1Ev
	movw	r2, :lower16:__dso_handle
	movt	r0, :upper16:_ZNSt8ios_base4InitD1Ev
	movt	r2, :upper16:__dso_handle
	mov	r1, r4
	pop	{r4, r10, r11, lr}
	b	__cxa_atexit
.Ltmp191:
.Lfunc_end10:
	.size	_GLOBAL__sub_I_Adafruit_TSC2007.ii, .Lfunc_end10-_GLOBAL__sub_I_Adafruit_TSC2007.ii
	.cfi_endproc
	.fnend

	.type	_ZStL8__ioinit,%object  @ @_ZStL8__ioinit
	.local	_ZStL8__ioinit
	.comm	_ZStL8__ioinit,1,1
	.section	.init_array,"aw",%init_array
	.p2align	2
	.long	_GLOBAL__sub_I_Adafruit_TSC2007.ii(target1)
	.section	".note.GNU-stack","",%progbits
	.eabi_attribute	30, 2	@ Tag_ABI_optimization_goals