	.text
	.syntax unified
	.eabi_attribute	67, "2.09"	@ Tag_conformance
	.cpu	cortex-a8
	.eabi_attribute	6, 10	@ Tag_CPU_arch
	.eabi_attribute	7, 65	@ Tag_CPU_arch_profile
	.eabi_attribute	8, 1	@ Tag_ARM_ISA_use
	.eabi_attribute	9, 2	@ Tag_THUMB_ISA_use
	.fpu	neon
	.eabi_attribute	17, 1	@ Tag_ABI_PCS_GOT_use
	.eabi_attribute	20, 2	@ Tag_ABI_FP_denormal
	.eabi_attribute	23, 1	@ Tag_ABI_FP_number_model
	.eabi_attribute	34, 1	@ Tag_CPU_unaligned_access
	.eabi_attribute	24, 1	@ Tag_ABI_align_needed
	.eabi_attribute	25, 1	@ Tag_ABI_align_preserved
	.eabi_attribute	28, 1	@ Tag_ABI_VFP_args
	.eabi_attribute	38, 1	@ Tag_ABI_FP_16bit_format
	.eabi_attribute	18, 4	@ Tag_ABI_PCS_wchar_t
	.eabi_attribute	26, 2	@ Tag_ABI_enum_size
	.eabi_attribute	14, 0	@ Tag_ABI_PCS_R9_use
	.eabi_attribute	68, 1	@ Tag_Virtualization_use
	.file	"/root/Bela/projects/board_6/build/Arduino.bc"
	.file	1 "/usr/bin/../lib/gcc/arm-linux-gnueabihf/6.3.0/../../../../include/arm-linux-gnueabihf/c++/6.3.0/bits" "c++config.h"
	.file	2 "/usr/bin/../lib/gcc/arm-linux-gnueabihf/6.3.0/../../../../include/arm-linux-gnueabihf/c++/6.3.0/bits" "atomic_word.h"
	.file	3 "/usr/bin/../lib/gcc/arm-linux-gnueabihf/6.3.0/../../../../include/c++/6.3.0/bits" "ios_base.h"
	.file	4 "/usr/bin/../lib/gcc/arm-linux-gnueabihf/6.3.0/../../../../include/c++/6.3.0" "iostream"
	.file	5 "/root/Bela/projects/board_6" "Arduino.h"
	.file	6 "/usr/include" "stdint.h"
	.file	7 "/root/Bela/projects/board_6" "Arduino.cpp"
	.file	8 "/usr/include/arm-linux-gnueabihf/bits" "types.h"
	.file	9 "/usr/include" "time.h"
	.file	10 "/usr/lib/llvm-3.9/bin/../lib/clang/3.9.1/include" "stddef.h"
	.file	11 "/root/Bela/projects/board_6" "BelaArduino.h"
	.file	12 "/root/Bela/projects/board_6" "BelaMsg.h"
	.file	13 "/usr/bin/../lib/gcc/arm-linux-gnueabihf/6.3.0/../../../../include/c++/6.3.0/bits" "stl_vector.h"
	.file	14 "/usr/bin/../lib/gcc/arm-linux-gnueabihf/6.3.0/../../../../include/c++/6.3.0/debug" "debug.h"
	.file	15 "/usr/include" "wchar.h"
	.file	16 "/usr/include" "libio.h"
	.file	17 "/usr/include" "stdio.h"
	.file	18 "/usr/lib/llvm-3.9/bin/../lib/clang/3.9.1/include" "stdarg.h"
	.file	19 "/usr/bin/../lib/gcc/arm-linux-gnueabihf/6.3.0/../../../../include/c++/6.3.0/bits" "exception_ptr.h"
	.file	20 "/usr/include" "locale.h"
	.file	21 "/usr/include" "ctype.h"
	.file	22 "/usr/include" "stdlib.h"
	.file	23 "/usr/include/arm-linux-gnueabihf/bits" "stdlib-float.h"
	.file	24 "/usr/include/arm-linux-gnueabihf/bits" "stdlib-bsearch.h"
	.file	25 "/usr/bin/../lib/gcc/arm-linux-gnueabihf/6.3.0/../../../../include/c++/6.3.0" "cstdlib"
	.file	26 "/usr/include" "_G_config.h"
	.file	27 "/usr/include/arm-linux-gnueabihf/bits" "stdio.h"
	.file	28 "/root/Bela/projects/board_6/build" "Arduino.cpp"
	.file	29 "/usr/include" "wctype.h"
	.globl	_Z6randomj
	.p2align	2
	.type	_Z6randomj,%function
_Z6randomj:                             @ @_Z6randomj
.Lfunc_begin0:
	.loc	7 8 0                   @ /root/Bela/projects/board_6/Arduino.cpp:8:0
	.fnstart
	.cfi_startproc
@ BB#0:
	.save	{r11, lr}
	push	{r11, lr}
.Ltmp0:
	.cfi_def_cfa_offset 8
.Ltmp1:
	.cfi_offset lr, -4
.Ltmp2:
	.cfi_offset r11, -8
	.setfp	r11, sp
	mov	r11, sp
.Ltmp3:
	.cfi_def_cfa_register r11
	.vsave	{d8}
	vpush	{d8}
.Ltmp4:
	.cfi_offset d8, -16
	@DEBUG_VALUE: random:max <- %R0
.Ltmp5:
	.loc	7 19 45 prologue_end    @ /root/Bela/projects/board_6/Arduino.cpp:19:45
	vmov	s0, r0
.Ltmp6:
	@DEBUG_VALUE: random:max <- %S0
	vcvt.f32.u32	d17, d0
.Ltmp7:
	@DEBUG_VALUE: random:max <- %R0
	@DEBUG_VALUE: random:min <- 0
	@DEBUG_VALUE: map:in_max <- 2.147484e+09
	@DEBUG_VALUE: map:in_min <- 0.000000e+00
	.file	30 "./include" "Utilities.h"
	.loc	30 73 22                @ ./include/Utilities.h:73:22
	vmov.i32	d16, #0x30000000
	vmul.f32	d8, d17, d16
.Ltmp8:
	.loc	7 18 17 discriminator 1 @ /root/Bela/projects/board_6/Arduino.cpp:18:17
	bl	rand
.Ltmp9:
	@DEBUG_VALUE: random:ran <- %R0
	.loc	7 19 13                 @ /root/Bela/projects/board_6/Arduino.cpp:19:13
	vmov	s0, r0
.Ltmp10:
	@DEBUG_VALUE: random:ran <- %S0
	vcvt.f32.u32	d16, d0
.Ltmp11:
	.loc	30 73 44                @ ./include/Utilities.h:73:44
	vmul.f32	d16, d8, d16
.Ltmp12:
	.loc	7 19 9                  @ /root/Bela/projects/board_6/Arduino.cpp:19:9
	vcvt.u32.f32	d0, d16
.Ltmp13:
	vmov	r0, s0
.Ltmp14:
	.loc	7 9 2                   @ /root/Bela/projects/board_6/Arduino.cpp:9:2
	vpop	{d8}
	pop	{r11, pc}
.Ltmp15:
.Lfunc_end0:
	.size	_Z6randomj, .Lfunc_end0-_Z6randomj
	.cfi_endproc
	.fnend

	.globl	_Z6randomjj
	.p2align	2
	.type	_Z6randomjj,%function
_Z6randomjj:                            @ @_Z6randomjj
.Lfunc_begin1:
	.loc	7 17 0                  @ /root/Bela/projects/board_6/Arduino.cpp:17:0
	.fnstart
	.cfi_startproc
@ BB#0:
	.save	{r11, lr}
	push	{r11, lr}
.Ltmp16:
	.cfi_def_cfa_offset 8
.Ltmp17:
	.cfi_offset lr, -4
.Ltmp18:
	.cfi_offset r11, -8
	.setfp	r11, sp
	mov	r11, sp
.Ltmp19:
	.cfi_def_cfa_register r11
	.vsave	{d8, d9, d10}
	vpush	{d8, d9, d10}
.Ltmp20:
	.cfi_offset d10, -16
.Ltmp21:
	.cfi_offset d9, -24
.Ltmp22:
	.cfi_offset d8, -32
	@DEBUG_VALUE: random:min <- %R0
	@DEBUG_VALUE: random:max <- %R1
.Ltmp23:
	.loc	7 19 40 prologue_end    @ /root/Bela/projects/board_6/Arduino.cpp:19:40
	vmov	s0, r0
.Ltmp24:
	@DEBUG_VALUE: random:min <- %S0
	vcvt.f32.u32	d9, d0
	.loc	7 19 45 is_stmt 0       @ /root/Bela/projects/board_6/Arduino.cpp:19:45
	vmov	s0, r1
.Ltmp25:
	@DEBUG_VALUE: random:max <- %S0
	vcvt.f32.u32	d16, d0
.Ltmp26:
	@DEBUG_VALUE: map:in_max <- 2.147484e+09
	@DEBUG_VALUE: map:in_min <- 0.000000e+00
	.loc	30 73 22 is_stmt 1      @ ./include/Utilities.h:73:22
	vmov.i32	d8, #0x30000000
	.loc	30 73 33 is_stmt 0      @ ./include/Utilities.h:73:33
	vsub.f32	d10, d16, d9
.Ltmp27:
	.loc	7 18 17 is_stmt 1 discriminator 1 @ /root/Bela/projects/board_6/Arduino.cpp:18:17
	bl	rand
.Ltmp28:
	@DEBUG_VALUE: random:ran <- %R0
	.loc	7 19 13                 @ /root/Bela/projects/board_6/Arduino.cpp:19:13
	vmov	s0, r0
.Ltmp29:
	@DEBUG_VALUE: random:ran <- %S0
	vcvt.f32.u32	d16, d0
.Ltmp30:
	.loc	30 73 22                @ ./include/Utilities.h:73:22
	vmul.f32	d17, d10, d8
	.loc	30 73 44 is_stmt 0      @ ./include/Utilities.h:73:44
	vmul.f32	d16, d17, d16
	.loc	30 73 64                @ ./include/Utilities.h:73:64
	vadd.f32	d16, d16, d9
.Ltmp31:
	.loc	7 19 9 is_stmt 1        @ /root/Bela/projects/board_6/Arduino.cpp:19:9
	vcvt.u32.f32	d0, d16
.Ltmp32:
	vmov	r0, s0
	.loc	7 19 2 is_stmt 0        @ /root/Bela/projects/board_6/Arduino.cpp:19:2
	vpop	{d8, d9, d10}
	pop	{r11, pc}
.Ltmp33:
.Lfunc_end1:
	.size	_Z6randomjj, .Lfunc_end1-_Z6randomjj
	.cfi_endproc
	.fnend

	.globl	_Z10randomSeedj
	.p2align	2
	.type	_Z10randomSeedj,%function
_Z10randomSeedj:                        @ @_Z10randomSeedj
.Lfunc_begin2:
	.loc	7 13 0 is_stmt 1        @ /root/Bela/projects/board_6/Arduino.cpp:13:0
	.fnstart
	.cfi_startproc
@ BB#0:
	@DEBUG_VALUE: randomSeed:s <- %R0
	.loc	7 14 2 prologue_end     @ /root/Bela/projects/board_6/Arduino.cpp:14:2
	b	srand
.Ltmp34:
.Lfunc_end2:
	.size	_Z10randomSeedj, .Lfunc_end2-_Z10randomSeedj
	.cfi_endproc
	.fnend

	.globl	_Z6millisv
	.p2align	3
	.type	_Z6millisv,%function
_Z6millisv:                             @ @_Z6millisv
.Lfunc_begin3:
	.loc	7 22 0                  @ /root/Bela/projects/board_6/Arduino.cpp:22:0
	.fnstart
	.cfi_startproc
@ BB#0:
	.save	{r11, lr}
	push	{r11, lr}
.Ltmp35:
	.cfi_def_cfa_offset 8
.Ltmp36:
	.cfi_offset lr, -4
.Ltmp37:
	.cfi_offset r11, -8
	.setfp	r11, sp
	mov	r11, sp
.Ltmp38:
	.cfi_def_cfa_register r11
	.pad	#8
	sub	sp, sp, #8
	mov	r1, sp
.Ltmp39:
	@DEBUG_VALUE: micros:tp <- [%R1+0]
	.loc	7 30 2 prologue_end     @ /root/Bela/projects/board_6/Arduino.cpp:30:2
	mov	r0, #4
	bl	clock_gettime
.Ltmp40:
	.loc	7 23 9                  @ /root/Bela/projects/board_6/Arduino.cpp:23:9
	movw	r0, :lower16:_ZZ6microsvE6inited
	movt	r0, :upper16:_ZZ6microsvE6inited
	ldrb	r1, [r0]
.Ltmp41:
	.loc	7 31 5                  @ /root/Bela/projects/board_6/Arduino.cpp:31:5
	cmp	r1, #0
	beq	.LBB3_2
@ BB#1:
	.loc	7 36 30                 @ /root/Bela/projects/board_6/Arduino.cpp:36:30
	movw	r2, :lower16:_ZZ6microsvE6startp
	.loc	7 36 14 is_stmt 0       @ /root/Bela/projects/board_6/Arduino.cpp:36:14
	ldm	sp, {r0, r1}
	.loc	7 36 30                 @ /root/Bela/projects/board_6/Arduino.cpp:36:30
	movt	r2, :upper16:_ZZ6microsvE6startp
	ldrd	r2, r3, [r2]
	.loc	7 36 62                 @ /root/Bela/projects/board_6/Arduino.cpp:36:62
	sub	r1, r1, r3
	.loc	7 36 80                 @ /root/Bela/projects/board_6/Arduino.cpp:36:80
	vldr	d17, .LCPI3_0
	.loc	7 36 50                 @ /root/Bela/projects/board_6/Arduino.cpp:36:50
	vmov	s0, r1
	.loc	7 36 38                 @ /root/Bela/projects/board_6/Arduino.cpp:36:38
	movw	r1, #16960
	.loc	7 36 21                 @ /root/Bela/projects/board_6/Arduino.cpp:36:21
	sub	r0, r0, r2
	.loc	7 36 38                 @ /root/Bela/projects/board_6/Arduino.cpp:36:38
	movt	r1, #15
	.loc	7 36 50                 @ /root/Bela/projects/board_6/Arduino.cpp:36:50
	vcvt.f64.s32	d16, s0
	.loc	7 36 38                 @ /root/Bela/projects/board_6/Arduino.cpp:36:38
	mul	r0, r0, r1
	.loc	7 36 80                 @ /root/Bela/projects/board_6/Arduino.cpp:36:80
	vmul.f64	d16, d16, d17
	.loc	7 36 10                 @ /root/Bela/projects/board_6/Arduino.cpp:36:10
	vmov	s0, r0
	.loc	7 36 2                  @ /root/Bela/projects/board_6/Arduino.cpp:36:2
	vldr	s2, .LCPI3_1
	.loc	7 36 10                 @ /root/Bela/projects/board_6/Arduino.cpp:36:10
	vcvt.f64.s32	d17, s0
	.loc	7 36 48                 @ /root/Bela/projects/board_6/Arduino.cpp:36:48
	vadd.f64	d16, d16, d17
	.loc	7 36 9                  @ /root/Bela/projects/board_6/Arduino.cpp:36:9
	vcvt.u32.f64	s0, d16
	.loc	7 36 2                  @ /root/Bela/projects/board_6/Arduino.cpp:36:2
	vcvt.f32.u32	d16, d0
	vmul.f32	d16, d16, d1
	vcvt.u32.f32	d0, d16
	vmov	r0, s0
.Ltmp42:
	.loc	7 23 2 is_stmt 1        @ /root/Bela/projects/board_6/Arduino.cpp:23:2
	mov	sp, r11
	pop	{r11, pc}
.LBB3_2:
	.loc	7 23 9 is_stmt 0        @ /root/Bela/projects/board_6/Arduino.cpp:23:9
	mov	r1, #1
.Ltmp43:
	.loc	7 33 10 is_stmt 1       @ /root/Bela/projects/board_6/Arduino.cpp:33:10
	movw	r2, :lower16:_ZZ6microsvE6startp
.Ltmp44:
	.loc	7 23 9                  @ /root/Bela/projects/board_6/Arduino.cpp:23:9
	strb	r1, [r0]
.Ltmp45:
	.loc	7 33 10                 @ /root/Bela/projects/board_6/Arduino.cpp:33:10
	movt	r2, :upper16:_ZZ6microsvE6startp
	ldm	sp, {r0, r1}
	strd	r0, r1, [r2]
	mov	r0, #0
.Ltmp46:
	.loc	7 23 2                  @ /root/Bela/projects/board_6/Arduino.cpp:23:2
	mov	sp, r11
	pop	{r11, pc}
.Ltmp47:
	.p2align	3
@ BB#3:
.LCPI3_0:
	.long	3539053052              @ double 0.001
	.long	1062232653
.LCPI3_1:
	.long	981668463               @ float 0.00100000005
.Lfunc_end3:
	.size	_Z6millisv, .Lfunc_end3-_Z6millisv
	.cfi_endproc
	.fnend

	.globl	_Z6microsv
	.p2align	3
	.type	_Z6microsv,%function
_Z6microsv:                             @ @_Z6microsv
.Lfunc_begin4:
	.loc	7 26 0                  @ /root/Bela/projects/board_6/Arduino.cpp:26:0
	.fnstart
	.cfi_startproc
@ BB#0:
	.save	{r11, lr}
	push	{r11, lr}
.Ltmp48:
	.cfi_def_cfa_offset 8
.Ltmp49:
	.cfi_offset lr, -4
.Ltmp50:
	.cfi_offset r11, -8
	.setfp	r11, sp
	mov	r11, sp
.Ltmp51:
	.cfi_def_cfa_register r11
	.pad	#8
	sub	sp, sp, #8
	mov	r1, sp
.Ltmp52:
	@DEBUG_VALUE: micros:tp <- [%R1+0]
	.loc	7 30 2 prologue_end     @ /root/Bela/projects/board_6/Arduino.cpp:30:2
	mov	r0, #4
	bl	clock_gettime
.Ltmp53:
	movw	r0, :lower16:_ZZ6microsvE6inited
	movt	r0, :upper16:_ZZ6microsvE6inited
	ldrb	r1, [r0]
	.loc	7 31 5                  @ /root/Bela/projects/board_6/Arduino.cpp:31:5
	cmp	r1, #0
	beq	.LBB4_2
@ BB#1:
	.loc	7 36 30                 @ /root/Bela/projects/board_6/Arduino.cpp:36:30
	movw	r2, :lower16:_ZZ6microsvE6startp
	.loc	7 36 14 is_stmt 0       @ /root/Bela/projects/board_6/Arduino.cpp:36:14
	ldm	sp, {r0, r1}
	.loc	7 36 30                 @ /root/Bela/projects/board_6/Arduino.cpp:36:30
	movt	r2, :upper16:_ZZ6microsvE6startp
	ldrd	r2, r3, [r2]
	.loc	7 36 62                 @ /root/Bela/projects/board_6/Arduino.cpp:36:62
	sub	r1, r1, r3
	.loc	7 36 80                 @ /root/Bela/projects/board_6/Arduino.cpp:36:80
	vldr	d17, .LCPI4_0
	.loc	7 36 50                 @ /root/Bela/projects/board_6/Arduino.cpp:36:50
	vmov	s0, r1
	.loc	7 36 38                 @ /root/Bela/projects/board_6/Arduino.cpp:36:38
	movw	r1, #16960
	.loc	7 36 21                 @ /root/Bela/projects/board_6/Arduino.cpp:36:21
	sub	r0, r0, r2
	.loc	7 36 38                 @ /root/Bela/projects/board_6/Arduino.cpp:36:38
	movt	r1, #15
	.loc	7 36 50                 @ /root/Bela/projects/board_6/Arduino.cpp:36:50
	vcvt.f64.s32	d16, s0
	.loc	7 36 38                 @ /root/Bela/projects/board_6/Arduino.cpp:36:38
	mul	r0, r0, r1
	.loc	7 36 80                 @ /root/Bela/projects/board_6/Arduino.cpp:36:80
	vmul.f64	d16, d16, d17
	.loc	7 36 10                 @ /root/Bela/projects/board_6/Arduino.cpp:36:10
	vmov	s0, r0
	vcvt.f64.s32	d17, s0
	.loc	7 36 48                 @ /root/Bela/projects/board_6/Arduino.cpp:36:48
	vadd.f64	d16, d16, d17
	.loc	7 36 9                  @ /root/Bela/projects/board_6/Arduino.cpp:36:9
	vcvt.u32.f64	s0, d16
	vmov	r0, s0
	.loc	7 37 1 is_stmt 1        @ /root/Bela/projects/board_6/Arduino.cpp:37:1
	mov	sp, r11
	pop	{r11, pc}
.LBB4_2:
	mov	r1, #1
.Ltmp54:
	.loc	7 33 10                 @ /root/Bela/projects/board_6/Arduino.cpp:33:10
	movw	r2, :lower16:_ZZ6microsvE6startp
	strb	r1, [r0]
	movt	r2, :upper16:_ZZ6microsvE6startp
	ldm	sp, {r0, r1}
	strd	r0, r1, [r2]
	mov	r0, #0
.Ltmp55:
	.loc	7 37 1                  @ /root/Bela/projects/board_6/Arduino.cpp:37:1
	mov	sp, r11
	pop	{r11, pc}
.Ltmp56:
	.p2align	3
@ BB#3:
.LCPI4_0:
	.long	3539053052              @ double 0.001
	.long	1062232653
.Lfunc_end4:
	.size	_Z6microsv, .Lfunc_end4-_Z6microsv
	.cfi_endproc
	.fnend

	.globl	_Z7pinModejj
	.p2align	2
	.type	_Z7pinModejj,%function
_Z7pinModejj:                           @ @_Z7pinModejj
.Lfunc_begin5:
	.loc	7 40 0                  @ /root/Bela/projects/board_6/Arduino.cpp:40:0
	.fnstart
	.cfi_startproc
@ BB#0:
	@DEBUG_VALUE: pinMode:channel <- %R0
	@DEBUG_VALUE: pinMode:mode <- %R1
	@DEBUG_VALUE: size:this <- %R3
	.loc	13 656 40 prologue_end  @ /usr/bin/../lib/gcc/arm-linux-gnueabihf/6.3.0/../../../../include/c++/6.3.0/bits/stl_vector.h:656:40
	movw	r3, :lower16:digital
.Ltmp57:
	movt	r3, :upper16:digital
	.loc	13 656 66 is_stmt 0     @ /usr/bin/../lib/gcc/arm-linux-gnueabihf/6.3.0/../../../../include/c++/6.3.0/bits/stl_vector.h:656:66
	ldm	r3, {r2, r3}
	.loc	13 656 50               @ /usr/bin/../lib/gcc/arm-linux-gnueabihf/6.3.0/../../../../include/c++/6.3.0/bits/stl_vector.h:656:50
	sub	r3, r3, r2
	asr	r3, r3, #3
.Ltmp58:
	.loc	7 41 5 is_stmt 1        @ /root/Bela/projects/board_6/Arduino.cpp:41:5
	cmp	r3, r0
	.loc	7 45 1                  @ /root/Bela/projects/board_6/Arduino.cpp:45:1
	bxls	lr
.Ltmp59:
	.loc	7 43 27                 @ /root/Bela/projects/board_6/Arduino.cpp:43:27
	cmp	r1, #0
.Ltmp60:
	@DEBUG_VALUE: operator[]:__n <- %R0
	movwne	r1, #1
.Ltmp61:
	.loc	7 43 25 is_stmt 0       @ /root/Bela/projects/board_6/Arduino.cpp:43:25
	str	r1, [r2, r0, lsl #3]
.Ltmp62:
	.loc	7 45 1 is_stmt 1        @ /root/Bela/projects/board_6/Arduino.cpp:45:1
	bx	lr
.Ltmp63:
.Lfunc_end5:
	.size	_Z7pinModejj, .Lfunc_end5-_Z7pinModejj
	.cfi_endproc
	.file	31 "/usr/bin/../lib/gcc/arm-linux-gnueabihf/6.3.0/../../../../include/c++/6.3.0/bits" "alloc_traits.h"
	.file	32 "/usr/bin/../lib/gcc/arm-linux-gnueabihf/6.3.0/../../../../include/c++/6.3.0/ext" "new_allocator.h"
	.file	33 "/usr/bin/../lib/gcc/arm-linux-gnueabihf/6.3.0/../../../../include/arm-linux-gnueabihf/c++/6.3.0/bits" "c++allocator.h"
	.file	34 "/usr/bin/../lib/gcc/arm-linux-gnueabihf/6.3.0/../../../../include/c++/6.3.0/bits" "allocator.h"
	.file	35 "/usr/bin/../lib/gcc/arm-linux-gnueabihf/6.3.0/../../../../include/c++/6.3.0/ext" "alloc_traits.h"
	.file	36 "/usr/bin/../lib/gcc/arm-linux-gnueabihf/6.3.0/../../../../include/c++/6.3.0" "type_traits"
	.fnend

	.globl	_Z12digitalWritejb
	.p2align	2
	.type	_Z12digitalWritejb,%function
_Z12digitalWritejb:                     @ @_Z12digitalWritejb
.Lfunc_begin6:
	.loc	7 48 0                  @ /root/Bela/projects/board_6/Arduino.cpp:48:0
	.fnstart
	.cfi_startproc
@ BB#0:
	@DEBUG_VALUE: digitalWrite:channel <- %R0
	@DEBUG_VALUE: digitalWrite:value [bit_piece offset=0 size=1] <- %R1
	@DEBUG_VALUE: size:this <- %R3
	.loc	13 656 40 prologue_end  @ /usr/bin/../lib/gcc/arm-linux-gnueabihf/6.3.0/../../../../include/c++/6.3.0/bits/stl_vector.h:656:40
	movw	r3, :lower16:digital
.Ltmp64:
	movt	r3, :upper16:digital
	.loc	13 656 66 is_stmt 0     @ /usr/bin/../lib/gcc/arm-linux-gnueabihf/6.3.0/../../../../include/c++/6.3.0/bits/stl_vector.h:656:66
	ldm	r3, {r2, r3}
	.loc	13 656 50               @ /usr/bin/../lib/gcc/arm-linux-gnueabihf/6.3.0/../../../../include/c++/6.3.0/bits/stl_vector.h:656:50
	sub	r3, r3, r2
	asr	r3, r3, #3
.Ltmp65:
	.loc	7 49 5 is_stmt 1        @ /root/Bela/projects/board_6/Arduino.cpp:49:5
	cmp	r3, r0
	@DEBUG_VALUE: digitalWrite:value [bit_piece offset=0 size=1] <- %R1
.Ltmp66:
	@DEBUG_VALUE: operator[]:__n <- %R0
	.loc	7 51 25                 @ /root/Bela/projects/board_6/Arduino.cpp:51:25
	movhi	r3, #1
	strhi	r3, [r2, r0, lsl #3]!
.Ltmp67:
	@DEBUG_VALUE: operator[]:__n <- %R0
	.loc	7 52 26                 @ /root/Bela/projects/board_6/Arduino.cpp:52:26
	strhhi	r1, [r2, #4]
.Ltmp68:
	.loc	7 54 1                  @ /root/Bela/projects/board_6/Arduino.cpp:54:1
	bx	lr
.Ltmp69:
.Lfunc_end6:
	.size	_Z12digitalWritejb, .Lfunc_end6-_Z12digitalWritejb
	.cfi_endproc
	.fnend

	.globl	_Z8pwmWritejf
	.p2align	2
	.type	_Z8pwmWritejf,%function
_Z8pwmWritejf:                          @ @_Z8pwmWritejf
.Lfunc_begin7:
	.loc	7 57 0                  @ /root/Bela/projects/board_6/Arduino.cpp:57:0
	.fnstart
	.cfi_startproc
@ BB#0:
	@DEBUG_VALUE: pwmWrite:channel <- %R0
	@DEBUG_VALUE: pwmWrite:value <- %S0
	.loc	13 656 40 prologue_end  @ /usr/bin/../lib/gcc/arm-linux-gnueabihf/6.3.0/../../../../include/c++/6.3.0/bits/stl_vector.h:656:40
	movw	r2, :lower16:digital
                                        @ kill: %S0<def> %S0<kill> %D0<def>
.Ltmp70:
	@DEBUG_VALUE: size:this <- %R2
	movt	r2, :upper16:digital
.Ltmp71:
	.loc	13 656 66 is_stmt 0     @ /usr/bin/../lib/gcc/arm-linux-gnueabihf/6.3.0/../../../../include/c++/6.3.0/bits/stl_vector.h:656:66
	ldm	r2, {r1, r2}
	.loc	13 656 50               @ /usr/bin/../lib/gcc/arm-linux-gnueabihf/6.3.0/../../../../include/c++/6.3.0/bits/stl_vector.h:656:50
	sub	r2, r2, r1
	asr	r2, r2, #3
.Ltmp72:
	.loc	7 58 5 is_stmt 1        @ /root/Bela/projects/board_6/Arduino.cpp:58:5
	cmp	r2, r0
	.loc	7 65 1                  @ /root/Bela/projects/board_6/Arduino.cpp:65:1
	bxls	lr
.Ltmp73:
	.loc	7 62 20                 @ /root/Bela/projects/board_6/Arduino.cpp:62:20
	vmov.f32	d1, #1.000000e+00
	mov	r2, #256
	.loc	7 60 25                 @ /root/Bela/projects/board_6/Arduino.cpp:60:25
	mov	r3, #2
.Ltmp74:
	@DEBUG_VALUE: operator[]:__n <- %R0
	str	r3, [r1, r0, lsl #3]
	.loc	7 62 25                 @ /root/Bela/projects/board_6/Arduino.cpp:62:25
	vcmpe.f32	s0, s2
	vmrs	APSR_nzcv, fpscr
	bge	.LBB7_2
.Ltmp75:
@ BB#1:
	@DEBUG_VALUE: operator[]:__n <- %R0
	@DEBUG_VALUE: pwmWrite:channel <- %R0
	.loc	7 61 29                 @ /root/Bela/projects/board_6/Arduino.cpp:61:29
	vldr	s2, .LCPI7_0
	vmul.f32	d16, d0, d1
	.loc	7 61 23 is_stmt 0       @ /root/Bela/projects/board_6/Arduino.cpp:61:23
	vcvt.u32.f32	d0, d16
	vmov	r2, s0
	.loc	7 62 14 is_stmt 1 discriminator 1 @ /root/Bela/projects/board_6/Arduino.cpp:62:14
	cmp	r2, #256
	movwhi	r2, #256
.Ltmp76:
.LBB7_2:
	@DEBUG_VALUE: operator[]:__n <- %R0
	@DEBUG_VALUE: pwmWrite:channel <- %R0
	@DEBUG_VALUE: operator[]:__n <- %R0
	.loc	7 63 20                 @ /root/Bela/projects/board_6/Arduino.cpp:63:20
	add	r0, r1, r0, lsl #3
.Ltmp77:
	.loc	7 63 26 is_stmt 0       @ /root/Bela/projects/board_6/Arduino.cpp:63:26
	strh	r2, [r0, #4]
.Ltmp78:
	.loc	7 65 1 is_stmt 1        @ /root/Bela/projects/board_6/Arduino.cpp:65:1
	bx	lr
.Ltmp79:
	.p2align	2
@ BB#3:
.LCPI7_0:
	.long	1132462080              @ float 256
.Lfunc_end7:
	.size	_Z8pwmWritejf, .Lfunc_end7-_Z8pwmWritejf
	.cfi_endproc
	.fnend

	.globl	_Z11digitalReadj
	.p2align	2
	.type	_Z11digitalReadj,%function
_Z11digitalReadj:                       @ @_Z11digitalReadj
.Lfunc_begin8:
	.loc	7 68 0                  @ /root/Bela/projects/board_6/Arduino.cpp:68:0
	.fnstart
	.cfi_startproc
@ BB#0:
	@DEBUG_VALUE: digitalRead:channel <- %R0
	@DEBUG_VALUE: size:this <- %R1
	.loc	13 656 40 prologue_end  @ /usr/bin/../lib/gcc/arm-linux-gnueabihf/6.3.0/../../../../include/c++/6.3.0/bits/stl_vector.h:656:40
	movw	r1, :lower16:digital
.Ltmp80:
	movt	r1, :upper16:digital
	.loc	13 656 66 is_stmt 0     @ /usr/bin/../lib/gcc/arm-linux-gnueabihf/6.3.0/../../../../include/c++/6.3.0/bits/stl_vector.h:656:66
	ldr	r2, [r1]
	.loc	13 656 40               @ /usr/bin/../lib/gcc/arm-linux-gnueabihf/6.3.0/../../../../include/c++/6.3.0/bits/stl_vector.h:656:40
	ldr	r1, [r1, #4]
	.loc	13 656 50               @ /usr/bin/../lib/gcc/arm-linux-gnueabihf/6.3.0/../../../../include/c++/6.3.0/bits/stl_vector.h:656:50
	sub	r1, r1, r2
	asr	r3, r1, #3
	mov	r1, #0
.Ltmp81:
	.loc	7 69 5 is_stmt 1        @ /root/Bela/projects/board_6/Arduino.cpp:69:5
	cmp	r3, r0
	bls	.LBB8_2
.Ltmp82:
@ BB#1:
	@DEBUG_VALUE: digitalRead:channel <- %R0
	@DEBUG_VALUE: operator[]:__n <- %R0
	.loc	7 70 27                 @ /root/Bela/projects/board_6/Arduino.cpp:70:27
	add	r0, r2, r0, lsl #3
.Ltmp83:
	ldrh	r1, [r0, #4]
	.loc	7 70 10 is_stmt 0       @ /root/Bela/projects/board_6/Arduino.cpp:70:10
	cmp	r1, #0
	movwne	r1, #1
.Ltmp84:
.LBB8_2:
	.loc	7 72 1 is_stmt 1        @ /root/Bela/projects/board_6/Arduino.cpp:72:1
	mov	r0, r1
	bx	lr
.Ltmp85:
.Lfunc_end8:
	.size	_Z11digitalReadj, .Lfunc_end8-_Z11digitalReadj
	.cfi_endproc
	.fnend

	.globl	_Z10analogReadj
	.p2align	2
	.type	_Z10analogReadj,%function
_Z10analogReadj:                        @ @_Z10analogReadj
.Lfunc_begin9:
	.loc	7 75 0                  @ /root/Bela/projects/board_6/Arduino.cpp:75:0
	.fnstart
	.cfi_startproc
@ BB#0:
	@DEBUG_VALUE: analogRead:channel <- %R0
	@DEBUG_VALUE: size:this <- %R2
	.loc	13 656 40 prologue_end  @ /usr/bin/../lib/gcc/arm-linux-gnueabihf/6.3.0/../../../../include/c++/6.3.0/bits/stl_vector.h:656:40
	movw	r2, :lower16:analogIn
.Ltmp86:
	movt	r2, :upper16:analogIn
	.loc	13 656 66 is_stmt 0     @ /usr/bin/../lib/gcc/arm-linux-gnueabihf/6.3.0/../../../../include/c++/6.3.0/bits/stl_vector.h:656:66
	ldm	r2, {r1, r2}
	.loc	13 656 50               @ /usr/bin/../lib/gcc/arm-linux-gnueabihf/6.3.0/../../../../include/c++/6.3.0/bits/stl_vector.h:656:50
	sub	r2, r2, r1
	asr	r2, r2, #2
.Ltmp87:
	.loc	7 76 5 is_stmt 1        @ /root/Bela/projects/board_6/Arduino.cpp:76:5
	cmp	r2, r0
	bls	.LBB9_2
.Ltmp88:
@ BB#1:
	@DEBUG_VALUE: analogRead:channel <- %R0
	@DEBUG_VALUE: operator[]:__n <- %R0
	.loc	13 781 41               @ /usr/bin/../lib/gcc/arm-linux-gnueabihf/6.3.0/../../../../include/c++/6.3.0/bits/stl_vector.h:781:41
	add	r0, r1, r0, lsl #2
.Ltmp89:
	.loc	7 77 10                 @ /root/Bela/projects/board_6/Arduino.cpp:77:10
	vldr	s0, [r0]
.Ltmp90:
	.loc	7 79 1                  @ /root/Bela/projects/board_6/Arduino.cpp:79:1
                                        @ kill: %S0<def> %S0<kill> %D0<kill>
	bx	lr
.LBB9_2:
.Ltmp91:
	@DEBUG_VALUE: analogRead:channel <- %R0
	vmov.i32	d0, #0x0
                                        @ kill: %S0<def> %S0<kill> %D0<kill>
	bx	lr
.Ltmp92:
.Lfunc_end9:
	.size	_Z10analogReadj, .Lfunc_end9-_Z10analogReadj
	.cfi_endproc
	.fnend

	.globl	_Z11analogWritejf
	.p2align	2
	.type	_Z11analogWritejf,%function
_Z11analogWritejf:                      @ @_Z11analogWritejf
.Lfunc_begin10:
	.loc	7 82 0                  @ /root/Bela/projects/board_6/Arduino.cpp:82:0
	.fnstart
	.cfi_startproc
@ BB#0:
	@DEBUG_VALUE: analogWrite:channel <- %R0
	@DEBUG_VALUE: analogWrite:value <- %S0
	@DEBUG_VALUE: size:this <- %R2
	.loc	13 656 40 prologue_end  @ /usr/bin/../lib/gcc/arm-linux-gnueabihf/6.3.0/../../../../include/c++/6.3.0/bits/stl_vector.h:656:40
	movw	r2, :lower16:analogOut
.Ltmp93:
	movt	r2, :upper16:analogOut
	.loc	13 656 66 is_stmt 0     @ /usr/bin/../lib/gcc/arm-linux-gnueabihf/6.3.0/../../../../include/c++/6.3.0/bits/stl_vector.h:656:66
	ldm	r2, {r1, r2}
	.loc	13 656 50               @ /usr/bin/../lib/gcc/arm-linux-gnueabihf/6.3.0/../../../../include/c++/6.3.0/bits/stl_vector.h:656:50
	sub	r2, r2, r1
	asr	r2, r2, #2
.Ltmp94:
	.loc	7 83 5 is_stmt 1        @ /root/Bela/projects/board_6/Arduino.cpp:83:5
	cmp	r2, r0
.Ltmp95:
	.loc	13 781 41               @ /usr/bin/../lib/gcc/arm-linux-gnueabihf/6.3.0/../../../../include/c++/6.3.0/bits/stl_vector.h:781:41
	addhi	r0, r1, r0, lsl #2
.Ltmp96:
	.loc	7 84 22                 @ /root/Bela/projects/board_6/Arduino.cpp:84:22
	vstrhi	s0, [r0]
.Ltmp97:
	@DEBUG_VALUE: operator[]:__n <- %R0
	.loc	7 85 1                  @ /root/Bela/projects/board_6/Arduino.cpp:85:1
	bx	lr
.Ltmp98:
.Lfunc_end10:
	.size	_Z11analogWritejf, .Lfunc_end10-_Z11analogWritejf
	.cfi_endproc
	.fnend

	.globl	_Z5delayj
	.p2align	2
	.type	_Z5delayj,%function
_Z5delayj:                              @ @_Z5delayj
.Lfunc_begin11:
	.loc	7 88 0                  @ /root/Bela/projects/board_6/Arduino.cpp:88:0
	.fnstart
	.cfi_startproc
@ BB#0:
	.save	{r4, r5, r11, lr}
	push	{r4, r5, r11, lr}
.Ltmp99:
	.cfi_def_cfa_offset 16
.Ltmp100:
	.cfi_offset lr, -4
.Ltmp101:
	.cfi_offset r11, -8
.Ltmp102:
	.cfi_offset r5, -12
.Ltmp103:
	.cfi_offset r4, -16
	.setfp	r11, sp, #8
	add	r11, sp, #8
.Ltmp104:
	.cfi_def_cfa r11, 8
	@DEBUG_VALUE: delay:t <- %R0
	mov	r4, r0
.Ltmp105:
	@DEBUG_VALUE: delay:t <- %R4
	.loc	7 90 16 prologue_end discriminator 1 @ /root/Bela/projects/board_6/Arduino.cpp:90:16
	cmp	r4, #101
	blo	.LBB11_4
.Ltmp106:
@ BB#1:                                 @ %.lr.ph.preheader
	@DEBUG_VALUE: delay:t <- %R4
	.loc	7 92 3                  @ /root/Bela/projects/board_6/Arduino.cpp:92:3
	movw	r5, #34464
	movt	r5, #1
.Ltmp107:
.LBB11_2:                               @ %.lr.ph
                                        @ =>This Inner Loop Header: Depth=1
	@DEBUG_VALUE: delay:t <- %R4
	.loc	7 90 20 discriminator 2 @ /root/Bela/projects/board_6/Arduino.cpp:90:20
	bl	Bela_stopRequested
	.loc	7 90 2 is_stmt 0 discriminator 3 @ /root/Bela/projects/board_6/Arduino.cpp:90:2
	cmp	r0, #0
	bne	.LBB11_4
.Ltmp108:
@ BB#3:                                 @   in Loop: Header=BB11_2 Depth=1
	@DEBUG_VALUE: delay:t <- %R4
	.loc	7 92 3 is_stmt 1        @ /root/Bela/projects/board_6/Arduino.cpp:92:3
	mov	r0, r5
	bl	usleep
	.loc	7 93 5                  @ /root/Bela/projects/board_6/Arduino.cpp:93:5
	sub	r4, r4, #100
.Ltmp109:
	@DEBUG_VALUE: delay:t <- %R4
	.loc	7 90 16 discriminator 1 @ /root/Bela/projects/board_6/Arduino.cpp:90:16
	cmp	r4, #100
	bhi	.LBB11_2
.Ltmp110:
.LBB11_4:                               @ %.critedge
	@DEBUG_VALUE: delay:t <- %R4
	.loc	7 95 11                 @ /root/Bela/projects/board_6/Arduino.cpp:95:11
	mov	r0, #1000
	mul	r0, r4, r0
	.loc	7 95 2 is_stmt 0        @ /root/Bela/projects/board_6/Arduino.cpp:95:2
	pop	{r4, r5, r11, lr}
.Ltmp111:
	b	usleep
.Ltmp112:
.Lfunc_end11:
	.size	_Z5delayj, .Lfunc_end11-_Z5delayj
	.cfi_endproc
	.fnend

	.globl	_Z17delayMicrosecondsj
	.p2align	2
	.type	_Z17delayMicrosecondsj,%function
_Z17delayMicrosecondsj:                 @ @_Z17delayMicrosecondsj
.Lfunc_begin12:
	.loc	7 98 0 is_stmt 1        @ /root/Bela/projects/board_6/Arduino.cpp:98:0
	.fnstart
	.cfi_startproc
@ BB#0:
	@DEBUG_VALUE: delayMicroseconds:t <- %R0
	.loc	7 99 2 prologue_end     @ /root/Bela/projects/board_6/Arduino.cpp:99:2
	b	usleep
.Ltmp113:
.Lfunc_end12:
	.size	_Z17delayMicrosecondsj, .Lfunc_end12-_Z17delayMicrosecondsj
	.cfi_endproc
	.fnend

	.globl	_Z4utoajPcj
	.p2align	2
	.type	_Z4utoajPcj,%function
_Z4utoajPcj:                            @ @_Z4utoajPcj
.Lfunc_begin13:
	.loc	7 101 0                 @ /root/Bela/projects/board_6/Arduino.cpp:101:0
	.fnstart
	.cfi_startproc
@ BB#0:
	.save	{r11, lr}
	push	{r11, lr}
.Ltmp114:
	.cfi_def_cfa_offset 8
.Ltmp115:
	.cfi_offset lr, -4
.Ltmp116:
	.cfi_offset r11, -8
	.setfp	r11, sp
	mov	r11, sp
.Ltmp117:
	.cfi_def_cfa_register r11
	@DEBUG_VALUE: utoa:num <- %R0
	@DEBUG_VALUE: utoa:dest <- %R1
	@DEBUG_VALUE: utoa:len <- %R2
.Ltmp118:
	.loc	7 102 2 prologue_end    @ /root/Bela/projects/board_6/Arduino.cpp:102:2
	movw	r12, :lower16:.L.str
	mov	r3, r0
.Ltmp119:
	@DEBUG_VALUE: utoa:num <- %R3
	movt	r12, :upper16:.L.str
	mov	r0, r1
.Ltmp120:
	@DEBUG_VALUE: utoa:dest <- %R0
	mov	r1, r2
.Ltmp121:
	@DEBUG_VALUE: utoa:len <- %R1
	mov	r2, r12
	bl	snprintf
.Ltmp122:
	.loc	7 103 1                 @ /root/Bela/projects/board_6/Arduino.cpp:103:1
	pop	{r11, pc}
.Ltmp123:
.Lfunc_end13:
	.size	_Z4utoajPcj, .Lfunc_end13-_Z4utoajPcj
	.cfi_endproc
	.fnend

	.globl	_Z12noInterruptsv
	.p2align	2
	.type	_Z12noInterruptsv,%function
_Z12noInterruptsv:                      @ @_Z12noInterruptsv
.Lfunc_begin14:
	.loc	7 104 0                 @ /root/Bela/projects/board_6/Arduino.cpp:104:0
	.fnstart
	.cfi_startproc
@ BB#0:
	.loc	7 104 22 prologue_end   @ /root/Bela/projects/board_6/Arduino.cpp:104:22
	bx	lr
.Ltmp124:
.Lfunc_end14:
	.size	_Z12noInterruptsv, .Lfunc_end14-_Z12noInterruptsv
	.cfi_endproc
	.fnend

	.globl	_Z10interruptsv
	.p2align	2
	.type	_Z10interruptsv,%function
_Z10interruptsv:                        @ @_Z10interruptsv
.Lfunc_begin15:
	.loc	7 105 0                 @ /root/Bela/projects/board_6/Arduino.cpp:105:0
	.fnstart
	.cfi_startproc
@ BB#0:
	.loc	7 105 20 prologue_end   @ /root/Bela/projects/board_6/Arduino.cpp:105:20
	bx	lr
.Ltmp125:
.Lfunc_end15:
	.size	_Z10interruptsv, .Lfunc_end15-_Z10interruptsv
	.cfi_endproc
	.fnend

	.globl	_Z8shiftOuthhhhhj
	.p2align	4
	.type	_Z8shiftOuthhhhhj,%function
_Z8shiftOuthhhhhj:                      @ @_Z8shiftOuthhhhhj
.Lfunc_begin16:
	.loc	7 108 0                 @ /root/Bela/projects/board_6/Arduino.cpp:108:0
	.fnstart
	.cfi_startproc
@ BB#0:
	.save	{r4, r5, r6, r7, r11, lr}
	push	{r4, r5, r6, r7, r11, lr}
.Ltmp126:
	.cfi_def_cfa_offset 24
.Ltmp127:
	.cfi_offset lr, -4
.Ltmp128:
	.cfi_offset r11, -8
.Ltmp129:
	.cfi_offset r7, -12
.Ltmp130:
	.cfi_offset r6, -16
.Ltmp131:
	.cfi_offset r5, -20
.Ltmp132:
	.cfi_offset r4, -24
	.setfp	r11, sp, #16
	add	r11, sp, #16
.Ltmp133:
	.cfi_def_cfa r11, 8
	.pad	#8
	sub	sp, sp, #8
	@DEBUG_VALUE: shiftOut:dataPin <- %R0
	@DEBUG_VALUE: shiftOut:clockPin <- %R1
	@DEBUG_VALUE: shiftOut:latchPin <- %R2
	@DEBUG_VALUE: shiftOut:bitOrder <- %R3
	mov	r4, r3
.Ltmp134:
	@DEBUG_VALUE: shiftOut:bitOrder <- %R4
	ldr	r3, [r11, #8]
	strb	r0, [sp, #7]
.Ltmp135:
	.loc	7 109 2 prologue_end    @ /root/Bela/projects/board_6/Arduino.cpp:109:2
	mov	r0, #0
.Ltmp136:
	strb	r1, [sp, #6]
	mov	r1, #0
.Ltmp137:
	strb	r2, [sp, #5]
	mov	r2, #5
.Ltmp138:
	strb	r3, [sp, #4]
	mov	r5, #0
	bl	_Z7msgInit16BelaSourceThread12BelaReceiverj
.Ltmp139:
	.file	37 "/usr/bin/../lib/gcc/arm-linux-gnueabihf/6.3.0/../../../../include/c++/6.3.0" "typeinfo"
	.loc	37 100 14               @ /usr/bin/../lib/gcc/arm-linux-gnueabihf/6.3.0/../../../../include/c++/6.3.0/typeinfo:100:14
	movw	r0, :lower16:_ZTIh
	add	r2, sp, #7
.Ltmp140:
	@DEBUG_VALUE: msgAdd<unsigned char>:t <- %R2
	@DEBUG_VALUE: msgAdd<unsigned char>:thread <- 0
	@DEBUG_VALUE: shiftOut:dataPin <- [%R2+0]
	movt	r0, :upper16:_ZTIh
.Ltmp141:
	.loc	12 44 2 discriminator 1 @ /root/Bela/projects/board_6/BelaMsg.h:44:2
	mov	r3, #1
.Ltmp142:
	.loc	37 100 14               @ /usr/bin/../lib/gcc/arm-linux-gnueabihf/6.3.0/../../../../include/c++/6.3.0/typeinfo:100:14
	ldr	r6, [r0, #4]
	mov	r7, r6
	ldrb	r0, [r7], #1
	cmp	r0, #42
	mov	r0, r6
	moveq	r0, r7
.Ltmp143:
	.loc	12 44 2 discriminator 1 @ /root/Bela/projects/board_6/BelaMsg.h:44:2
	ldrb	r1, [r0]
	mov	r0, #0
	bl	_Z7msgPush16BelaSourceThreadcPKvj
.Ltmp144:
	.loc	37 100 14               @ /usr/bin/../lib/gcc/arm-linux-gnueabihf/6.3.0/../../../../include/c++/6.3.0/typeinfo:100:14
	ldrb	r0, [r6]
	add	r2, sp, #6
.Ltmp145:
	@DEBUG_VALUE: msgAdd<unsigned char>:t <- %R2
	@DEBUG_VALUE: msgAdd<unsigned char>:thread <- 0
	@DEBUG_VALUE: shiftOut:clockPin <- [%R2+0]
	.loc	12 44 2 discriminator 1 @ /root/Bela/projects/board_6/BelaMsg.h:44:2
	mov	r3, #1
.Ltmp146:
	.loc	37 100 14               @ /usr/bin/../lib/gcc/arm-linux-gnueabihf/6.3.0/../../../../include/c++/6.3.0/typeinfo:100:14
	cmp	r0, #42
	mov	r0, r6
	moveq	r0, r7
.Ltmp147:
	.loc	12 44 2 discriminator 1 @ /root/Bela/projects/board_6/BelaMsg.h:44:2
	ldrb	r1, [r0]
	mov	r0, #0
	bl	_Z7msgPush16BelaSourceThreadcPKvj
.Ltmp148:
	.loc	37 100 14               @ /usr/bin/../lib/gcc/arm-linux-gnueabihf/6.3.0/../../../../include/c++/6.3.0/typeinfo:100:14
	ldrb	r0, [r6]
	add	r2, sp, #5
.Ltmp149:
	@DEBUG_VALUE: msgAdd<unsigned char>:t <- %R2
	@DEBUG_VALUE: msgAdd<unsigned char>:thread <- 0
	@DEBUG_VALUE: shiftOut:latchPin <- [%R2+0]
	.loc	12 44 2 discriminator 1 @ /root/Bela/projects/board_6/BelaMsg.h:44:2
	mov	r3, #1
.Ltmp150:
	.loc	37 100 14               @ /usr/bin/../lib/gcc/arm-linux-gnueabihf/6.3.0/../../../../include/c++/6.3.0/typeinfo:100:14
	cmp	r0, #42
	mov	r0, r6
	moveq	r0, r7
.Ltmp151:
	.loc	12 44 2 discriminator 1 @ /root/Bela/projects/board_6/BelaMsg.h:44:2
	ldrb	r1, [r0]
	mov	r0, #0
	bl	_Z7msgPush16BelaSourceThreadcPKvj
.Ltmp152:
	.loc	37 100 14               @ /usr/bin/../lib/gcc/arm-linux-gnueabihf/6.3.0/../../../../include/c++/6.3.0/typeinfo:100:14
	ldrb	r0, [r6]
	add	r2, sp, #4
.Ltmp153:
	@DEBUG_VALUE: msgAdd<unsigned char>:t <- %R2
	@DEBUG_VALUE: msgAdd<unsigned char>:thread <- 0
	@DEBUG_VALUE: shiftOut:numBits <- [%R2+0]
	.loc	12 44 2 discriminator 1 @ /root/Bela/projects/board_6/BelaMsg.h:44:2
	mov	r3, #1
.Ltmp154:
	.loc	37 100 14               @ /usr/bin/../lib/gcc/arm-linux-gnueabihf/6.3.0/../../../../include/c++/6.3.0/typeinfo:100:14
	cmp	r0, #42
.Ltmp155:
	.loc	12 44 2 discriminator 1 @ /root/Bela/projects/board_6/BelaMsg.h:44:2
	mov	r0, #0
.Ltmp156:
	.loc	37 100 14               @ /usr/bin/../lib/gcc/arm-linux-gnueabihf/6.3.0/../../../../include/c++/6.3.0/typeinfo:100:14
	movne	r7, r6
.Ltmp157:
	.loc	12 44 2 discriminator 1 @ /root/Bela/projects/board_6/BelaMsg.h:44:2
	ldrb	r1, [r7]
	bl	_Z7msgPush16BelaSourceThreadcPKvj
.Ltmp158:
	ldr	r0, [r11, #12]
.Ltmp159:
	@DEBUG_VALUE: shiftOut:bits <- %R0
	@DEBUG_VALUE: shiftOut:origBits <- %R0
	.loc	7 115 5                 @ /root/Bela/projects/board_6/Arduino.cpp:115:5
	cmp	r4, #1
	bne	.LBB16_4
.Ltmp160:
@ BB#1:
	@DEBUG_VALUE: shiftOut:origBits <- %R0
	@DEBUG_VALUE: shiftOut:bits <- %R0
	@DEBUG_VALUE: shiftOut:bitOrder <- %R4
	@DEBUG_VALUE: shiftOut:bits <- 0
	.loc	7 119 25 discriminator 1 @ /root/Bela/projects/board_6/Arduino.cpp:119:25
	ldrb	r1, [sp, #4]
.Ltmp161:
	.loc	7 117 8                 @ /root/Bela/projects/board_6/Arduino.cpp:117:8
	str	r5, [sp]
.Ltmp162:
	@DEBUG_VALUE: n <- 0
	.loc	7 119 3 discriminator 1 @ /root/Bela/projects/board_6/Arduino.cpp:119:3
	cmp	r1, #0
	beq	.LBB16_12
.Ltmp163:
@ BB#2:                                 @ %.lr.ph
	@DEBUG_VALUE: shiftOut:origBits <- %R0
	@DEBUG_VALUE: shiftOut:bitOrder <- %R4
	mov	r2, #0
	cmp	r1, #4
	bhs	.LBB16_5
.Ltmp164:
@ BB#3:
	@DEBUG_VALUE: shiftOut:origBits <- %R0
	@DEBUG_VALUE: shiftOut:bitOrder <- %R4
	mov	r3, #0
	b	.LBB16_9
.Ltmp165:
.LBB16_4:
	@DEBUG_VALUE: shiftOut:origBits <- %R0
	@DEBUG_VALUE: shiftOut:bits <- %R0
	@DEBUG_VALUE: shiftOut:bitOrder <- %R4
	.loc	7 125 8                 @ /root/Bela/projects/board_6/Arduino.cpp:125:8
	str	r0, [sp]
	b	.LBB16_12
.Ltmp166:
.LBB16_5:                               @ %min.iters.checked
	@DEBUG_VALUE: shiftOut:origBits <- %R0
	@DEBUG_VALUE: shiftOut:bitOrder <- %R4
	.loc	7 119 3 discriminator 1 @ /root/Bela/projects/board_6/Arduino.cpp:119:3
	and	r5, r1, #3
	mov	r3, #0
	subs	r7, r1, r5
	beq	.LBB16_9
.Ltmp167:
@ BB#6:                                 @ %vector.ph
	@DEBUG_VALUE: shiftOut:origBits <- %R0
	@DEBUG_VALUE: shiftOut:bitOrder <- %R4
	adr	r2, .LCPI16_0
	vmov.i32	q8, #0x0
.Ltmp168:
	.loc	7 121 29                @ /root/Bela/projects/board_6/Arduino.cpp:121:29
	vmov.i32	q12, #0x1
	vld1.64	{d18, d19}, [r2:128]
.Ltmp169:
	.loc	7 119 3 discriminator 1 @ /root/Bela/projects/board_6/Arduino.cpp:119:3
	vmov.i32	q13, #0x4
	.loc	7 119 34 is_stmt 0 discriminator 3 @ /root/Bela/projects/board_6/Arduino.cpp:119:34
	mov	r2, r7
	.loc	7 119 3 discriminator 1 @ /root/Bela/projects/board_6/Arduino.cpp:119:3
	vdup.32	q10, r1
	vdup.32	q11, r0
.Ltmp170:
.LBB16_7:                               @ %vector.body
                                        @ =>This Inner Loop Header: Depth=1
	.loc	7 121 29 is_stmt 1      @ /root/Bela/projects/board_6/Arduino.cpp:121:29
	vshl.u32	q14, q12, q9
.Ltmp171:
	.loc	7 119 3 discriminator 1 @ /root/Bela/projects/board_6/Arduino.cpp:119:3
	subs	r2, r2, #4
.Ltmp172:
	.loc	7 122 28                @ /root/Bela/projects/board_6/Arduino.cpp:122:28
	vmvn	q15, q9
	.loc	7 122 12 is_stmt 0      @ /root/Bela/projects/board_6/Arduino.cpp:122:12
	vtst.32	q14, q14, q11
	.loc	7 122 32                @ /root/Bela/projects/board_6/Arduino.cpp:122:32
	vadd.i32	q15, q10, q15
.Ltmp173:
	.loc	7 119 3 is_stmt 1 discriminator 1 @ /root/Bela/projects/board_6/Arduino.cpp:119:3
	vadd.i32	q9, q9, q13
.Ltmp174:
	.loc	7 122 12                @ /root/Bela/projects/board_6/Arduino.cpp:122:12
	vand	q14, q14, q12
	.loc	7 122 16 is_stmt 0      @ /root/Bela/projects/board_6/Arduino.cpp:122:16
	vshl.u32	q14, q14, q15
	.loc	7 122 9                 @ /root/Bela/projects/board_6/Arduino.cpp:122:9
	vorr	q8, q8, q14
.Ltmp175:
	.loc	7 119 3 is_stmt 1 discriminator 1 @ /root/Bela/projects/board_6/Arduino.cpp:119:3
	bne	.LBB16_7
@ BB#8:                                 @ %middle.block
.Ltmp176:
	.loc	7 122 9                 @ /root/Bela/projects/board_6/Arduino.cpp:122:9
	vext.32	q9, q8, q8, #2
	mov	r3, r7
.Ltmp177:
	.loc	7 119 3 discriminator 1 @ /root/Bela/projects/board_6/Arduino.cpp:119:3
	tst	r5, #255
.Ltmp178:
	.loc	7 122 9                 @ /root/Bela/projects/board_6/Arduino.cpp:122:9
	vorr	q8, q8, q9
	vdup.32	q9, d16[1]
	vorr	q8, q8, q9
	vmov.32	r2, d16[0]
	beq	.LBB16_11
.LBB16_9:                               @ %scalar.ph.preheader
	.loc	7 121 29                @ /root/Bela/projects/board_6/Arduino.cpp:121:29
	sub	r7, r1, #1
	mov	r6, #1
	sub	r7, r7, r3
.LBB16_10:                              @ %scalar.ph
                                        @ =>This Inner Loop Header: Depth=1
.Ltmp179:
	@DEBUG_VALUE: shiftOut:bits <- %R2
	.loc	7 121 24 is_stmt 0      @ /root/Bela/projects/board_6/Arduino.cpp:121:24
	and	r5, r0, r6, lsl r3
.Ltmp180:
	.loc	7 119 34 is_stmt 1 discriminator 3 @ /root/Bela/projects/board_6/Arduino.cpp:119:34
	add	r3, r3, #1
.Ltmp181:
	@DEBUG_VALUE: n <- %R3
	.loc	7 121 15                @ /root/Bela/projects/board_6/Arduino.cpp:121:15
	cmp	r5, #0
	movwne	r5, #1
.Ltmp182:
	.loc	7 119 3 discriminator 1 @ /root/Bela/projects/board_6/Arduino.cpp:119:3
	cmp	r3, r1
.Ltmp183:
	.loc	7 122 9                 @ /root/Bela/projects/board_6/Arduino.cpp:122:9
	orr	r2, r2, r5, lsl r7
.Ltmp184:
	.loc	7 119 23 discriminator 1 @ /root/Bela/projects/board_6/Arduino.cpp:119:23
	sub	r7, r7, #1
	blo	.LBB16_10
.Ltmp185:
.LBB16_11:                              @ %..loopexit_crit_edge
	.loc	7 122 9                 @ /root/Bela/projects/board_6/Arduino.cpp:122:9
	str	r2, [sp]
.Ltmp186:
.LBB16_12:                              @ %.loopexit
	.loc	37 100 14               @ /usr/bin/../lib/gcc/arm-linux-gnueabihf/6.3.0/../../../../include/c++/6.3.0/typeinfo:100:14
	movw	r0, :lower16:_ZTIj
.Ltmp187:
	.loc	12 44 2 discriminator 1 @ /root/Bela/projects/board_6/BelaMsg.h:44:2
	mov	r3, #4
.Ltmp188:
	.loc	37 100 14               @ /usr/bin/../lib/gcc/arm-linux-gnueabihf/6.3.0/../../../../include/c++/6.3.0/typeinfo:100:14
	movt	r0, :upper16:_ZTIj
	ldr	r0, [r0, #4]
	mov	r1, r0
	ldrb	r2, [r1], #1
	cmp	r2, #42
	mov	r2, sp
.Ltmp189:
	@DEBUG_VALUE: msgAdd<unsigned int>:t <- %R2
	@DEBUG_VALUE: msgAdd<unsigned int>:thread <- 0
	@DEBUG_VALUE: shiftOut:bits <- [%R2+0]
	movne	r1, r0
.Ltmp190:
	.loc	12 44 2 discriminator 1 @ /root/Bela/projects/board_6/BelaMsg.h:44:2
	mov	r0, #0
	ldrb	r1, [r1]
	bl	_Z7msgPush16BelaSourceThreadcPKvj
.Ltmp191:
	.loc	7 127 2                 @ /root/Bela/projects/board_6/Arduino.cpp:127:2
	mov	r0, #0
	bl	_Z7msgSend16BelaSourceThread
	.loc	7 128 1                 @ /root/Bela/projects/board_6/Arduino.cpp:128:1
	sub	sp, r11, #16
	pop	{r4, r5, r6, r7, r11, pc}
.Ltmp192:
	.p2align	4
@ BB#13:
.LCPI16_0:
	.long	0                       @ 0x0
	.long	1                       @ 0x1
	.long	2                       @ 0x2
	.long	3                       @ 0x3
.Lfunc_end16:
	.size	_Z8shiftOuthhhhhj, .Lfunc_end16-_Z8shiftOuthhhhhj
	.cfi_endproc
	.fnend

	.section	.text.startup,"ax",%progbits
	.p2align	2
	.type	_GLOBAL__sub_I_Arduino.ii,%function
_GLOBAL__sub_I_Arduino.ii:              @ @_GLOBAL__sub_I_Arduino.ii
.Lfunc_begin17:
	.loc	28 0 0                  @ /root/Bela/projects/board_6/build/Arduino.cpp:0:0
	.fnstart
	.cfi_startproc
@ BB#0:
	.save	{r4, r10, r11, lr}
	push	{r4, r10, r11, lr}
.Ltmp193:
	.cfi_def_cfa_offset 16
.Ltmp194:
	.cfi_offset lr, -4
.Ltmp195:
	.cfi_offset r11, -8
.Ltmp196:
	.cfi_offset r10, -12
.Ltmp197:
	.cfi_offset r4, -16
	.setfp	r11, sp, #8
	add	r11, sp, #8
.Ltmp198:
	.cfi_def_cfa r11, 8
.Ltmp199:
	.loc	4 74 25 prologue_end    @ /usr/bin/../lib/gcc/arm-linux-gnueabihf/6.3.0/../../../../include/c++/6.3.0/iostream:74:25
	movw	r4, :lower16:_ZStL8__ioinit
	movt	r4, :upper16:_ZStL8__ioinit
	mov	r0, r4
	bl	_ZNSt8ios_base4InitC1Ev
	.loc	4 74 25 is_stmt 0 discriminator 1 @ /usr/bin/../lib/gcc/arm-linux-gnueabihf/6.3.0/../../../../include/c++/6.3.0/iostream:74:25
	movw	r0, :lower16:_ZNSt8ios_base4InitD1Ev
	movw	r2, :lower16:__dso_handle
	movt	r0, :upper16:_ZNSt8ios_base4InitD1Ev
	movt	r2, :upper16:__dso_handle
	mov	r1, r4
	pop	{r4, r10, r11, lr}
	b	__cxa_atexit
.Ltmp200:
.Lfunc_end17:
	.size	_GLOBAL__sub_I_Arduino.ii, .Lfunc_end17-_GLOBAL__sub_I_Arduino.ii
	.cfi_endproc
	.fnend

	.type	_ZStL8__ioinit,%object  @ @_ZStL8__ioinit
	.local	_ZStL8__ioinit
	.comm	_ZStL8__ioinit,1,1
	.type	Serial,%object          @ @Serial
	.bss
	.globl	Serial
Serial:
	.zero	1
	.size	Serial, 1

	.type	_ZZ6microsvE6startp,%object @ @_ZZ6microsvE6startp
	.local	_ZZ6microsvE6startp
	.comm	_ZZ6microsvE6startp,8,8
	.type	_ZZ6microsvE6inited,%object @ @_ZZ6microsvE6inited
	.local	_ZZ6microsvE6inited
	.comm	_ZZ6microsvE6inited,1,1
	.type	.L.str,%object          @ @.str
	.section	.rodata.str1.1,"aMS",%progbits,1
.L.str:
	.asciz	"%u"
	.size	.L.str, 3

	.section	.init_array,"aw",%init_array
	.p2align	2
	.long	_GLOBAL__sub_I_Arduino.ii(target1)
	.section	".note.GNU-stack","",%progbits
	.eabi_attribute	30, 2	@ Tag_ABI_optimization_goals