	.text
	.syntax unified
	.eabi_attribute	67, "2.09"	@ Tag_conformance
	.cpu	cortex-a8
	.eabi_attribute	6, 10	@ Tag_CPU_arch
	.eabi_attribute	7, 65	@ Tag_CPU_arch_profile
	.eabi_attribute	8, 1	@ Tag_ARM_ISA_use
	.eabi_attribute	9, 2	@ Tag_THUMB_ISA_use
	.fpu	neon
	.eabi_attribute	17, 1	@ Tag_ABI_PCS_GOT_use
	.eabi_attribute	20, 2	@ Tag_ABI_FP_denormal
	.eabi_attribute	23, 1	@ Tag_ABI_FP_number_model
	.eabi_attribute	34, 1	@ Tag_CPU_unaligned_access
	.eabi_attribute	24, 1	@ Tag_ABI_align_needed
	.eabi_attribute	25, 1	@ Tag_ABI_align_preserved
	.eabi_attribute	28, 1	@ Tag_ABI_VFP_args
	.eabi_attribute	38, 1	@ Tag_ABI_FP_16bit_format
	.eabi_attribute	18, 4	@ Tag_ABI_PCS_wchar_t
	.eabi_attribute	26, 2	@ Tag_ABI_enum_size
	.eabi_attribute	14, 0	@ Tag_ABI_PCS_R9_use
	.eabi_attribute	68, 1	@ Tag_Virtualization_use
	.file	"/root/Bela/projects/board_6/build/BelaArduino.bc"
	.file	1 "/usr/bin/../lib/gcc/arm-linux-gnueabihf/6.3.0/../../../../include/arm-linux-gnueabihf/c++/6.3.0/bits" "c++config.h"
	.file	2 "/usr/bin/../lib/gcc/arm-linux-gnueabihf/6.3.0/../../../../include/arm-linux-gnueabihf/c++/6.3.0/bits" "atomic_word.h"
	.file	3 "/usr/bin/../lib/gcc/arm-linux-gnueabihf/6.3.0/../../../../include/c++/6.3.0/bits" "ios_base.h"
	.file	4 "/usr/bin/../lib/gcc/arm-linux-gnueabihf/6.3.0/../../../../include/c++/6.3.0" "iostream"
	.file	5 "./libraries/ShiftRegister" "ShiftRegister.h"
	.file	6 "/usr/bin/../lib/gcc/arm-linux-gnueabihf/6.3.0/../../../../include/c++/6.3.0/bits" "alloc_traits.h"
	.file	7 "/usr/bin/../lib/gcc/arm-linux-gnueabihf/6.3.0/../../../../include/c++/6.3.0/ext" "new_allocator.h"
	.file	8 "/usr/bin/../lib/gcc/arm-linux-gnueabihf/6.3.0/../../../../include/arm-linux-gnueabihf/c++/6.3.0/bits" "c++allocator.h"
	.file	9 "/usr/bin/../lib/gcc/arm-linux-gnueabihf/6.3.0/../../../../include/c++/6.3.0/bits" "allocator.h"
	.file	10 "/usr/bin/../lib/gcc/arm-linux-gnueabihf/6.3.0/../../../../include/c++/6.3.0/ext" "alloc_traits.h"
	.file	11 "/usr/bin/../lib/gcc/arm-linux-gnueabihf/6.3.0/../../../../include/c++/6.3.0/bits" "stl_bvector.h"
	.file	12 "/usr/bin/../lib/gcc/arm-linux-gnueabihf/6.3.0/../../../../include/c++/6.3.0/bits" "stl_iterator_base_types.h"
	.file	13 "/usr/bin/../lib/gcc/arm-linux-gnueabihf/6.3.0/../../../../include/c++/6.3.0" "initializer_list"
	.file	14 "/usr/bin/../lib/gcc/arm-linux-gnueabihf/6.3.0/../../../../include/c++/6.3.0/bits" "stl_iterator.h"
	.file	15 "./include" "Bela.h"
	.file	16 "/usr/include" "stdint.h"
	.file	17 "/root/Bela/projects/board_6" "BelaArduino.cpp"
	.file	18 "/root/Bela/projects/board_6" "BelaArduino.h"
	.file	19 "/usr/bin/../lib/gcc/arm-linux-gnueabihf/6.3.0/../../../../include/c++/6.3.0/bits" "stl_vector.h"
	.file	20 "/usr/bin/../lib/gcc/arm-linux-gnueabihf/6.3.0/../../../../include/c++/6.3.0" "type_traits"
	.file	21 "/usr/bin/../lib/gcc/arm-linux-gnueabihf/6.3.0/../../../../include/c++/6.3.0/bits" "stringfwd.h"
	.file	22 "./libraries/Pipe" "Pipe.h"
	.file	23 "/usr/lib/llvm-3.9/bin/../lib/clang/3.9.1/include" "stddef.h"
	.file	24 "/usr/include/arm-linux-gnueabihf/bits" "types.h"
	.file	25 "/usr/include/arm-linux-gnueabihf/sys" "types.h"
	.file	26 "/root/Bela/projects/board_6" "BelaMsg.h"
	.file	27 "/usr/bin/../lib/gcc/arm-linux-gnueabihf/6.3.0/../../../../include/c++/6.3.0/bits" "cpp_type_traits.h"
	.file	28 "/usr/bin/../lib/gcc/arm-linux-gnueabihf/6.3.0/../../../../include/c++/6.3.0/bits" "basic_string.h"
	.file	29 "/usr/bin/../lib/gcc/arm-linux-gnueabihf/6.3.0/../../../../include/c++/6.3.0/bits" "char_traits.h"
	.file	30 "/usr/bin/../lib/gcc/arm-linux-gnueabihf/6.3.0/../../../../include/c++/6.3.0/ext" "numeric_traits.h"
	.file	31 "/usr/bin/../lib/gcc/arm-linux-gnueabihf/6.3.0/../../../../include/c++/6.3.0/debug" "debug.h"
	.file	32 "/usr/include" "wchar.h"
	.file	33 "/usr/include" "libio.h"
	.file	34 "/usr/include" "stdio.h"
	.file	35 "/usr/lib/llvm-3.9/bin/../lib/clang/3.9.1/include" "stdarg.h"
	.file	36 "/usr/bin/../lib/gcc/arm-linux-gnueabihf/6.3.0/../../../../include/c++/6.3.0/bits" "exception_ptr.h"
	.file	37 "/usr/include" "locale.h"
	.file	38 "/usr/include" "ctype.h"
	.file	39 "/usr/include" "stdlib.h"
	.file	40 "/usr/include/arm-linux-gnueabihf/bits" "stdlib-float.h"
	.file	41 "/usr/include/arm-linux-gnueabihf/bits" "stdlib-bsearch.h"
	.file	42 "/usr/bin/../lib/gcc/arm-linux-gnueabihf/6.3.0/../../../../include/c++/6.3.0" "cstdlib"
	.file	43 "/usr/include" "_G_config.h"
	.file	44 "/usr/include/arm-linux-gnueabihf/bits" "stdio.h"
	.file	45 "/root/Bela/projects/board_6/build" "BelaArduino.cpp"
	.file	46 "/usr/include" "wctype.h"
	.file	47 "/usr/include/arm-linux-gnueabihf/bits" "math-finite.h"
	.file	48 "/usr/include/arm-linux-gnueabihf/bits" "mathcalls.h"
	.file	49 "/usr/include/arm-linux-gnueabihf/bits" "mathdef.h"
	.file	50 "/usr/bin/../lib/gcc/arm-linux-gnueabihf/6.3.0/../../../../include/c++/6.3.0" "cmath"
	.section	.text._ZN13ShiftRegisterD2Ev,"axG",%progbits,_ZN13ShiftRegisterD2Ev,comdat
	.weak	_ZN13ShiftRegisterD2Ev
	.p2align	2
	.type	_ZN13ShiftRegisterD2Ev,%function
_ZN13ShiftRegisterD2Ev:                 @ @_ZN13ShiftRegisterD2Ev
.Lfunc_begin0:
	.loc	5 13 0                  @ ./libraries/ShiftRegister/ShiftRegister.h:13:0
	.fnstart
	.cfi_startproc
@ BB#0:
	.save	{r4, r10, r11, lr}
	push	{r4, r10, r11, lr}
.Ltmp0:
	.cfi_def_cfa_offset 16
.Ltmp1:
	.cfi_offset lr, -4
.Ltmp2:
	.cfi_offset r11, -8
.Ltmp3:
	.cfi_offset r10, -12
.Ltmp4:
	.cfi_offset r4, -16
	.setfp	r11, sp, #8
	add	r11, sp, #8
.Ltmp5:
	.cfi_def_cfa r11, 8
	@DEBUG_VALUE: ~ShiftRegister:this <- %R0
	mov	r4, r0
.Ltmp6:
	@DEBUG_VALUE: ~ShiftRegister:this <- %R4
	.loc	5 13 7 prologue_end     @ ./libraries/ShiftRegister/ShiftRegister.h:13:7
	movw	r0, :lower16:_ZTV13ShiftRegister
	movt	r0, :upper16:_ZTV13ShiftRegister
	add	r0, r0, #8
	str	r0, [r4]
.Ltmp7:
	.loc	11 497 23               @ /usr/bin/../lib/gcc/arm-linux-gnueabihf/6.3.0/../../../../include/c++/6.3.0/bits/stl_bvector.h:497:23
	ldr	r0, [r4, #20]
.Ltmp8:
	.loc	11 497 6 is_stmt 0      @ /usr/bin/../lib/gcc/arm-linux-gnueabihf/6.3.0/../../../../include/c++/6.3.0/bits/stl_bvector.h:497:6
	cmp	r0, #0
	beq	.LBB0_2
.Ltmp9:
@ BB#1:
	@DEBUG_VALUE: ~ShiftRegister:this <- %R4
	@DEBUG_VALUE: deallocate:__p <- %R0
	@DEBUG_VALUE: deallocate:__p <- %R0
	.loc	7 110 9 is_stmt 1       @ /usr/bin/../lib/gcc/arm-linux-gnueabihf/6.3.0/../../../../include/c++/6.3.0/ext/new_allocator.h:110:9
	bl	_ZdlPv
.Ltmp10:
.LBB0_2:                                @ %_ZNSt13_Bvector_baseISaIbEED2Ev.exit
	@DEBUG_VALUE: ~ShiftRegister:this <- %R4
	.loc	5 13 7                  @ ./libraries/ShiftRegister/ShiftRegister.h:13:7
	mov	r0, r4
	pop	{r4, r10, r11, pc}
.Ltmp11:
.Lfunc_end0:
	.size	_ZN13ShiftRegisterD2Ev, .Lfunc_end0-_ZN13ShiftRegisterD2Ev
	.cfi_endproc
	.fnend

	.section	.text._ZNSt13_Bvector_baseISaIbEED2Ev,"axG",%progbits,_ZNSt13_Bvector_baseISaIbEED2Ev,comdat
	.weak	_ZNSt13_Bvector_baseISaIbEED2Ev
	.p2align	2
	.type	_ZNSt13_Bvector_baseISaIbEED2Ev,%function
_ZNSt13_Bvector_baseISaIbEED2Ev:        @ @_ZNSt13_Bvector_baseISaIbEED2Ev
.Lfunc_begin1:
	.loc	11 485 0                @ /usr/bin/../lib/gcc/arm-linux-gnueabihf/6.3.0/../../../../include/c++/6.3.0/bits/stl_bvector.h:485:0
	.fnstart
	.cfi_startproc
@ BB#0:
	.save	{r4, r10, r11, lr}
	push	{r4, r10, r11, lr}
.Ltmp12:
	.cfi_def_cfa_offset 16
.Ltmp13:
	.cfi_offset lr, -4
.Ltmp14:
	.cfi_offset r11, -8
.Ltmp15:
	.cfi_offset r10, -12
.Ltmp16:
	.cfi_offset r4, -16
	.setfp	r11, sp, #8
	add	r11, sp, #8
.Ltmp17:
	.cfi_def_cfa r11, 8
	@DEBUG_VALUE: ~_Bvector_base:this <- %R0
	mov	r4, r0
.Ltmp18:
	@DEBUG_VALUE: _M_deallocate:this <- %R4
	@DEBUG_VALUE: ~_Bvector_base:this <- %R4
	.loc	11 497 23 prologue_end  @ /usr/bin/../lib/gcc/arm-linux-gnueabihf/6.3.0/../../../../include/c++/6.3.0/bits/stl_bvector.h:497:23
	ldr	r0, [r4]
.Ltmp19:
	.loc	11 497 6 is_stmt 0      @ /usr/bin/../lib/gcc/arm-linux-gnueabihf/6.3.0/../../../../include/c++/6.3.0/bits/stl_bvector.h:497:6
	cmp	r0, #0
	beq	.LBB1_2
.Ltmp20:
@ BB#1:
	@DEBUG_VALUE: ~_Bvector_base:this <- %R4
	@DEBUG_VALUE: _M_deallocate:this <- %R4
	@DEBUG_VALUE: deallocate:__p <- %R0
	@DEBUG_VALUE: deallocate:__p <- %R0
	.loc	7 110 9 is_stmt 1       @ /usr/bin/../lib/gcc/arm-linux-gnueabihf/6.3.0/../../../../include/c++/6.3.0/ext/new_allocator.h:110:9
	bl	_ZdlPv
.Ltmp21:
.LBB1_2:                                @ %_ZNSt13_Bvector_baseISaIbEE13_M_deallocateEv.exit
	@DEBUG_VALUE: ~_Bvector_base:this <- %R4
	@DEBUG_VALUE: _M_deallocate:this <- %R4
	.loc	11 485 32 discriminator 1 @ /usr/bin/../lib/gcc/arm-linux-gnueabihf/6.3.0/../../../../include/c++/6.3.0/bits/stl_bvector.h:485:32
	mov	r0, r4
	pop	{r4, r10, r11, pc}
.Ltmp22:
.Lfunc_end1:
	.size	_ZNSt13_Bvector_baseISaIbEED2Ev, .Lfunc_end1-_ZNSt13_Bvector_baseISaIbEED2Ev
	.cfi_endproc
	.fnend

	.section	.text._ZNSt6vectorI14DigitalChannelSaIS0_EED2Ev,"axG",%progbits,_ZNSt6vectorI14DigitalChannelSaIS0_EED2Ev,comdat
	.weak	_ZNSt6vectorI14DigitalChannelSaIS0_EED2Ev
	.p2align	2
	.type	_ZNSt6vectorI14DigitalChannelSaIS0_EED2Ev,%function
_ZNSt6vectorI14DigitalChannelSaIS0_EED2Ev: @ @_ZNSt6vectorI14DigitalChannelSaIS0_EED2Ev
.Lfunc_begin2:
	.loc	19 426 0                @ /usr/bin/../lib/gcc/arm-linux-gnueabihf/6.3.0/../../../../include/c++/6.3.0/bits/stl_vector.h:426:0
	.fnstart
	.cfi_startproc
@ BB#0:
	.save	{r4, r10, r11, lr}
	push	{r4, r10, r11, lr}
.Ltmp23:
	.cfi_def_cfa_offset 16
.Ltmp24:
	.cfi_offset lr, -4
.Ltmp25:
	.cfi_offset r11, -8
.Ltmp26:
	.cfi_offset r10, -12
.Ltmp27:
	.cfi_offset r4, -16
	.setfp	r11, sp, #8
	add	r11, sp, #8
.Ltmp28:
	.cfi_def_cfa r11, 8
	@DEBUG_VALUE: ~vector:this <- %R0
	mov	r4, r0
.Ltmp29:
	@DEBUG_VALUE: ~vector:this <- %R4
	.loc	19 160 37 prologue_end  @ /usr/bin/../lib/gcc/arm-linux-gnueabihf/6.3.0/../../../../include/c++/6.3.0/bits/stl_vector.h:160:37
	ldr	r0, [r4]
.Ltmp30:
	@DEBUG_VALUE: _M_deallocate:__p <- %R0
	@DEBUG_VALUE: deallocate:__p <- %R0
	@DEBUG_VALUE: deallocate:__p <- %R0
	.loc	19 177 6                @ /usr/bin/../lib/gcc/arm-linux-gnueabihf/6.3.0/../../../../include/c++/6.3.0/bits/stl_vector.h:177:6
	cmp	r0, #0
	beq	.LBB2_2
.Ltmp31:
@ BB#1:
	@DEBUG_VALUE: deallocate:__p <- %R0
	@DEBUG_VALUE: deallocate:__p <- %R0
	@DEBUG_VALUE: _M_deallocate:__p <- %R0
	@DEBUG_VALUE: ~vector:this <- %R4
	.loc	7 110 9                 @ /usr/bin/../lib/gcc/arm-linux-gnueabihf/6.3.0/../../../../include/c++/6.3.0/ext/new_allocator.h:110:9
	bl	_ZdlPv
.Ltmp32:
.LBB2_2:                                @ %_ZNSt12_Vector_baseI14DigitalChannelSaIS0_EED2Ev.exit
	@DEBUG_VALUE: ~vector:this <- %R4
	.loc	19 427 33 discriminator 1 @ /usr/bin/../lib/gcc/arm-linux-gnueabihf/6.3.0/../../../../include/c++/6.3.0/bits/stl_vector.h:427:33
	mov	r0, r4
	pop	{r4, r10, r11, pc}
.Ltmp33:
.Lfunc_end2:
	.size	_ZNSt6vectorI14DigitalChannelSaIS0_EED2Ev, .Lfunc_end2-_ZNSt6vectorI14DigitalChannelSaIS0_EED2Ev
	.cfi_endproc
	.fnend

	.section	.text._ZN4PipeD2Ev,"axG",%progbits,_ZN4PipeD2Ev,comdat
	.weak	_ZN4PipeD2Ev
	.p2align	2
	.type	_ZN4PipeD2Ev,%function
_ZN4PipeD2Ev:                           @ @_ZN4PipeD2Ev
.Lfunc_begin3:
	.loc	22 14 0                 @ ./libraries/Pipe/Pipe.h:14:0
	.fnstart
	.cfi_startproc
@ BB#0:
	.save	{r4, r5, r11, lr}
	push	{r4, r5, r11, lr}
.Ltmp37:
	.cfi_def_cfa_offset 16
.Ltmp38:
	.cfi_offset lr, -4
.Ltmp39:
	.cfi_offset r11, -8
.Ltmp40:
	.cfi_offset r5, -12
.Ltmp41:
	.cfi_offset r4, -16
	.setfp	r11, sp, #8
	add	r11, sp, #8
.Ltmp42:
	.cfi_def_cfa r11, 8
	@DEBUG_VALUE: ~Pipe:this <- %R0
	mov	r4, r0
.Ltmp43:
	@DEBUG_VALUE: ~Pipe:this <- %R4
	.loc	22 14 11 prologue_end   @ ./libraries/Pipe/Pipe.h:14:11
.Ltmp34:
	bl	_ZN4Pipe7cleanupEv
.Ltmp35:
.Ltmp44:
@ BB#1:
	@DEBUG_VALUE: ~Pipe:this <- %R4
	.loc	28 136 28               @ /usr/bin/../lib/gcc/arm-linux-gnueabihf/6.3.0/../../../../include/c++/6.3.0/bits/basic_string.h:136:28
	ldr	r0, [r4, #24]
.Ltmp45:
	@DEBUG_VALUE: deallocate:__p <- %R0
	@DEBUG_VALUE: deallocate:__p <- %R0
	.loc	28 152 57               @ /usr/bin/../lib/gcc/arm-linux-gnueabihf/6.3.0/../../../../include/c++/6.3.0/bits/basic_string.h:152:57
	add	r1, r4, #32
.Ltmp46:
	.loc	28 180 6                @ /usr/bin/../lib/gcc/arm-linux-gnueabihf/6.3.0/../../../../include/c++/6.3.0/bits/basic_string.h:180:6
	cmp	r0, r1
	beq	.LBB3_3
.Ltmp47:
@ BB#2:
	@DEBUG_VALUE: deallocate:__p <- %R0
	@DEBUG_VALUE: deallocate:__p <- %R0
	@DEBUG_VALUE: ~Pipe:this <- %R4
	.loc	7 110 9                 @ /usr/bin/../lib/gcc/arm-linux-gnueabihf/6.3.0/../../../../include/c++/6.3.0/ext/new_allocator.h:110:9
	bl	_ZdlPv
.Ltmp48:
.LBB3_3:                                @ %_ZNSt7__cxx1112basic_stringIcSt11char_traitsIcESaIcEED2Ev.exit
	@DEBUG_VALUE: ~Pipe:this <- %R4
	.loc	28 136 28               @ /usr/bin/../lib/gcc/arm-linux-gnueabihf/6.3.0/../../../../include/c++/6.3.0/bits/basic_string.h:136:28
	mov	r1, r4
	ldr	r0, [r1], #8
.Ltmp49:
	@DEBUG_VALUE: deallocate:__p <- %R0
	@DEBUG_VALUE: deallocate:__p <- %R0
	.loc	28 180 6                @ /usr/bin/../lib/gcc/arm-linux-gnueabihf/6.3.0/../../../../include/c++/6.3.0/bits/basic_string.h:180:6
	cmp	r0, r1
	beq	.LBB3_5
.Ltmp50:
@ BB#4:
	@DEBUG_VALUE: deallocate:__p <- %R0
	@DEBUG_VALUE: deallocate:__p <- %R0
	@DEBUG_VALUE: ~Pipe:this <- %R4
	.loc	7 110 9                 @ /usr/bin/../lib/gcc/arm-linux-gnueabihf/6.3.0/../../../../include/c++/6.3.0/ext/new_allocator.h:110:9
	bl	_ZdlPv
.Ltmp51:
.LBB3_5:                                @ %_ZNSt7__cxx1112basic_stringIcSt11char_traitsIcESaIcEED2Ev.exit2
	@DEBUG_VALUE: ~Pipe:this <- %R4
	.loc	22 14 21 discriminator 1 @ ./libraries/Pipe/Pipe.h:14:21
	mov	r0, r4
	pop	{r4, r5, r11, pc}
.Ltmp52:
.LBB3_6:
	@DEBUG_VALUE: ~Pipe:this <- %R4
.Ltmp36:
	mov	r5, r0
	.loc	22 14 21 is_stmt 0 discriminator 2 @ ./libraries/Pipe/Pipe.h:14:21
	add	r0, r4, #24
	bl	_ZNSt7__cxx1112basic_stringIcSt11char_traitsIcESaIcEED2Ev
	.loc	22 14 21 discriminator 5 @ ./libraries/Pipe/Pipe.h:14:21
	mov	r0, r4
	bl	_ZNSt7__cxx1112basic_stringIcSt11char_traitsIcESaIcEED2Ev
.Ltmp53:
	.loc	22 14 21 discriminator 3 @ ./libraries/Pipe/Pipe.h:14:21
	mov	r0, r5
	mov	lr, pc
	b	__cxa_call_unexpected
.Ltmp54:
.Lfunc_end3:
	.size	_ZN4PipeD2Ev, .Lfunc_end3-_ZN4PipeD2Ev
	.cfi_endproc
	.globl	__gxx_personality_v0
	.personality __gxx_personality_v0
	.handlerdata
	.p2align	2
GCC_except_table3:
.Lexception0:
	.byte	255                     @ @LPStart Encoding = omit
	.byte	0                       @ @TType Encoding = absptr
	.asciz	"\236\200\200"          @ @TType base offset
	.byte	3                       @ Call site Encoding = udata4
	.byte	26                      @ Call site table length
	.long	.Ltmp34-.Lfunc_begin3   @ >> Call Site 1 <<
	.long	.Ltmp35-.Ltmp34         @   Call between .Ltmp34 and .Ltmp35
	.long	.Ltmp36-.Lfunc_begin3   @     jumps to .Ltmp36
	.byte	1                       @   On action: 1
	.long	.Ltmp35-.Lfunc_begin3   @ >> Call Site 2 <<
	.long	.Lfunc_end3-.Ltmp35     @   Call between .Ltmp35 and .Lfunc_end3
	.long	0                       @     has no landing pad
	.byte	0                       @   On action: cleanup
	.byte	127                     @ >> Action Record 1 <<
                                        @   Filter TypeInfo -1
	.byte	0                       @   No further actions
                                        @ >> Filter TypeInfos <<
	.long	0
	.p2align	2
	.fnend

	.section	.text._ZNSt6vectorIfSaIfEED2Ev,"axG",%progbits,_ZNSt6vectorIfSaIfEED2Ev,comdat
	.weak	_ZNSt6vectorIfSaIfEED2Ev
	.p2align	2
	.type	_ZNSt6vectorIfSaIfEED2Ev,%function
_ZNSt6vectorIfSaIfEED2Ev:               @ @_ZNSt6vectorIfSaIfEED2Ev
.Lfunc_begin4:
	.loc	19 426 0 is_stmt 1      @ /usr/bin/../lib/gcc/arm-linux-gnueabihf/6.3.0/../../../../include/c++/6.3.0/bits/stl_vector.h:426:0
	.fnstart
	.cfi_startproc
@ BB#0:
	.save	{r4, r10, r11, lr}
	push	{r4, r10, r11, lr}
.Ltmp55:
	.cfi_def_cfa_offset 16
.Ltmp56:
	.cfi_offset lr, -4
.Ltmp57:
	.cfi_offset r11, -8
.Ltmp58:
	.cfi_offset r10, -12
.Ltmp59:
	.cfi_offset r4, -16
	.setfp	r11, sp, #8
	add	r11, sp, #8
.Ltmp60:
	.cfi_def_cfa r11, 8
	@DEBUG_VALUE: ~vector:this <- %R0
	mov	r4, r0
.Ltmp61:
	@DEBUG_VALUE: ~vector:this <- %R4
	.loc	19 160 37 prologue_end  @ /usr/bin/../lib/gcc/arm-linux-gnueabihf/6.3.0/../../../../include/c++/6.3.0/bits/stl_vector.h:160:37
	ldr	r0, [r4]
.Ltmp62:
	@DEBUG_VALUE: _M_deallocate:__p <- %R0
	@DEBUG_VALUE: deallocate:__p <- %R0
	@DEBUG_VALUE: deallocate:__p <- %R0
	.loc	19 177 6                @ /usr/bin/../lib/gcc/arm-linux-gnueabihf/6.3.0/../../../../include/c++/6.3.0/bits/stl_vector.h:177:6
	cmp	r0, #0
	beq	.LBB4_2
.Ltmp63:
@ BB#1:
	@DEBUG_VALUE: deallocate:__p <- %R0
	@DEBUG_VALUE: deallocate:__p <- %R0
	@DEBUG_VALUE: _M_deallocate:__p <- %R0
	@DEBUG_VALUE: ~vector:this <- %R4
	.loc	7 110 9                 @ /usr/bin/../lib/gcc/arm-linux-gnueabihf/6.3.0/../../../../include/c++/6.3.0/ext/new_allocator.h:110:9
	bl	_ZdlPv
.Ltmp64:
.LBB4_2:                                @ %_ZNSt12_Vector_baseIfSaIfEED2Ev.exit
	@DEBUG_VALUE: ~vector:this <- %R4
	.loc	19 427 33 discriminator 1 @ /usr/bin/../lib/gcc/arm-linux-gnueabihf/6.3.0/../../../../include/c++/6.3.0/bits/stl_vector.h:427:33
	mov	r0, r4
	pop	{r4, r10, r11, pc}
.Ltmp65:
.Lfunc_end4:
	.size	_ZNSt6vectorIfSaIfEED2Ev, .Lfunc_end4-_ZNSt6vectorIfSaIfEED2Ev
	.cfi_endproc
	.fnend

	.section	.text._ZN13BelaMsgParserD2Ev,"axG",%progbits,_ZN13BelaMsgParserD2Ev,comdat
	.weak	_ZN13BelaMsgParserD2Ev
	.p2align	2
	.type	_ZN13BelaMsgParserD2Ev,%function
_ZN13BelaMsgParserD2Ev:                 @ @_ZN13BelaMsgParserD2Ev
.Lfunc_begin5:
	.loc	26 72 0                 @ /root/Bela/projects/board_6/BelaMsg.h:72:0
	.fnstart
	.cfi_startproc
@ BB#0:
	.save	{r4, r10, r11, lr}
	push	{r4, r10, r11, lr}
.Ltmp66:
	.cfi_def_cfa_offset 16
.Ltmp67:
	.cfi_offset lr, -4
.Ltmp68:
	.cfi_offset r11, -8
.Ltmp69:
	.cfi_offset r10, -12
.Ltmp70:
	.cfi_offset r4, -16
	.setfp	r11, sp, #8
	add	r11, sp, #8
.Ltmp71:
	.cfi_def_cfa r11, 8
	@DEBUG_VALUE: ~BelaMsgParser:this <- %R0
	mov	r4, r0
.Ltmp72:
	@DEBUG_VALUE: ~BelaMsgParser:this <- %R4
	.loc	19 160 37 prologue_end  @ /usr/bin/../lib/gcc/arm-linux-gnueabihf/6.3.0/../../../../include/c++/6.3.0/bits/stl_vector.h:160:37
	ldr	r0, [r4, #12]
.Ltmp73:
	@DEBUG_VALUE: _M_deallocate:__p <- %R0
	@DEBUG_VALUE: deallocate:__p <- %R0
	@DEBUG_VALUE: deallocate:__p <- %R0
	.loc	19 177 6                @ /usr/bin/../lib/gcc/arm-linux-gnueabihf/6.3.0/../../../../include/c++/6.3.0/bits/stl_vector.h:177:6
	cmp	r0, #0
	beq	.LBB5_2
.Ltmp74:
@ BB#1:
	@DEBUG_VALUE: deallocate:__p <- %R0
	@DEBUG_VALUE: deallocate:__p <- %R0
	@DEBUG_VALUE: _M_deallocate:__p <- %R0
	@DEBUG_VALUE: ~BelaMsgParser:this <- %R4
	.loc	7 110 9                 @ /usr/bin/../lib/gcc/arm-linux-gnueabihf/6.3.0/../../../../include/c++/6.3.0/ext/new_allocator.h:110:9
	bl	_ZdlPv
.Ltmp75:
.LBB5_2:                                @ %_ZN13BelaMsgParser6ParsedD2Ev.exit
	@DEBUG_VALUE: ~BelaMsgParser:this <- %R4
	.loc	26 72 7                 @ /root/Bela/projects/board_6/BelaMsg.h:72:7
	mov	r0, r4
	pop	{r4, r10, r11, pc}
.Ltmp76:
.Lfunc_end5:
	.size	_ZN13BelaMsgParserD2Ev, .Lfunc_end5-_ZN13BelaMsgParserD2Ev
	.cfi_endproc
	.file	51 "<stdin>"
	.fnend

	.text
	.globl	_Z16msgSendToArduinoPKcPKfj
	.p2align	2
	.type	_Z16msgSendToArduinoPKcPKfj,%function
_Z16msgSendToArduinoPKcPKfj:            @ @_Z16msgSendToArduinoPKcPKfj
.Lfunc_begin6:
	.loc	17 171 0                @ /root/Bela/projects/board_6/BelaArduino.cpp:171:0
	.fnstart
	.cfi_startproc
@ BB#0:
	.save	{r4, r5, r6, r10, r11, lr}
	push	{r4, r5, r6, r10, r11, lr}
.Ltmp77:
	.cfi_def_cfa_offset 24
.Ltmp78:
	.cfi_offset lr, -4
.Ltmp79:
	.cfi_offset r11, -8
.Ltmp80:
	.cfi_offset r10, -12
.Ltmp81:
	.cfi_offset r6, -16
.Ltmp82:
	.cfi_offset r5, -20
.Ltmp83:
	.cfi_offset r4, -24
	.setfp	r11, sp, #16
	add	r11, sp, #16
.Ltmp84:
	.cfi_def_cfa r11, 8
	@DEBUG_VALUE: msgSendToArduino:str <- %R0
	@DEBUG_VALUE: msgSendToArduino:vals <- %R1
	@DEBUG_VALUE: msgSendToArduino:count <- %R2
	mov	r4, r2
.Ltmp85:
	@DEBUG_VALUE: msgSendToArduino:count <- %R4
	.loc	17 173 41 prologue_end  @ /root/Bela/projects/board_6/BelaArduino.cpp:173:41
	add	r2, r4, #1
	mov	r5, r1
.Ltmp86:
	@DEBUG_VALUE: msgSendToArduino:vals <- %R5
	mov	r6, r0
.Ltmp87:
	@DEBUG_VALUE: msgSendToArduino:str <- %R6
	@DEBUG_VALUE: msgSendToArduino:t <- 1
	.loc	17 173 2 is_stmt 0      @ /root/Bela/projects/board_6/BelaArduino.cpp:173:2
	mov	r0, #1
	mov	r1, #124
	bl	_Z7msgInit16BelaSourceThread12BelaReceiverj
	.loc	17 174 2 is_stmt 1      @ /root/Bela/projects/board_6/BelaArduino.cpp:174:2
	mov	r0, #1
	mov	r1, r6
.Ltmp88:
	@DEBUG_VALUE: msgSendToArduino:str <- %R1
	bl	_Z8msgAddFS16BelaSourceThreadPKc
.Ltmp89:
	@DEBUG_VALUE: n <- 0
	.loc	17 175 2 discriminator 1 @ /root/Bela/projects/board_6/BelaArduino.cpp:175:2
	cmp	r4, #0
	beq	.LBB6_3
.Ltmp90:
@ BB#1:                                 @ %.lr.ph.preheader
	@DEBUG_VALUE: msgSendToArduino:vals <- %R5
	@DEBUG_VALUE: msgSendToArduino:count <- %R4
	.file	52 "/usr/bin/../lib/gcc/arm-linux-gnueabihf/6.3.0/../../../../include/c++/6.3.0" "typeinfo"
	.loc	52 100 14               @ /usr/bin/../lib/gcc/arm-linux-gnueabihf/6.3.0/../../../../include/c++/6.3.0/typeinfo:100:14
	movw	r0, :lower16:_ZTIf
	movt	r0, :upper16:_ZTIf
	ldr	r6, [r0, #4]
.Ltmp91:
.LBB6_2:                                @ %.lr.ph
                                        @ =>This Inner Loop Header: Depth=1
	@DEBUG_VALUE: msgAdd<float>:thread <- 1
	ldrb	r0, [r6]
.Ltmp92:
	.loc	26 44 2 discriminator 1 @ /root/Bela/projects/board_6/BelaMsg.h:44:2
	mov	r2, r5
	mov	r3, #4
.Ltmp93:
	.loc	52 100 14               @ /usr/bin/../lib/gcc/arm-linux-gnueabihf/6.3.0/../../../../include/c++/6.3.0/typeinfo:100:14
	cmp	r0, #42
	mov	r0, r6
	addeq	r0, r0, #1
.Ltmp94:
	.loc	26 44 2 discriminator 1 @ /root/Bela/projects/board_6/BelaMsg.h:44:2
	ldrb	r1, [r0]
	mov	r0, #1
	bl	_Z7msgPush16BelaSourceThreadcPKvj
.Ltmp95:
	.loc	17 175 2 discriminator 1 @ /root/Bela/projects/board_6/BelaArduino.cpp:175:2
	subs	r4, r4, #1
	add	r5, r5, #4
	bne	.LBB6_2
.Ltmp96:
.LBB6_3:                                @ %._crit_edge
	.loc	17 177 2                @ /root/Bela/projects/board_6/BelaArduino.cpp:177:2
	mov	r0, #1
	pop	{r4, r5, r6, r10, r11, lr}
	b	_Z7msgSend16BelaSourceThread
.Ltmp97:
.Lfunc_end6:
	.size	_Z16msgSendToArduinoPKcPKfj, .Lfunc_end6-_Z16msgSendToArduinoPKcPKfj
	.cfi_endproc
	.fnend

	.globl	_Z11processPipev
	.p2align	2
	.type	_Z11processPipev,%function
_Z11processPipev:                       @ @_Z11processPipev
.Lfunc_begin7:
	.loc	17 212 0                @ /root/Bela/projects/board_6/BelaArduino.cpp:212:0
	.fnstart
	.cfi_startproc
@ BB#0:
	.save	{r4, r5, r6, r7, r8, r9, r10, r11, lr}
	push	{r4, r5, r6, r7, r8, r9, r10, r11, lr}
.Ltmp98:
	.cfi_def_cfa_offset 36
.Ltmp99:
	.cfi_offset lr, -4
.Ltmp100:
	.cfi_offset r11, -8
.Ltmp101:
	.cfi_offset r10, -12
.Ltmp102:
	.cfi_offset r9, -16
.Ltmp103:
	.cfi_offset r8, -20
.Ltmp104:
	.cfi_offset r7, -24
.Ltmp105:
	.cfi_offset r6, -28
.Ltmp106:
	.cfi_offset r5, -32
.Ltmp107:
	.cfi_offset r4, -36
	.setfp	r11, sp, #28
	add	r11, sp, #28
.Ltmp108:
	.cfi_def_cfa r11, 8
	.pad	#4
	sub	sp, sp, #4
	.vsave	{d8, d9}
	vpush	{d8, d9}
.Ltmp109:
	.cfi_offset d9, -48
.Ltmp110:
	.cfi_offset d8, -56
	.pad	#16
	sub	sp, sp, #16
.Ltmp111:
	.loc	17 215 39 prologue_end discriminator 1 @ /root/Bela/projects/board_6/BelaArduino.cpp:215:39
	movw	r0, :lower16:_ZL8rtParser
	movt	r0, :upper16:_ZL8rtParser
	bl	_ZN13BelaMsgParser7processEv
	mov	r6, r0
.Ltmp112:
	@DEBUG_VALUE: p <- %R6
	.loc	17 216 9                @ /root/Bela/projects/board_6/BelaArduino.cpp:216:9
	ldrb	r0, [r6, #23]
.Ltmp113:
	.loc	17 216 6 is_stmt 0      @ /root/Bela/projects/board_6/BelaArduino.cpp:216:6
	cmp	r0, #0
	beq	.LBB7_11
.Ltmp114:
@ BB#1:                                 @ %.lr.ph25
	@DEBUG_VALUE: p <- %R6
	.loc	11 313 30 is_stmt 1     @ /usr/bin/../lib/gcc/arm-linux-gnueabihf/6.3.0/../../../../include/c++/6.3.0/bits/stl_bvector.h:313:30
	movw	r10, :lower16:.L_MergedGlobals.4
.Ltmp115:
	.loc	17 215 39 discriminator 1 @ /root/Bela/projects/board_6/BelaArduino.cpp:215:39
	movw	r9, :lower16:_ZL8rtParser
.Ltmp116:
	.loc	11 313 30               @ /usr/bin/../lib/gcc/arm-linux-gnueabihf/6.3.0/../../../../include/c++/6.3.0/bits/stl_bvector.h:313:30
	movt	r10, :upper16:.L_MergedGlobals.4
	mov	r5, #1
.Ltmp117:
	.loc	17 215 39 discriminator 1 @ /root/Bela/projects/board_6/BelaArduino.cpp:215:39
	movt	r9, :upper16:_ZL8rtParser
.Ltmp118:
.LBB7_2:                                @ =>This Loop Header: Depth=1
                                        @     Child Loop BB7_8 Depth 2
	@DEBUG_VALUE: p <- %R6
	.loc	17 219 33               @ /root/Bela/projects/board_6/BelaArduino.cpp:219:33
	ldr	r0, [r6, #12]
.Ltmp119:
	.loc	17 219 6 is_stmt 0      @ /root/Bela/projects/board_6/BelaArduino.cpp:219:6
	cmp	r0, #0
	bne	.LBB7_10
.Ltmp120:
@ BB#3:                                 @   in Loop: Header=BB7_2 Depth=1
	@DEBUG_VALUE: p <- %R6
	.loc	17 227 18 is_stmt 1     @ /root/Bela/projects/board_6/BelaArduino.cpp:227:18
	mov	r0, r6
	bl	_ZN13BelaMsgParser6Parsed10popNumericEv
	.loc	17 227 14 is_stmt 0     @ /root/Bela/projects/board_6/BelaArduino.cpp:227:14
	vcvt.u32.f64	s0, d0
	.loc	17 228 19 is_stmt 1     @ /root/Bela/projects/board_6/BelaArduino.cpp:228:19
	mov	r0, r6
	.loc	17 227 14               @ /root/Bela/projects/board_6/BelaArduino.cpp:227:14
	vstr	s0, [sp, #4]
	.loc	17 228 19               @ /root/Bela/projects/board_6/BelaArduino.cpp:228:19
	bl	_ZN13BelaMsgParser6Parsed10popNumericEv
	.loc	17 228 15 is_stmt 0     @ /root/Bela/projects/board_6/BelaArduino.cpp:228:15
	vcvt.u32.f64	s0, d0
	.loc	17 229 19 is_stmt 1     @ /root/Bela/projects/board_6/BelaArduino.cpp:229:19
	mov	r0, r6
	.loc	17 228 15               @ /root/Bela/projects/board_6/BelaArduino.cpp:228:15
	vstr	s0, [sp, #8]
	.loc	17 229 19               @ /root/Bela/projects/board_6/BelaArduino.cpp:229:19
	bl	_ZN13BelaMsgParser6Parsed10popNumericEv
	.loc	17 229 15 is_stmt 0     @ /root/Bela/projects/board_6/BelaArduino.cpp:229:15
	vcvt.u32.f64	s0, d0
	.loc	17 230 24 is_stmt 1 discriminator 1 @ /root/Bela/projects/board_6/BelaArduino.cpp:230:24
	mov	r0, r6
	.loc	17 229 15               @ /root/Bela/projects/board_6/BelaArduino.cpp:229:15
	vstr	s0, [sp, #12]
	.loc	17 230 24 discriminator 1 @ /root/Bela/projects/board_6/BelaArduino.cpp:230:24
	bl	_ZN13BelaMsgParser6Parsed10popNumericEv
	.loc	17 231 22 discriminator 1 @ /root/Bela/projects/board_6/BelaArduino.cpp:231:22
	mov	r0, r6
	.loc	17 230 22               @ /root/Bela/projects/board_6/BelaArduino.cpp:230:22
	vcvt.u32.f64	s18, d0
	.loc	17 231 22 discriminator 1 @ /root/Bela/projects/board_6/BelaArduino.cpp:231:22
	bl	_ZN13BelaMsgParser6Parsed10popNumericEv
	.loc	17 230 22               @ /root/Bela/projects/board_6/BelaArduino.cpp:230:22
	vmov	r8, s18
.Ltmp121:
	@DEBUG_VALUE: resize:__new_size <- %R8
	@DEBUG_VALUE: operator+:__i <- %R8
	@DEBUG_VALUE: operator+=:__i <- %R8
	@DEBUG_VALUE: _M_incr:__i <- %R8
	.loc	11 313 30               @ /usr/bin/../lib/gcc/arm-linux-gnueabihf/6.3.0/../../../../include/c++/6.3.0/bits/stl_bvector.h:313:30
	add	r3, r10, #12
.Ltmp122:
	.loc	17 231 20               @ /root/Bela/projects/board_6/BelaArduino.cpp:231:20
	vcvt.u32.f64	s16, d0
.Ltmp123:
	@DEBUG_VALUE: resize:__x [bit_piece offset=0 size=1] <- 0
	.loc	11 313 30               @ /usr/bin/../lib/gcc/arm-linux-gnueabihf/6.3.0/../../../../include/c++/6.3.0/bits/stl_bvector.h:313:30
	ldm	r3, {r0, r1, r2, r3}
.Ltmp124:
	.loc	11 210 42               @ /usr/bin/../lib/gcc/arm-linux-gnueabihf/6.3.0/../../../../include/c++/6.3.0/bits/stl_bvector.h:210:42
	sub	r2, r2, r0
	.loc	11 211 6                @ /usr/bin/../lib/gcc/arm-linux-gnueabihf/6.3.0/../../../../include/c++/6.3.0/bits/stl_bvector.h:211:6
	sub	r3, r3, r1
	.loc	11 211 22 is_stmt 0     @ /usr/bin/../lib/gcc/arm-linux-gnueabihf/6.3.0/../../../../include/c++/6.3.0/bits/stl_bvector.h:211:22
	add	r3, r3, r2, lsl #3
.Ltmp125:
	.loc	11 1031 11 is_stmt 1    @ /usr/bin/../lib/gcc/arm-linux-gnueabihf/6.3.0/../../../../include/c++/6.3.0/bits/stl_bvector.h:1031:11
	cmp	r8, r3
	bhs	.LBB7_5
.Ltmp126:
@ BB#4:                                 @   in Loop: Header=BB7_2 Depth=1
	@DEBUG_VALUE: _M_incr:__i <- %R8
	@DEBUG_VALUE: operator+=:__i <- %R8
	@DEBUG_VALUE: operator+:__i <- %R8
	@DEBUG_VALUE: resize:__new_size <- %R8
	@DEBUG_VALUE: p <- %R6
	.loc	11 168 33               @ /usr/bin/../lib/gcc/arm-linux-gnueabihf/6.3.0/../../../../include/c++/6.3.0/bits/stl_bvector.h:168:33
	add	r2, r1, r8
.Ltmp127:
	@DEBUG_VALUE: _M_incr:__n <- %R2
	.loc	11 169 19               @ /usr/bin/../lib/gcc/arm-linux-gnueabihf/6.3.0/../../../../include/c++/6.3.0/bits/stl_bvector.h:169:19
	asr	r3, r2, #31
	add	r3, r2, r3, lsr #27
.Ltmp128:
	@DEBUG_VALUE: _M_incr:__n <- %R3
	asr	r7, r3, #5
	bfc	r3, #0, #5
.Ltmp129:
	.loc	11 170 17               @ /usr/bin/../lib/gcc/arm-linux-gnueabihf/6.3.0/../../../../include/c++/6.3.0/bits/stl_bvector.h:170:17
	sub	r3, r2, r3
	.loc	11 169 12               @ /usr/bin/../lib/gcc/arm-linux-gnueabihf/6.3.0/../../../../include/c++/6.3.0/bits/stl_bvector.h:169:12
	add	r2, r0, r7, lsl #2
	.loc	11 171 11               @ /usr/bin/../lib/gcc/arm-linux-gnueabihf/6.3.0/../../../../include/c++/6.3.0/bits/stl_bvector.h:171:11
	cmp	r3, #0
	sublt	r2, r2, #4
.Ltmp130:
	@DEBUG_VALUE: _M_erase_at_end:__pos [bit_piece offset=0 size=32] <- %R2
	@DEBUG_VALUE: _M_incr:__n <- undef
	addlt	r3, r3, #32
.Ltmp131:
	@DEBUG_VALUE: _M_erase_at_end:__pos [bit_piece offset=32 size=32] <- %R3
	.loc	11 1248 31              @ /usr/bin/../lib/gcc/arm-linux-gnueabihf/6.3.0/../../../../include/c++/6.3.0/bits/stl_bvector.h:1248:31
	str	r2, [r10, #20]
	str	r3, [r10, #24]
	b	.LBB7_6
.Ltmp132:
.LBB7_5:                                @   in Loop: Header=BB7_2 Depth=1
	@DEBUG_VALUE: _M_incr:__i <- %R8
	@DEBUG_VALUE: operator+=:__i <- %R8
	@DEBUG_VALUE: operator+:__i <- %R8
	@DEBUG_VALUE: resize:__new_size <- %R8
	@DEBUG_VALUE: p <- %R6
	mov	r0, #0
.Ltmp133:
	.loc	11 788 14               @ /usr/bin/../lib/gcc/arm-linux-gnueabihf/6.3.0/../../../../include/c++/6.3.0/bits/stl_bvector.h:788:14
	ldr	r1, [r10, #20]
	ldr	r2, [r10, #24]
.Ltmp134:
	.loc	11 1034 34              @ /usr/bin/../lib/gcc/arm-linux-gnueabihf/6.3.0/../../../../include/c++/6.3.0/bits/stl_bvector.h:1034:34
	sub	r3, r8, r3
.Ltmp135:
	@DEBUG_VALUE: insert:__n <- %R3
	.loc	11 993 7 discriminator 1 @ /usr/bin/../lib/gcc/arm-linux-gnueabihf/6.3.0/../../../../include/c++/6.3.0/bits/stl_bvector.h:993:7
	str	r0, [sp]
.Ltmp136:
	.loc	11 788 14               @ /usr/bin/../lib/gcc/arm-linux-gnueabihf/6.3.0/../../../../include/c++/6.3.0/bits/stl_bvector.h:788:14
	add	r0, r10, #12
.Ltmp137:
	@DEBUG_VALUE: insert:this <- %R0
	.loc	11 993 7 discriminator 1 @ /usr/bin/../lib/gcc/arm-linux-gnueabihf/6.3.0/../../../../include/c++/6.3.0/bits/stl_bvector.h:993:7
	bl	_ZNSt6vectorIbSaIbEE14_M_fill_insertESt13_Bit_iteratorjb
.Ltmp138:
	.loc	11 313 30               @ /usr/bin/../lib/gcc/arm-linux-gnueabihf/6.3.0/../../../../include/c++/6.3.0/bits/stl_bvector.h:313:30
	add	r3, r10, #12
	ldm	r3, {r0, r1, r2, r3}
.Ltmp139:
.LBB7_6:                                @ %_ZNSt6vectorIbSaIbEE6resizeEjb.exit.preheader
                                        @   in Loop: Header=BB7_2 Depth=1
	@DEBUG_VALUE: _M_incr:__i <- %R8
	@DEBUG_VALUE: operator+=:__i <- %R8
	@DEBUG_VALUE: operator+:__i <- %R8
	@DEBUG_VALUE: resize:__new_size <- %R8
	@DEBUG_VALUE: p <- %R6
	.loc	11 211 6                @ /usr/bin/../lib/gcc/arm-linux-gnueabihf/6.3.0/../../../../include/c++/6.3.0/bits/stl_bvector.h:211:6
	sub	r3, r3, r1
	.loc	11 210 42               @ /usr/bin/../lib/gcc/arm-linux-gnueabihf/6.3.0/../../../../include/c++/6.3.0/bits/stl_bvector.h:210:42
	sub	r1, r2, r0
.Ltmp140:
	.loc	17 237 4 discriminator 1 @ /root/Bela/projects/board_6/BelaArduino.cpp:237:4
	cmn	r3, r1, lsl #3
	beq	.LBB7_9
.Ltmp141:
@ BB#7:                                 @ %.lr.ph
                                        @   in Loop: Header=BB7_2 Depth=1
	@DEBUG_VALUE: _M_incr:__i <- %R8
	@DEBUG_VALUE: operator+=:__i <- %R8
	@DEBUG_VALUE: operator+:__i <- %R8
	@DEBUG_VALUE: resize:__new_size <- %R8
	@DEBUG_VALUE: p <- %R6
	.loc	17 231 20               @ /root/Bela/projects/board_6/BelaArduino.cpp:231:20
	vmov	r1, s16
.Ltmp142:
	@DEBUG_VALUE: bits <- %R1
	.loc	11 210 42               @ /usr/bin/../lib/gcc/arm-linux-gnueabihf/6.3.0/../../../../include/c++/6.3.0/bits/stl_bvector.h:210:42
	sub	r2, r2, r0
	.loc	11 211 22               @ /usr/bin/../lib/gcc/arm-linux-gnueabihf/6.3.0/../../../../include/c++/6.3.0/bits/stl_bvector.h:211:22
	add	r2, r3, r2, lsl #3
	mov	r3, #0
.Ltmp143:
.LBB7_8:                                @   Parent Loop BB7_2 Depth=1
                                        @ =>  This Inner Loop Header: Depth=2
	@DEBUG_VALUE: operator[]:__n <- %R3
	.loc	11 857 40               @ /usr/bin/../lib/gcc/arm-linux-gnueabihf/6.3.0/../../../../include/c++/6.3.0/bits/stl_bvector.h:857:40
	and	r7, r3, #31
.Ltmp144:
	.loc	11 86 11                @ /usr/bin/../lib/gcc/arm-linux-gnueabihf/6.3.0/../../../../include/c++/6.3.0/bits/stl_bvector.h:86:11
	tst	r1, r5, lsl r3
.Ltmp145:
	.loc	11 231 34               @ /usr/bin/../lib/gcc/arm-linux-gnueabihf/6.3.0/../../../../include/c++/6.3.0/bits/stl_bvector.h:231:34
	lsl	r4, r5, r7
.Ltmp146:
	.loc	11 857 16               @ /usr/bin/../lib/gcc/arm-linux-gnueabihf/6.3.0/../../../../include/c++/6.3.0/bits/stl_bvector.h:857:16
	lsr	r7, r3, #5
.Ltmp147:
	.loc	11 89 8                 @ /usr/bin/../lib/gcc/arm-linux-gnueabihf/6.3.0/../../../../include/c++/6.3.0/bits/stl_bvector.h:89:8
	ldr	r6, [r0, r7, lsl #2]
.Ltmp148:
	.loc	17 237 47 discriminator 3 @ /root/Bela/projects/board_6/BelaArduino.cpp:237:47
	add	r3, r3, #1
.Ltmp149:
	@DEBUG_VALUE: n <- %R3
	.loc	11 89 8                 @ /usr/bin/../lib/gcc/arm-linux-gnueabihf/6.3.0/../../../../include/c++/6.3.0/bits/stl_bvector.h:89:8
	biceq	r4, r6, r4
	.loc	11 87 8                 @ /usr/bin/../lib/gcc/arm-linux-gnueabihf/6.3.0/../../../../include/c++/6.3.0/bits/stl_bvector.h:87:8
	orrne	r4, r6, r4
	str	r4, [r0, r7, lsl #2]
.Ltmp150:
	.loc	17 237 4 discriminator 1 @ /root/Bela/projects/board_6/BelaArduino.cpp:237:4
	cmp	r3, r2
	blo	.LBB7_8
.Ltmp151:
.LBB7_9:                                @ %.critedge
                                        @   in Loop: Header=BB7_2 Depth=1
	.loc	17 239 21               @ /root/Bela/projects/board_6/BelaArduino.cpp:239:21
	add	r7, r10, #32
.Ltmp152:
	@DEBUG_VALUE: pins <- undef
	add	r1, sp, #4
	mov	r2, r8
	mov	r0, r7
	bl	_ZN13ShiftRegister5setupERKNS_4PinsEj
	.loc	17 241 21               @ /root/Bela/projects/board_6/BelaArduino.cpp:241:21
	add	r1, r10, #12
.Ltmp153:
	@DEBUG_VALUE: begin:this <- %R1
	mov	r0, r7
	bl	_ZN16ShiftRegisterOut7setDataERKSt6vectorIbSaIbEE
.Ltmp154:
	strb	r5, [r10, #1]
.Ltmp155:
.LBB7_10:                               @ %.backedge
                                        @   in Loop: Header=BB7_2 Depth=1
	.loc	17 215 39 discriminator 1 @ /root/Bela/projects/board_6/BelaArduino.cpp:215:39
	mov	r0, r9
	bl	_ZN13BelaMsgParser7processEv
	mov	r6, r0
.Ltmp156:
	@DEBUG_VALUE: p <- %R6
	.loc	17 216 9                @ /root/Bela/projects/board_6/BelaArduino.cpp:216:9
	ldrb	r0, [r6, #23]
.Ltmp157:
	.loc	17 216 6 is_stmt 0      @ /root/Bela/projects/board_6/BelaArduino.cpp:216:6
	cmp	r0, #0
	bne	.LBB7_2
.Ltmp158:
.LBB7_11:                               @ %.critedge22
	@DEBUG_VALUE: p <- %R6
	.loc	17 295 1 is_stmt 1      @ /root/Bela/projects/board_6/BelaArduino.cpp:295:1
	sub	sp, r11, #48
	vpop	{d8, d9}
	add	sp, sp, #4
	pop	{r4, r5, r6, r7, r8, r9, r10, r11, pc}
.Ltmp159:
.Lfunc_end7:
	.size	_Z11processPipev, .Lfunc_end7-_Z11processPipev
	.cfi_endproc
	.fnend

	.section	.text._ZN13BelaMsgParser7processEv,"axG",%progbits,_ZN13BelaMsgParser7processEv,comdat
	.weak	_ZN13BelaMsgParser7processEv
	.p2align	2
	.type	_ZN13BelaMsgParser7processEv,%function
_ZN13BelaMsgParser7processEv:           @ @_ZN13BelaMsgParser7processEv
.Lfunc_begin8:
	.loc	26 187 0                @ /root/Bela/projects/board_6/BelaMsg.h:187:0
	.fnstart
	.cfi_startproc
@ BB#0:
	.save	{r4, r5, r6, r10, r11, lr}
	push	{r4, r5, r6, r10, r11, lr}
.Ltmp160:
	.cfi_def_cfa_offset 24
.Ltmp161:
	.cfi_offset lr, -4
.Ltmp162:
	.cfi_offset r11, -8
.Ltmp163:
	.cfi_offset r10, -12
.Ltmp164:
	.cfi_offset r6, -16
.Ltmp165:
	.cfi_offset r5, -20
.Ltmp166:
	.cfi_offset r4, -24
	.setfp	r11, sp, #16
	add	r11, sp, #16
.Ltmp167:
	.cfi_def_cfa r11, 8
	@DEBUG_VALUE: process:this <- %R0
	mov	r4, r0
.Ltmp168:
	@DEBUG_VALUE: process:this <- %R4
	mov	r0, #0
.Ltmp169:
	.loc	26 188 10 prologue_end  @ /root/Bela/projects/board_6/BelaMsg.h:188:10
	strb	r0, [r4, #35]
	.loc	26 188 3 is_stmt 0      @ /root/Bela/projects/board_6/BelaMsg.h:188:3
	add	r5, r4, #12
.Ltmp170:
	.loc	26 189 17 is_stmt 1     @ /root/Bela/projects/board_6/BelaMsg.h:189:17
	ldr	r0, [r4]
.Ltmp171:
	.loc	26 189 6 is_stmt 0      @ /root/Bela/projects/board_6/BelaMsg.h:189:6
	cmp	r0, #0
	beq	.LBB8_3
.Ltmp172:
@ BB#1:
	@DEBUG_VALUE: process:this <- %R4
	cmp	r0, #1
	bne	.LBB8_16
.Ltmp173:
@ BB#2:                                 @ %._crit_edge
	@DEBUG_VALUE: process:this <- %R4
	.loc	26 205 17 is_stmt 1     @ /root/Bela/projects/board_6/BelaMsg.h:205:17
	add	r6, r4, #4
	b	.LBB8_8
.Ltmp174:
.LBB8_3:
	@DEBUG_VALUE: process:this <- %R4
	.loc	26 192 19 discriminator 1 @ /root/Bela/projects/board_6/BelaMsg.h:192:19
	ldr	r0, [r4, #8]
.Ltmp175:
	@DEBUG_VALUE: readRt<unsigned int>:this <- %R0
	@DEBUG_VALUE: readRt<unsigned int>:this <- %R0
	@DEBUG_VALUE: readNonRt<unsigned int>:this <- %R0
	@DEBUG_VALUE: readNonRt<unsigned int>:this <- %R0
	.loc	26 192 31 is_stmt 0 discriminator 1 @ /root/Bela/projects/board_6/BelaMsg.h:192:31
	add	r6, r4, #4
.Ltmp176:
	@DEBUG_VALUE: readRt<unsigned int>:dest <- %R6
	@DEBUG_VALUE: readRt<unsigned int>:dest <- %R6
	@DEBUG_VALUE: readNonRt<unsigned int>:dest <- %R6
	@DEBUG_VALUE: readNonRt<unsigned int>:dest <- %R6
	.loc	26 192 14               @ /root/Bela/projects/board_6/BelaMsg.h:192:14
	ldrb	r1, [r4, #36]
	cmp	r1, #0
	beq	.LBB8_5
.Ltmp177:
@ BB#4:
	@DEBUG_VALUE: readNonRt<unsigned int>:dest <- %R6
	@DEBUG_VALUE: readNonRt<unsigned int>:dest <- %R6
	@DEBUG_VALUE: readRt<unsigned int>:dest <- %R6
	@DEBUG_VALUE: readRt<unsigned int>:dest <- %R6
	@DEBUG_VALUE: readNonRt<unsigned int>:this <- %R0
	@DEBUG_VALUE: readNonRt<unsigned int>:this <- %R0
	@DEBUG_VALUE: readRt<unsigned int>:this <- %R0
	@DEBUG_VALUE: readRt<unsigned int>:this <- %R0
	@DEBUG_VALUE: process:this <- %R4
	@DEBUG_VALUE: readRt<unsigned int>:count <- 1
	.loc	22 123 16 is_stmt 1 discriminator 1 @ ./libraries/Pipe/Pipe.h:123:16
	mov	r1, r6
	mov	r2, #4
	bl	_ZN4Pipe7_readRtEPvj
.Ltmp178:
	b	.LBB8_6
.Ltmp179:
.LBB8_5:
	@DEBUG_VALUE: readNonRt<unsigned int>:dest <- %R6
	@DEBUG_VALUE: readNonRt<unsigned int>:dest <- %R6
	@DEBUG_VALUE: readRt<unsigned int>:dest <- %R6
	@DEBUG_VALUE: readRt<unsigned int>:dest <- %R6
	@DEBUG_VALUE: readNonRt<unsigned int>:this <- %R0
	@DEBUG_VALUE: readNonRt<unsigned int>:this <- %R0
	@DEBUG_VALUE: readRt<unsigned int>:this <- %R0
	@DEBUG_VALUE: readRt<unsigned int>:this <- %R0
	@DEBUG_VALUE: process:this <- %R4
	@DEBUG_VALUE: readNonRt<unsigned int>:count <- 1
	.loc	22 137 16 discriminator 1 @ ./libraries/Pipe/Pipe.h:137:16
	mov	r1, r6
	mov	r2, #4
	bl	_ZN4Pipe10_readNonRtEPvj
.Ltmp180:
.LBB8_6:
	@DEBUG_VALUE: readNonRt<unsigned int>:dest <- %R6
	@DEBUG_VALUE: readNonRt<unsigned int>:dest <- %R6
	@DEBUG_VALUE: readRt<unsigned int>:dest <- %R6
	@DEBUG_VALUE: readRt<unsigned int>:dest <- %R6
	@DEBUG_VALUE: process:this <- %R4
	@DEBUG_VALUE: readNonRt<unsigned int>:ret <- %R0
	.loc	22 138 5                @ ./libraries/Pipe/Pipe.h:138:5
	cmp	r0, #0
	lsrge	r0, r0, #2
.Ltmp181:
	@DEBUG_VALUE: ret <- %R0
	.loc	26 193 7                @ /root/Bela/projects/board_6/BelaMsg.h:193:7
	cmp	r0, #1
	bne	.LBB8_16
.Ltmp182:
@ BB#7:                                 @ %.thread
	@DEBUG_VALUE: ret <- %R0
	@DEBUG_VALUE: readNonRt<unsigned int>:dest <- %R6
	@DEBUG_VALUE: readNonRt<unsigned int>:dest <- %R6
	@DEBUG_VALUE: readRt<unsigned int>:dest <- %R6
	@DEBUG_VALUE: readRt<unsigned int>:dest <- %R6
	@DEBUG_VALUE: process:this <- %R4
	.loc	26 194 16               @ /root/Bela/projects/board_6/BelaMsg.h:194:16
	mov	r0, #1
.Ltmp183:
	str	r0, [r4]
.Ltmp184:
.LBB8_8:
	@DEBUG_VALUE: process:this <- %R4
	.loc	19 656 66               @ /usr/bin/../lib/gcc/arm-linux-gnueabihf/6.3.0/../../../../include/c++/6.3.0/bits/stl_vector.h:656:66
	ldr	r1, [r4, #12]
	.loc	19 656 40 is_stmt 0     @ /usr/bin/../lib/gcc/arm-linux-gnueabihf/6.3.0/../../../../include/c++/6.3.0/bits/stl_vector.h:656:40
	ldr	r0, [r4, #16]
.Ltmp185:
	.loc	26 205 17 is_stmt 1     @ /root/Bela/projects/board_6/BelaMsg.h:205:17
	ldr	r2, [r4, #4]
.Ltmp186:
	@DEBUG_VALUE: resize:__new_size <- %R2
	.loc	19 656 50               @ /usr/bin/../lib/gcc/arm-linux-gnueabihf/6.3.0/../../../../include/c++/6.3.0/bits/stl_vector.h:656:50
	sub	r0, r0, r1
.Ltmp187:
	.loc	19 676 6                @ /usr/bin/../lib/gcc/arm-linux-gnueabihf/6.3.0/../../../../include/c++/6.3.0/bits/stl_vector.h:676:6
	cmp	r2, r0
	bls	.LBB8_10
.Ltmp188:
@ BB#9:
	@DEBUG_VALUE: resize:__new_size <- %R2
	@DEBUG_VALUE: process:this <- %R4
	.loc	19 677 33               @ /usr/bin/../lib/gcc/arm-linux-gnueabihf/6.3.0/../../../../include/c++/6.3.0/bits/stl_vector.h:677:33
	sub	r1, r2, r0
.Ltmp189:
	@DEBUG_VALUE: resize:this <- %R5
	@DEBUG_VALUE: size:this <- %R5
	@DEBUG_VALUE: size:this <- %R5
	@DEBUG_VALUE: _M_erase_at_end:this <- %R5
	@DEBUG_VALUE: data:this <- %R5
	@DEBUG_VALUE: operator[]:this <- %R5
	@DEBUG_VALUE: operator[]:this <- %R5
	@DEBUG_VALUE: data:this <- %R5
	.loc	19 677 4 is_stmt 0 discriminator 1 @ /usr/bin/../lib/gcc/arm-linux-gnueabihf/6.3.0/../../../../include/c++/6.3.0/bits/stl_vector.h:677:4
	mov	r0, r5
	bl	_ZNSt6vectorIhSaIhEE17_M_default_appendEj
.Ltmp190:
	.loc	26 206 47 is_stmt 1 discriminator 1 @ /root/Bela/projects/board_6/BelaMsg.h:206:47
	ldr	r2, [r6]
.Ltmp191:
	.loc	19 892 42               @ /usr/bin/../lib/gcc/arm-linux-gnueabihf/6.3.0/../../../../include/c++/6.3.0/bits/stl_vector.h:892:42
	ldr	r1, [r5]
	b	.LBB8_11
.Ltmp192:
.LBB8_10:
	@DEBUG_VALUE: resize:__new_size <- %R2
	@DEBUG_VALUE: process:this <- %R4
	.loc	19 679 43               @ /usr/bin/../lib/gcc/arm-linux-gnueabihf/6.3.0/../../../../include/c++/6.3.0/bits/stl_vector.h:679:43
	addlo	r0, r1, r2
.Ltmp193:
	@DEBUG_VALUE: _M_erase_at_end:__pos <- %R0
	.loc	19 1437 26              @ /usr/bin/../lib/gcc/arm-linux-gnueabihf/6.3.0/../../../../include/c++/6.3.0/bits/stl_vector.h:1437:26
	strlo	r0, [r4, #16]
.Ltmp194:
.LBB8_11:                               @ %_ZNSt6vectorIhSaIhEE6resizeEj.exit
	@DEBUG_VALUE: process:this <- %R4
	.loc	26 206 21 discriminator 1 @ /root/Bela/projects/board_6/BelaMsg.h:206:21
	ldr	r0, [r4, #8]
.Ltmp195:
	@DEBUG_VALUE: readRt<unsigned char>:this <- %R0
	@DEBUG_VALUE: readNonRt<unsigned char>:this <- %R0
	.loc	26 206 16 is_stmt 0     @ /root/Bela/projects/board_6/BelaMsg.h:206:16
	ldrb	r3, [r4, #36]
	cmp	r3, #0
	beq	.LBB8_13
.Ltmp196:
@ BB#12:
	@DEBUG_VALUE: readNonRt<unsigned char>:this <- %R0
	@DEBUG_VALUE: readRt<unsigned char>:this <- %R0
	@DEBUG_VALUE: process:this <- %R4
	@DEBUG_VALUE: readRt<unsigned char>:count <- %R2
	@DEBUG_VALUE: readRt<unsigned char>:dest <- %R1
	.loc	22 123 16 is_stmt 1 discriminator 1 @ ./libraries/Pipe/Pipe.h:123:16
	bl	_ZN4Pipe7_readRtEPvj
.Ltmp197:
	@DEBUG_VALUE: readRt<unsigned char>:ret <- %R0
	b	.LBB8_14
.Ltmp198:
.LBB8_13:
	@DEBUG_VALUE: readNonRt<unsigned char>:this <- %R0
	@DEBUG_VALUE: readRt<unsigned char>:this <- %R0
	@DEBUG_VALUE: process:this <- %R4
	.loc	22 137 16 discriminator 1 @ ./libraries/Pipe/Pipe.h:137:16
	bl	_ZN4Pipe10_readNonRtEPvj
.Ltmp199:
	@DEBUG_VALUE: readNonRt<unsigned char>:ret <- %R0
.LBB8_14:
	@DEBUG_VALUE: process:this <- %R4
	@DEBUG_VALUE: rd <- %R0
	.loc	26 207 13               @ /root/Bela/projects/board_6/BelaMsg.h:207:13
	ldr	r1, [r6]
.Ltmp200:
	.loc	26 207 7 is_stmt 0      @ /root/Bela/projects/board_6/BelaMsg.h:207:7
	cmp	r0, r1
	bne	.LBB8_16
.Ltmp201:
@ BB#15:                                @ %.critedge11
	@DEBUG_VALUE: rd <- %R0
	@DEBUG_VALUE: process:this <- %R4
	mov	r0, #0
.Ltmp202:
	mov	r1, #1
	.loc	26 209 15 is_stmt 1     @ /root/Bela/projects/board_6/BelaMsg.h:209:15
	str	r0, [r4]
	.loc	26 210 11               @ /root/Bela/projects/board_6/BelaMsg.h:210:11
	strb	r1, [r4, #35]
.Ltmp203:
	@DEBUG_VALUE: operator[]:__n <- 0
	.loc	19 781 32               @ /usr/bin/../lib/gcc/arm-linux-gnueabihf/6.3.0/../../../../include/c++/6.3.0/bits/stl_vector.h:781:32
	ldr	r1, [r4, #12]
.Ltmp204:
	.loc	26 211 16               @ /root/Bela/projects/board_6/BelaMsg.h:211:16
	ldrb	r2, [r1]
	.loc	26 211 14 is_stmt 0     @ /root/Bela/projects/board_6/BelaMsg.h:211:14
	strb	r2, [r4, #32]
.Ltmp205:
	@DEBUG_VALUE: operator[]:__n <- 1
	.loc	26 212 12 is_stmt 1     @ /root/Bela/projects/board_6/BelaMsg.h:212:12
	ldrb	r3, [r1, #1]
	.loc	26 213 26               @ /root/Bela/projects/board_6/BelaMsg.h:213:26
	add	r1, r1, #2
	.loc	26 212 10               @ /root/Bela/projects/board_6/BelaMsg.h:212:10
	str	r3, [r4, #24]
	.loc	26 213 11               @ /root/Bela/projects/board_6/BelaMsg.h:213:11
	str	r1, [r4, #28]
	.loc	26 214 30               @ /root/Bela/projects/board_6/BelaMsg.h:214:30
	add	r1, r2, #2
	.loc	26 214 14 is_stmt 0     @ /root/Bela/projects/board_6/BelaMsg.h:214:14
	strb	r1, [r4, #34]
	.loc	26 215 14 is_stmt 1     @ /root/Bela/projects/board_6/BelaMsg.h:215:14
	strb	r0, [r4, #33]
.Ltmp206:
.LBB8_16:
	@DEBUG_VALUE: process:this <- %R4
	.loc	26 218 2                @ /root/Bela/projects/board_6/BelaMsg.h:218:2
	mov	r0, r5
	pop	{r4, r5, r6, r10, r11, pc}
.Ltmp207:
.Lfunc_end8:
	.size	_ZN13BelaMsgParser7processEv, .Lfunc_end8-_ZN13BelaMsgParser7processEv
	.cfi_endproc
	.fnend

	.section	.text._ZN13BelaMsgParser6Parsed10popNumericEv,"axG",%progbits,_ZN13BelaMsgParser6Parsed10popNumericEv,comdat
	.weak	_ZN13BelaMsgParser6Parsed10popNumericEv
	.p2align	2
	.type	_ZN13BelaMsgParser6Parsed10popNumericEv,%function
_ZN13BelaMsgParser6Parsed10popNumericEv: @ @_ZN13BelaMsgParser6Parsed10popNumericEv
.Lfunc_begin9:
	.loc	26 151 0                @ /root/Bela/projects/board_6/BelaMsg.h:151:0
	.fnstart
	.cfi_startproc
@ BB#0:
	@DEBUG_VALUE: popNumeric:this <- %R0
	@DEBUG_VALUE: tag:this <- %R0
	.loc	26 87 11 prologue_end   @ /root/Bela/projects/board_6/BelaMsg.h:87:11
	ldrb	r1, [r0, #21]
	vmov.i32	d0, #0x0
.Ltmp208:
	.loc	26 171 11               @ /root/Bela/projects/board_6/BelaMsg.h:171:11
	ldr	r2, [r0, #16]
	ldrb	r2, [r2, r1]
.Ltmp209:
	.loc	26 152 4                @ /root/Bela/projects/board_6/BelaMsg.h:152:4
	sub	r2, r2, #99
	cmp	r2, #7
	.loc	26 168 3                @ /root/Bela/projects/board_6/BelaMsg.h:168:3
	bxhi	lr
	adr	r3, .LJTI9_0
	lsl	r2, r2, #2
	ldr	pc, [r2, r3]
@ BB#1:
	.p2align	2
.LJTI9_0:
	.long	.LBB9_2
	.long	.LBB9_3
	.long	.LBB9_9
	.long	.LBB9_4
	.long	.LBB9_9
	.long	.LBB9_2
	.long	.LBB9_5
	.long	.LBB9_6
.LBB9_2:
	@DEBUG_VALUE: tag:this <- %R0
	@DEBUG_VALUE: popNumeric:this <- %R0
.Ltmp210:
	@DEBUG_VALUE: pop<unsigned char>:this <- %R0
	.loc	26 85 30                @ /root/Bela/projects/board_6/BelaMsg.h:85:30
	ldrb	r2, [r0, #22]
.Ltmp211:
	.loc	19 892 42               @ /usr/bin/../lib/gcc/arm-linux-gnueabihf/6.3.0/../../../../include/c++/6.3.0/bits/stl_vector.h:892:42
	ldr	r3, [r0]
.Ltmp212:
	.loc	26 85 4 discriminator 1 @ /root/Bela/projects/board_6/BelaMsg.h:85:4
	ldrb	r3, [r3, r2]
	.loc	26 86 12                @ /root/Bela/projects/board_6/BelaMsg.h:86:12
	add	r2, r2, #1
	b	.LBB9_7
.Ltmp213:
.LBB9_3:
	@DEBUG_VALUE: tag:this <- %R0
	@DEBUG_VALUE: popNumeric:this <- %R0
	@DEBUG_VALUE: pop<double>:this <- %R0
	.loc	26 85 30                @ /root/Bela/projects/board_6/BelaMsg.h:85:30
	ldrb	r2, [r0, #22]
.Ltmp214:
	.loc	19 892 42               @ /usr/bin/../lib/gcc/arm-linux-gnueabihf/6.3.0/../../../../include/c++/6.3.0/bits/stl_vector.h:892:42
	ldr	r3, [r0]
.Ltmp215:
	.loc	26 85 28                @ /root/Bela/projects/board_6/BelaMsg.h:85:28
	add	r3, r3, r2
	.loc	26 86 12                @ /root/Bela/projects/board_6/BelaMsg.h:86:12
	add	r2, r2, #8
	.loc	26 85 4 discriminator 1 @ /root/Bela/projects/board_6/BelaMsg.h:85:4
	vld1.8	{d0}, [r3]
.Ltmp216:
	@DEBUG_VALUE: popType<double>:t <- %D0
	b	.LBB9_8
.Ltmp217:
.LBB9_4:
	@DEBUG_VALUE: tag:this <- %R0
	@DEBUG_VALUE: popNumeric:this <- %R0
	@DEBUG_VALUE: pop<float>:this <- %R0
	.loc	26 85 30 is_stmt 0      @ /root/Bela/projects/board_6/BelaMsg.h:85:30
	ldrb	r2, [r0, #22]
.Ltmp218:
	.loc	19 892 42 is_stmt 1     @ /usr/bin/../lib/gcc/arm-linux-gnueabihf/6.3.0/../../../../include/c++/6.3.0/bits/stl_vector.h:892:42
	ldr	r3, [r0]
.Ltmp219:
	.loc	26 85 4 discriminator 1 @ /root/Bela/projects/board_6/BelaMsg.h:85:4
	ldr	r3, [r3, r2]
.Ltmp220:
	.loc	26 86 12                @ /root/Bela/projects/board_6/BelaMsg.h:86:12
	add	r2, r2, #4
.Ltmp221:
	.loc	26 85 4 discriminator 1 @ /root/Bela/projects/board_6/BelaMsg.h:85:4
	vmov	d0, r3, r3
.Ltmp222:
	@DEBUG_VALUE: popType<float>:t <- %S0
	.loc	26 163 13               @ /root/Bela/projects/board_6/BelaMsg.h:163:13
	vcvt.f64.f32	d0, s0
.Ltmp223:
	b	.LBB9_8
.LBB9_5:
	@DEBUG_VALUE: tag:this <- %R0
	@DEBUG_VALUE: popNumeric:this <- %R0
.Ltmp224:
	@DEBUG_VALUE: pop<int>:this <- %R0
	.loc	26 85 30                @ /root/Bela/projects/board_6/BelaMsg.h:85:30
	ldrb	r2, [r0, #22]
.Ltmp225:
	.loc	19 892 42               @ /usr/bin/../lib/gcc/arm-linux-gnueabihf/6.3.0/../../../../include/c++/6.3.0/bits/stl_vector.h:892:42
	ldr	r3, [r0]
.Ltmp226:
	.loc	26 85 4 discriminator 1 @ /root/Bela/projects/board_6/BelaMsg.h:85:4
	ldr	r3, [r3, r2]
.Ltmp227:
	@DEBUG_VALUE: popType<int>:t <- %R3
	.loc	26 86 12                @ /root/Bela/projects/board_6/BelaMsg.h:86:12
	add	r2, r2, #4
.Ltmp228:
	.loc	26 161 13               @ /root/Bela/projects/board_6/BelaMsg.h:161:13
	vmov	s0, r3
.Ltmp229:
	@DEBUG_VALUE: popType<int>:t <- %S0
	vcvt.f64.s32	d0, s0
.Ltmp230:
	b	.LBB9_8
.LBB9_6:
	@DEBUG_VALUE: tag:this <- %R0
	@DEBUG_VALUE: popNumeric:this <- %R0
.Ltmp231:
	@DEBUG_VALUE: pop<unsigned int>:this <- %R0
	.loc	26 85 30                @ /root/Bela/projects/board_6/BelaMsg.h:85:30
	ldrb	r2, [r0, #22]
.Ltmp232:
	.loc	19 892 42               @ /usr/bin/../lib/gcc/arm-linux-gnueabihf/6.3.0/../../../../include/c++/6.3.0/bits/stl_vector.h:892:42
	ldr	r3, [r0]
.Ltmp233:
	.loc	26 85 4 discriminator 1 @ /root/Bela/projects/board_6/BelaMsg.h:85:4
	ldr	r3, [r3, r2]
.Ltmp234:
	@DEBUG_VALUE: popType<unsigned int>:t <- %R3
	.loc	26 86 12                @ /root/Bela/projects/board_6/BelaMsg.h:86:12
	add	r2, r2, #4
.Ltmp235:
.LBB9_7:
	@DEBUG_VALUE: tag:this <- %R0
	@DEBUG_VALUE: popNumeric:this <- %R0
	.loc	26 159 13               @ /root/Bela/projects/board_6/BelaMsg.h:159:13
	vmov	s0, r3
.Ltmp236:
	@DEBUG_VALUE: popType<unsigned int>:t <- %S0
	vcvt.f64.u32	d0, s0
.Ltmp237:
.LBB9_8:
	@DEBUG_VALUE: tag:this <- %R0
	@DEBUG_VALUE: popNumeric:this <- %R0
	.loc	26 86 12                @ /root/Bela/projects/board_6/BelaMsg.h:86:12
	strb	r2, [r0, #22]
	.loc	26 87 11                @ /root/Bela/projects/board_6/BelaMsg.h:87:11
	add	r1, r1, #1
	strb	r1, [r0, #21]
.Ltmp238:
.LBB9_9:
	@DEBUG_VALUE: tag:this <- %R0
	@DEBUG_VALUE: popNumeric:this <- %R0
	.loc	26 168 3                @ /root/Bela/projects/board_6/BelaMsg.h:168:3
	bx	lr
.Ltmp239:
.Lfunc_end9:
	.size	_ZN13BelaMsgParser6Parsed10popNumericEv, .Lfunc_end9-_ZN13BelaMsgParser6Parsed10popNumericEv
	.cfi_endproc
	.fnend

	.text
	.globl	_Z17BelaArduino_setupP11BelaContextPv
	.p2align	2
	.type	_Z17BelaArduino_setupP11BelaContextPv,%function
_Z17BelaArduino_setupP11BelaContextPv:  @ @_Z17BelaArduino_setupP11BelaContextPv
.Lfunc_begin10:
	.loc	17 298 0                @ /root/Bela/projects/board_6/BelaArduino.cpp:298:0
	.fnstart
	.cfi_startproc
@ BB#0:
	.save	{r4, r5, r6, r10, r11, lr}
	push	{r4, r5, r6, r10, r11, lr}
.Ltmp243:
	.cfi_def_cfa_offset 24
.Ltmp244:
	.cfi_offset lr, -4
.Ltmp245:
	.cfi_offset r11, -8
.Ltmp246:
	.cfi_offset r10, -12
.Ltmp247:
	.cfi_offset r6, -16
.Ltmp248:
	.cfi_offset r5, -20
.Ltmp249:
	.cfi_offset r4, -24
	.setfp	r11, sp, #16
	add	r11, sp, #16
.Ltmp250:
	.cfi_def_cfa r11, 8
	.pad	#48
	sub	sp, sp, #48
	@DEBUG_VALUE: BelaArduino_setup:context <- %R0
	@DEBUG_VALUE: BelaArduino_setup: <- %R1
.Ltmp251:
	.loc	11 313 30 prologue_end  @ /usr/bin/../lib/gcc/arm-linux-gnueabihf/6.3.0/../../../../include/c++/6.3.0/bits/stl_bvector.h:313:30
	movw	r6, :lower16:.L_MergedGlobals.4
	mov	r4, r0
.Ltmp252:
	@DEBUG_VALUE: BelaArduino_setup:context <- %R4
	mov	r0, #0
	movt	r6, :upper16:.L_MergedGlobals.4
.Ltmp253:
	.loc	11 313 30 is_stmt 0     @ /usr/bin/../lib/gcc/arm-linux-gnueabihf/6.3.0/../../../../include/c++/6.3.0/bits/stl_bvector.h:313:30
	add	r3, r6, #12
.Ltmp254:
	.loc	17 303 22 is_stmt 1 discriminator 1 @ /root/Bela/projects/board_6/BelaArduino.cpp:303:22
	str	r0, [sp, #36]
	str	r0, [sp, #32]
	str	r0, [sp, #40]
.Ltmp255:
	.loc	11 313 30               @ /usr/bin/../lib/gcc/arm-linux-gnueabihf/6.3.0/../../../../include/c++/6.3.0/bits/stl_bvector.h:313:30
	ldm	r3, {r0, r1, r2, r3}
.Ltmp256:
	.loc	11 210 42               @ /usr/bin/../lib/gcc/arm-linux-gnueabihf/6.3.0/../../../../include/c++/6.3.0/bits/stl_bvector.h:210:42
	sub	r0, r2, r0
	.loc	11 211 6                @ /usr/bin/../lib/gcc/arm-linux-gnueabihf/6.3.0/../../../../include/c++/6.3.0/bits/stl_bvector.h:211:6
	sub	r1, r3, r1
	.loc	11 211 22 is_stmt 0     @ /usr/bin/../lib/gcc/arm-linux-gnueabihf/6.3.0/../../../../include/c++/6.3.0/bits/stl_bvector.h:211:22
	add	r2, r1, r0, lsl #3
.Ltmp257:
	.loc	17 304 19 is_stmt 1 discriminator 1 @ /root/Bela/projects/board_6/BelaArduino.cpp:304:19
	add	r0, r6, #32
	add	r1, sp, #32
.Ltmp258:
	@DEBUG_VALUE: BelaArduino_setup:pins <- [%R1+0]
	bl	_ZN13ShiftRegister5setupERKNS_4PinsEj
.Ltmp259:
	.loc	17 306 15               @ /root/Bela/projects/board_6/BelaArduino.cpp:306:15
	ldr	r0, [r4, #36]
	.loc	17 306 28 is_stmt 0     @ /root/Bela/projects/board_6/BelaArduino.cpp:306:28
	cmp	r0, #0
	.loc	17 306 65 discriminator 1 @ /root/Bela/projects/board_6/BelaArduino.cpp:306:65
	ldrne	r1, [r4, #20]
	.loc	17 306 78 discriminator 1 @ /root/Bela/projects/board_6/BelaArduino.cpp:306:78
	cmpne	r0, r1
	bne	.LBB10_19
.Ltmp260:
@ BB#1:
	@DEBUG_VALUE: BelaArduino_setup:context <- %R4
	.loc	17 306 91 discriminator 2 @ /root/Bela/projects/board_6/BelaArduino.cpp:306:91
	ldr	r0, [r4, #52]
	.loc	17 306 105 discriminator 2 @ /root/Bela/projects/board_6/BelaArduino.cpp:306:105
	cmp	r0, #0
	.loc	17 306 143 discriminator 3 @ /root/Bela/projects/board_6/BelaArduino.cpp:306:143
	ldrne	r1, [r4, #20]
	.loc	17 306 5 discriminator 3 @ /root/Bela/projects/board_6/BelaArduino.cpp:306:5
	cmpne	r0, r1
	bne	.LBB10_19
.Ltmp261:
@ BB#2:
	@DEBUG_VALUE: BelaArduino_setup:context <- %R4
	.loc	17 311 5 is_stmt 1      @ /root/Bela/projects/board_6/BelaArduino.cpp:311:5
	ldrb	r0, [r4, #88]
	tst	r0, #1
	bne	.LBB10_20
.Ltmp262:
@ BB#3:
	@DEBUG_VALUE: BelaArduino_setup:context <- %R4
	@DEBUG_VALUE: resize:__new_size <- %R1
	.loc	19 656 40               @ /usr/bin/../lib/gcc/arm-linux-gnueabihf/6.3.0/../../../../include/c++/6.3.0/bits/stl_vector.h:656:40
	movw	r5, :lower16:.L_MergedGlobals
.Ltmp263:
	.loc	17 358 27               @ /root/Bela/projects/board_6/BelaArduino.cpp:358:27
	ldr	r1, [r4, #40]
.Ltmp264:
	.loc	19 656 40               @ /usr/bin/../lib/gcc/arm-linux-gnueabihf/6.3.0/../../../../include/c++/6.3.0/bits/stl_vector.h:656:40
	movt	r5, :upper16:.L_MergedGlobals
	.loc	19 656 66 is_stmt 0     @ /usr/bin/../lib/gcc/arm-linux-gnueabihf/6.3.0/../../../../include/c++/6.3.0/bits/stl_vector.h:656:66
	ldr	r0, [r5, #12]
	.loc	19 656 40               @ /usr/bin/../lib/gcc/arm-linux-gnueabihf/6.3.0/../../../../include/c++/6.3.0/bits/stl_vector.h:656:40
	ldr	r2, [r5, #16]
	.loc	19 656 50               @ /usr/bin/../lib/gcc/arm-linux-gnueabihf/6.3.0/../../../../include/c++/6.3.0/bits/stl_vector.h:656:50
	sub	r3, r2, r0
	asr	r2, r3, #2
.Ltmp265:
	.loc	19 676 6 is_stmt 1      @ /usr/bin/../lib/gcc/arm-linux-gnueabihf/6.3.0/../../../../include/c++/6.3.0/bits/stl_vector.h:676:6
	cmp	r1, r3, asr #2
	bls	.LBB10_5
.Ltmp266:
@ BB#4:
	@DEBUG_VALUE: BelaArduino_setup:context <- %R4
	.loc	19 677 33               @ /usr/bin/../lib/gcc/arm-linux-gnueabihf/6.3.0/../../../../include/c++/6.3.0/bits/stl_vector.h:677:33
	sub	r1, r1, r2
	.loc	19 677 4 is_stmt 0 discriminator 1 @ /usr/bin/../lib/gcc/arm-linux-gnueabihf/6.3.0/../../../../include/c++/6.3.0/bits/stl_vector.h:677:4
	add	r0, r5, #12
.Ltmp267:
	@DEBUG_VALUE: _M_erase_at_end:this <- %R0
	bl	_ZNSt6vectorIfSaIfEE17_M_default_appendEj
.Ltmp268:
	b	.LBB10_6
.Ltmp269:
.LBB10_5:
	@DEBUG_VALUE: BelaArduino_setup:context <- %R4
	.loc	19 678 11 is_stmt 1     @ /usr/bin/../lib/gcc/arm-linux-gnueabihf/6.3.0/../../../../include/c++/6.3.0/bits/stl_vector.h:678:11
	cmp	r1, r2
.Ltmp270:
	.loc	19 679 43               @ /usr/bin/../lib/gcc/arm-linux-gnueabihf/6.3.0/../../../../include/c++/6.3.0/bits/stl_vector.h:679:43
	addlo	r0, r0, r1, lsl #2
.Ltmp271:
	@DEBUG_VALUE: _M_erase_at_end:__pos <- %R0
	.loc	19 1437 26              @ /usr/bin/../lib/gcc/arm-linux-gnueabihf/6.3.0/../../../../include/c++/6.3.0/bits/stl_vector.h:1437:26
	strlo	r0, [r5, #16]
.Ltmp272:
.LBB10_6:                               @ %_ZNSt6vectorIfSaIfEE6resizeEj.exit
	@DEBUG_VALUE: BelaArduino_setup:context <- %R4
	@DEBUG_VALUE: resize:__new_size <- %R0
	.loc	19 656 66               @ /usr/bin/../lib/gcc/arm-linux-gnueabihf/6.3.0/../../../../include/c++/6.3.0/bits/stl_vector.h:656:66
	ldrd	r2, r3, [r5, #24]
.Ltmp273:
	.loc	17 359 28               @ /root/Bela/projects/board_6/BelaArduino.cpp:359:28
	ldr	r0, [r4, #44]
.Ltmp274:
	.loc	19 656 50               @ /usr/bin/../lib/gcc/arm-linux-gnueabihf/6.3.0/../../../../include/c++/6.3.0/bits/stl_vector.h:656:50
	sub	r3, r3, r2
	asr	r1, r3, #2
.Ltmp275:
	.loc	19 676 6                @ /usr/bin/../lib/gcc/arm-linux-gnueabihf/6.3.0/../../../../include/c++/6.3.0/bits/stl_vector.h:676:6
	cmp	r0, r3, asr #2
	bls	.LBB10_8
.Ltmp276:
@ BB#7:
	@DEBUG_VALUE: BelaArduino_setup:context <- %R4
	.loc	19 677 33               @ /usr/bin/../lib/gcc/arm-linux-gnueabihf/6.3.0/../../../../include/c++/6.3.0/bits/stl_vector.h:677:33
	sub	r1, r0, r1
	.loc	19 677 4 is_stmt 0 discriminator 1 @ /usr/bin/../lib/gcc/arm-linux-gnueabihf/6.3.0/../../../../include/c++/6.3.0/bits/stl_vector.h:677:4
	add	r0, r5, #24
.Ltmp277:
	@DEBUG_VALUE: _M_erase_at_end:this <- %R0
	bl	_ZNSt6vectorIfSaIfEE17_M_default_appendEj
.Ltmp278:
	b	.LBB10_9
.Ltmp279:
.LBB10_8:
	@DEBUG_VALUE: BelaArduino_setup:context <- %R4
	.loc	19 678 11 is_stmt 1     @ /usr/bin/../lib/gcc/arm-linux-gnueabihf/6.3.0/../../../../include/c++/6.3.0/bits/stl_vector.h:678:11
	cmp	r0, r1
.Ltmp280:
	.loc	19 679 43               @ /usr/bin/../lib/gcc/arm-linux-gnueabihf/6.3.0/../../../../include/c++/6.3.0/bits/stl_vector.h:679:43
	addlo	r0, r2, r0, lsl #2
.Ltmp281:
	@DEBUG_VALUE: _M_erase_at_end:__pos <- %R0
	.loc	19 1437 26              @ /usr/bin/../lib/gcc/arm-linux-gnueabihf/6.3.0/../../../../include/c++/6.3.0/bits/stl_vector.h:1437:26
	strlo	r0, [r5, #28]
.Ltmp282:
.LBB10_9:                               @ %_ZNSt6vectorIfSaIfEE6resizeEj.exit20
	@DEBUG_VALUE: BelaArduino_setup:context <- %R4
	@DEBUG_VALUE: resize:__new_size <- %R2
	.loc	19 656 66               @ /usr/bin/../lib/gcc/arm-linux-gnueabihf/6.3.0/../../../../include/c++/6.3.0/bits/stl_vector.h:656:66
	ldrd	r0, r1, [r5]
.Ltmp283:
	.loc	17 360 26               @ /root/Bela/projects/board_6/BelaArduino.cpp:360:26
	ldr	r2, [r4, #56]
.Ltmp284:
	.loc	19 656 50               @ /usr/bin/../lib/gcc/arm-linux-gnueabihf/6.3.0/../../../../include/c++/6.3.0/bits/stl_vector.h:656:50
	sub	r4, r1, r0
.Ltmp285:
	asr	r3, r4, #3
.Ltmp286:
	.loc	19 676 6                @ /usr/bin/../lib/gcc/arm-linux-gnueabihf/6.3.0/../../../../include/c++/6.3.0/bits/stl_vector.h:676:6
	cmp	r2, r4, asr #3
	bls	.LBB10_11
@ BB#10:
.Ltmp287:
	.loc	19 677 33               @ /usr/bin/../lib/gcc/arm-linux-gnueabihf/6.3.0/../../../../include/c++/6.3.0/bits/stl_vector.h:677:33
	sub	r1, r2, r3
.Ltmp288:
	@DEBUG_VALUE: _M_erase_at_end:this <- %R5
	.loc	19 677 4 is_stmt 0 discriminator 1 @ /usr/bin/../lib/gcc/arm-linux-gnueabihf/6.3.0/../../../../include/c++/6.3.0/bits/stl_vector.h:677:4
	mov	r0, r5
	bl	_ZNSt6vectorI14DigitalChannelSaIS0_EE17_M_default_appendEj
.Ltmp289:
	.loc	19 656 66 is_stmt 1     @ /usr/bin/../lib/gcc/arm-linux-gnueabihf/6.3.0/../../../../include/c++/6.3.0/bits/stl_vector.h:656:66
	ldrd	r0, r1, [r5]
	b	.LBB10_12
.Ltmp290:
.LBB10_11:
	.loc	19 678 11               @ /usr/bin/../lib/gcc/arm-linux-gnueabihf/6.3.0/../../../../include/c++/6.3.0/bits/stl_vector.h:678:11
	cmp	r2, r3
.Ltmp291:
	.loc	19 679 43               @ /usr/bin/../lib/gcc/arm-linux-gnueabihf/6.3.0/../../../../include/c++/6.3.0/bits/stl_vector.h:679:43
	addlo	r1, r0, r2, lsl #3
.Ltmp292:
	@DEBUG_VALUE: _M_erase_at_end:__pos <- %R1
	.loc	19 1437 26              @ /usr/bin/../lib/gcc/arm-linux-gnueabihf/6.3.0/../../../../include/c++/6.3.0/bits/stl_vector.h:1437:26
	strlo	r1, [r5, #4]
.Ltmp293:
.LBB10_12:                              @ %_ZNSt6vectorI14DigitalChannelSaIS0_EE6resizeEj.exit.preheader
	.loc	17 361 2 discriminator 1 @ /root/Bela/projects/board_6/BelaArduino.cpp:361:2
	cmp	r1, r0
	beq	.LBB10_15
@ BB#13:                                @ %.lr.ph
.Ltmp294:
	.loc	19 656 50               @ /usr/bin/../lib/gcc/arm-linux-gnueabihf/6.3.0/../../../../include/c++/6.3.0/bits/stl_vector.h:656:50
	sub	r1, r1, r0
.Ltmp295:
	.loc	17 361 2 discriminator 1 @ /root/Bela/projects/board_6/BelaArduino.cpp:361:2
	add	r0, r0, #4
	mov	r2, #0
	mov	r3, #0
.Ltmp296:
	.loc	19 656 50               @ /usr/bin/../lib/gcc/arm-linux-gnueabihf/6.3.0/../../../../include/c++/6.3.0/bits/stl_vector.h:656:50
	asr	r1, r1, #3
.Ltmp297:
.LBB10_14:                              @ %_ZNSt6vectorI14DigitalChannelSaIS0_EE6resizeEj.exit
                                        @ =>This Inner Loop Header: Depth=1
	@DEBUG_VALUE: operator[]:__n <- %R3
	.loc	17 363 20               @ /root/Bela/projects/board_6/BelaArduino.cpp:363:20
	strh	r2, [r0]
.Ltmp298:
	.loc	17 361 40 discriminator 3 @ /root/Bela/projects/board_6/BelaArduino.cpp:361:40
	add	r3, r3, #1
.Ltmp299:
	@DEBUG_VALUE: c <- %R3
	.loc	17 364 19               @ /root/Bela/projects/board_6/BelaArduino.cpp:364:19
	str	r2, [r0, #-4]
.Ltmp300:
	.loc	17 361 22 discriminator 1 @ /root/Bela/projects/board_6/BelaArduino.cpp:361:22
	add	r0, r0, #8
	.loc	17 361 2 is_stmt 0 discriminator 1 @ /root/Bela/projects/board_6/BelaArduino.cpp:361:2
	cmp	r3, r1
	blo	.LBB10_14
.Ltmp301:
.LBB10_15:                              @ %._crit_edge.i.i.i.i
	add	r1, sp, #8
.Ltmp302:
	@DEBUG_VALUE: _M_data:this <- %R1
	@DEBUG_VALUE: _M_length:this <- %R1
	@DEBUG_VALUE: _M_set_length:__n <- 11
	@DEBUG_VALUE: _M_set_length:this <- %R1
	@DEBUG_VALUE: _M_data:this <- %R1
	@DEBUG_VALUE: _M_construct<const char *>:__dnew <- 11
	@DEBUG_VALUE: _M_construct<const char *>:this <- %R1
	@DEBUG_VALUE: _M_construct_aux<const char *>:this <- %R1
	@DEBUG_VALUE: _M_construct<const char *>:this <- %R1
	@DEBUG_VALUE: _S_copy_chars:__p <- %R5
	@DEBUG_VALUE: _S_copy:__d <- %R5
	@DEBUG_VALUE: _M_local_data:this <- %R1
	@DEBUG_VALUE: basic_string:this <- %R1
	.loc	29 290 33 is_stmt 1     @ /usr/bin/../lib/gcc/arm-linux-gnueabihf/6.3.0/../../../../include/c++/6.3.0/bits/char_traits.h:290:33
	mov	r0, #111
.Ltmp303:
	@DEBUG_VALUE: _S_copy:__n <- 11
	.loc	28 142 51               @ /usr/bin/../lib/gcc/arm-linux-gnueabihf/6.3.0/../../../../include/c++/6.3.0/bits/basic_string.h:142:51
	add	r5, r1, #8
.Ltmp304:
	.loc	28 110 25               @ /usr/bin/../lib/gcc/arm-linux-gnueabihf/6.3.0/../../../../include/c++/6.3.0/bits/basic_string.h:110:25
	str	r5, [sp, #8]
.Ltmp305:
	.loc	29 290 33               @ /usr/bin/../lib/gcc/arm-linux-gnueabihf/6.3.0/../../../../include/c++/6.3.0/bits/char_traits.h:290:33
	strb	r0, [sp, #26]
	movw	r0, :lower16:.L.str.12
	movt	r0, :upper16:.L.str.12
.Ltmp306:
	@DEBUG_VALUE: _S_copy:__s <- %R0
	vldr	d16, [r0]
	movw	r0, #28265
.Ltmp307:
	strh	r0, [sp, #24]
	mov	r0, #11
.Ltmp308:
	@DEBUG_VALUE: _M_length:__length <- 11
	vstr	d16, [sp, #16]
.Ltmp309:
	.loc	28 132 26               @ /usr/bin/../lib/gcc/arm-linux-gnueabihf/6.3.0/../../../../include/c++/6.3.0/bits/basic_string.h:132:26
	str	r0, [sp, #12]
	mov	r0, #0
.Ltmp310:
	.loc	29 243 14               @ /usr/bin/../lib/gcc/arm-linux-gnueabihf/6.3.0/../../../../include/c++/6.3.0/bits/char_traits.h:243:14
	strb	r0, [sp, #27]
.Ltmp311:
	.loc	17 366 18 discriminator 1 @ /root/Bela/projects/board_6/BelaArduino.cpp:366:18
.Ltmp240:
	str	r0, [sp]
	movw	r0, :lower16:belaArduinoPipe
	movt	r0, :upper16:belaArduinoPipe
	mov	r2, #8388608
	mov	r3, #0
	bl	_ZN4Pipe5setupERKNSt7__cxx1112basic_stringIcSt11char_traitsIcESaIcEEEjbb
.Ltmp312:
.Ltmp241:
@ BB#16:
.Ltmp313:
	.loc	28 136 28               @ /usr/bin/../lib/gcc/arm-linux-gnueabihf/6.3.0/../../../../include/c++/6.3.0/bits/basic_string.h:136:28
	ldr	r0, [sp, #8]
.Ltmp314:
	@DEBUG_VALUE: deallocate:__p <- %R0
	@DEBUG_VALUE: deallocate:__p <- %R0
	.loc	28 180 6                @ /usr/bin/../lib/gcc/arm-linux-gnueabihf/6.3.0/../../../../include/c++/6.3.0/bits/basic_string.h:180:6
	cmp	r0, r5
	beq	.LBB10_18
.Ltmp315:
@ BB#17:
	@DEBUG_VALUE: deallocate:__p <- %R0
	@DEBUG_VALUE: deallocate:__p <- %R0
	.loc	7 110 9                 @ /usr/bin/../lib/gcc/arm-linux-gnueabihf/6.3.0/../../../../include/c++/6.3.0/ext/new_allocator.h:110:9
	bl	_ZdlPv
.Ltmp316:
.LBB10_18:                              @ %_ZNSt7__cxx1112basic_stringIcSt11char_traitsIcESaIcEED2Ev.exit21
	.loc	17 130 2                @ /root/Bela/projects/board_6/BelaArduino.cpp:130:2
	bl	_Z5setupv
.Ltmp317:
	.loc	17 368 2                @ /root/Bela/projects/board_6/BelaArduino.cpp:368:2
	bl	_Z11processPipev
	.loc	17 369 20               @ /root/Bela/projects/board_6/BelaArduino.cpp:369:20
	movw	r0, :lower16:_ZL11ArduinoLoopPv
	movw	r2, :lower16:.L.str.13
	movt	r0, :upper16:_ZL11ArduinoLoopPv
	movt	r2, :upper16:.L.str.13
	mov	r1, #0
	mov	r3, #0
	bl	Bela_createAuxiliaryTask
	.loc	17 369 18 is_stmt 0     @ /root/Bela/projects/board_6/BelaArduino.cpp:369:18
	str	r0, [r6, #4]
	mov	r0, #1
	.loc	17 371 1 is_stmt 1 discriminator 3 @ /root/Bela/projects/board_6/BelaArduino.cpp:371:1
	sub	sp, r11, #16
	pop	{r4, r5, r6, r10, r11, pc}
.LBB10_19:
.Ltmp318:
	@DEBUG_VALUE: BelaArduino_setup:context <- %R4
	.loc	17 308 11               @ /root/Bela/projects/board_6/BelaArduino.cpp:308:11
	movw	r0, :lower16:stderr
	.loc	17 308 3 is_stmt 0      @ /root/Bela/projects/board_6/BelaArduino.cpp:308:3
	mov	r1, #66
	.loc	17 308 11               @ /root/Bela/projects/board_6/BelaArduino.cpp:308:11
	movt	r0, :upper16:stderr
	ldr	r3, [r0]
	.loc	17 308 3                @ /root/Bela/projects/board_6/BelaArduino.cpp:308:3
	movw	r0, :lower16:.L.str.10
	movt	r0, :upper16:.L.str.10
	b	.LBB10_21
.Ltmp319:
.LBB10_20:
	@DEBUG_VALUE: BelaArduino_setup:context <- %R4
	.loc	17 313 11 is_stmt 1     @ /root/Bela/projects/board_6/BelaArduino.cpp:313:11
	movw	r0, :lower16:stderr
	.loc	17 313 3 is_stmt 0      @ /root/Bela/projects/board_6/BelaArduino.cpp:313:3
	mov	r1, #39
	.loc	17 313 11               @ /root/Bela/projects/board_6/BelaArduino.cpp:313:11
	movt	r0, :upper16:stderr
	ldr	r3, [r0]
	.loc	17 313 3                @ /root/Bela/projects/board_6/BelaArduino.cpp:313:3
	movw	r0, :lower16:.L.str.11
	movt	r0, :upper16:.L.str.11
.Ltmp320:
.LBB10_21:
	@DEBUG_VALUE: BelaArduino_setup:context <- %R4
	.loc	17 308 3 is_stmt 1      @ /root/Bela/projects/board_6/BelaArduino.cpp:308:3
	mov	r2, #1
	bl	fwrite
	mov	r0, #0
.Ltmp321:
	.loc	17 371 1 discriminator 3 @ /root/Bela/projects/board_6/BelaArduino.cpp:371:1
	sub	sp, r11, #16
	pop	{r4, r5, r6, r10, r11, pc}
.Ltmp322:
.LBB10_22:
.Ltmp242:
	mov	r4, r0
.Ltmp323:
	.loc	28 136 28               @ /usr/bin/../lib/gcc/arm-linux-gnueabihf/6.3.0/../../../../include/c++/6.3.0/bits/basic_string.h:136:28
	ldr	r0, [sp, #8]
.Ltmp324:
	@DEBUG_VALUE: deallocate:__p <- %R0
	@DEBUG_VALUE: deallocate:__p <- %R0
	.loc	28 180 6                @ /usr/bin/../lib/gcc/arm-linux-gnueabihf/6.3.0/../../../../include/c++/6.3.0/bits/basic_string.h:180:6
	cmp	r0, r5
	beq	.LBB10_24
.Ltmp325:
@ BB#23:
	@DEBUG_VALUE: deallocate:__p <- %R0
	@DEBUG_VALUE: deallocate:__p <- %R0
	.loc	7 110 9                 @ /usr/bin/../lib/gcc/arm-linux-gnueabihf/6.3.0/../../../../include/c++/6.3.0/ext/new_allocator.h:110:9
	bl	_ZdlPv
.Ltmp326:
.LBB10_24:                              @ %_ZNSt7__cxx1112basic_stringIcSt11char_traitsIcESaIcEED2Ev.exit
	mov	r0, r4
	mov	lr, pc
	b	_Unwind_Resume
.Lfunc_end10:
	.size	_Z17BelaArduino_setupP11BelaContextPv, .Lfunc_end10-_Z17BelaArduino_setupP11BelaContextPv
	.cfi_endproc
	.file	53 "/usr/bin/../lib/gcc/arm-linux-gnueabihf/6.3.0/../../../../include/c++/6.3.0/bits" "basic_string.tcc"
	.globl	__gxx_personality_v0
	.personality __gxx_personality_v0
	.handlerdata
	.p2align	2
GCC_except_table10:
.Lexception1:
	.byte	255                     @ @LPStart Encoding = omit
	.byte	0                       @ @TType Encoding = absptr
	.byte	41                      @ @TType base offset
	.byte	3                       @ Call site Encoding = udata4
	.byte	39                      @ Call site table length
	.long	.Lfunc_begin10-.Lfunc_begin10 @ >> Call Site 1 <<
	.long	.Ltmp240-.Lfunc_begin10 @   Call between .Lfunc_begin10 and .Ltmp240
	.long	0                       @     has no landing pad
	.byte	0                       @   On action: cleanup
	.long	.Ltmp240-.Lfunc_begin10 @ >> Call Site 2 <<
	.long	.Ltmp241-.Ltmp240       @   Call between .Ltmp240 and .Ltmp241
	.long	.Ltmp242-.Lfunc_begin10 @     jumps to .Ltmp242
	.byte	0                       @   On action: cleanup
	.long	.Ltmp241-.Lfunc_begin10 @ >> Call Site 3 <<
	.long	.Lfunc_end10-.Ltmp241   @   Call between .Ltmp241 and .Lfunc_end10
	.long	0                       @     has no landing pad
	.byte	0                       @   On action: cleanup
	.p2align	2
	.fnend

	.p2align	2
	.type	_ZL11ArduinoLoopPv,%function
_ZL11ArduinoLoopPv:                     @ @_ZL11ArduinoLoopPv
.Lfunc_begin11:
	.loc	17 135 0                @ /root/Bela/projects/board_6/BelaArduino.cpp:135:0
	.fnstart
	.cfi_startproc
@ BB#0:
	.save	{r4, r5, r6, r7, r8, r9, r10, r11, lr}
	push	{r4, r5, r6, r7, r8, r9, r10, r11, lr}
.Ltmp327:
	.cfi_def_cfa_offset 36
.Ltmp328:
	.cfi_offset lr, -4
.Ltmp329:
	.cfi_offset r11, -8
.Ltmp330:
	.cfi_offset r10, -12
.Ltmp331:
	.cfi_offset r9, -16
.Ltmp332:
	.cfi_offset r8, -20
.Ltmp333:
	.cfi_offset r7, -24
.Ltmp334:
	.cfi_offset r6, -28
.Ltmp335:
	.cfi_offset r5, -32
.Ltmp336:
	.cfi_offset r4, -36
	.setfp	r11, sp, #28
	add	r11, sp, #28
.Ltmp337:
	.cfi_def_cfa r11, 8
	.pad	#4
	sub	sp, sp, #4
	@DEBUG_VALUE: ArduinoLoop: <- %R0
.Ltmp338:
	.loc	17 136 9 prologue_end discriminator 1 @ /root/Bela/projects/board_6/BelaArduino.cpp:136:9
	bl	Bela_stopRequested
.Ltmp339:
	.loc	17 136 2 is_stmt 0 discriminator 1 @ /root/Bela/projects/board_6/BelaArduino.cpp:136:2
	cmp	r0, #0
	bne	.LBB11_20
@ BB#1:                                 @ %.lr.ph38.preheader
.Ltmp340:
	.loc	17 140 6 is_stmt 1      @ /root/Bela/projects/board_6/BelaArduino.cpp:140:6
	movw	r5, :lower16:pdReceiveMsg
.Ltmp341:
	.loc	17 142 43 discriminator 1 @ /root/Bela/projects/board_6/BelaArduino.cpp:142:43
	movw	r8, :lower16:_ZL11nonRtParser
.Ltmp342:
	.loc	17 140 6                @ /root/Bela/projects/board_6/BelaArduino.cpp:140:6
	movt	r5, :upper16:pdReceiveMsg
.Ltmp343:
	.loc	17 142 43 discriminator 1 @ /root/Bela/projects/board_6/BelaArduino.cpp:142:43
	movt	r8, :upper16:_ZL11nonRtParser
                                        @ implicit-def: %R10
.Ltmp344:
.LBB11_2:                               @ %.lr.ph38
                                        @ =>This Loop Header: Depth=1
                                        @     Child Loop BB11_14 Depth 2
	.loc	17 140 6                @ /root/Bela/projects/board_6/BelaArduino.cpp:140:6
	cmp	r5, #0
	beq	.LBB11_19
@ BB#3:                                 @   in Loop: Header=BB11_2 Depth=1
.Ltmp345:
	.loc	17 142 43 discriminator 1 @ /root/Bela/projects/board_6/BelaArduino.cpp:142:43
	mov	r0, r8
	bl	_ZN13BelaMsgParser7processEv
	mov	r7, r0
.Ltmp346:
	@DEBUG_VALUE: p <- %R7
	@DEBUG_VALUE: isString:this <- %R7
	@DEBUG_VALUE: isA:this <- %R7
	@DEBUG_VALUE: popString:this <- %R7
	@DEBUG_VALUE: isA:this <- %R7
	@DEBUG_VALUE: pop<float>:this <- %R7
	.loc	17 143 9                @ /root/Bela/projects/board_6/BelaArduino.cpp:143:9
	ldrb	r0, [r7, #23]
.Ltmp347:
	.loc	17 143 7 is_stmt 0      @ /root/Bela/projects/board_6/BelaArduino.cpp:143:7
	cmp	r0, #0
	beq	.LBB11_19
.Ltmp348:
@ BB#4:                                 @   in Loop: Header=BB11_2 Depth=1
	@DEBUG_VALUE: pop<float>:this <- %R7
	@DEBUG_VALUE: isA:this <- %R7
	@DEBUG_VALUE: popString:this <- %R7
	@DEBUG_VALUE: isA:this <- %R7
	@DEBUG_VALUE: isString:this <- %R7
	@DEBUG_VALUE: p <- %R7
	.loc	17 145 34 is_stmt 1     @ /root/Bela/projects/board_6/BelaArduino.cpp:145:34
	ldr	r0, [r7, #12]
	.loc	17 145 38 is_stmt 0     @ /root/Bela/projects/board_6/BelaArduino.cpp:145:38
	cmp	r0, #124
	bne	.LBB11_19
.Ltmp349:
@ BB#5:                                 @   in Loop: Header=BB11_2 Depth=1
	@DEBUG_VALUE: pop<float>:this <- %R7
	@DEBUG_VALUE: isA:this <- %R7
	@DEBUG_VALUE: popString:this <- %R7
	@DEBUG_VALUE: isA:this <- %R7
	@DEBUG_VALUE: isString:this <- %R7
	@DEBUG_VALUE: p <- %R7
	cmp	r5, #0
	beq	.LBB11_19
.Ltmp350:
@ BB#6:                                 @   in Loop: Header=BB11_2 Depth=1
	@DEBUG_VALUE: pop<float>:this <- %R7
	@DEBUG_VALUE: isA:this <- %R7
	@DEBUG_VALUE: popString:this <- %R7
	@DEBUG_VALUE: isA:this <- %R7
	@DEBUG_VALUE: isString:this <- %R7
	@DEBUG_VALUE: p <- %R7
	@DEBUG_VALUE: err <- 0
	@DEBUG_VALUE: isString:idx <- -1
	@DEBUG_VALUE: isA:idx <- -1
	.loc	26 120 11 is_stmt 1     @ /root/Bela/projects/board_6/BelaMsg.h:120:11
	ldrb	r4, [r7, #21]
.Ltmp351:
	@DEBUG_VALUE: isA:idx <- %R4
	.loc	26 96 8                 @ /root/Bela/projects/board_6/BelaMsg.h:96:8
	ldr	r0, [r7, #16]
	ldrb	r1, [r0, r4]
	mov	r0, #1
.Ltmp352:
	.loc	17 149 9                @ /root/Bela/projects/board_6/BelaArduino.cpp:149:9
	cmp	r1, #115
	bne	.LBB11_11
.Ltmp353:
@ BB#7:                                 @   in Loop: Header=BB11_2 Depth=1
	@DEBUG_VALUE: isA:idx <- %R4
	@DEBUG_VALUE: pop<float>:this <- %R7
	@DEBUG_VALUE: isA:this <- %R7
	@DEBUG_VALUE: popString:this <- %R7
	@DEBUG_VALUE: isA:this <- %R7
	@DEBUG_VALUE: isString:this <- %R7
	@DEBUG_VALUE: p <- %R7
	.loc	19 892 42               @ /usr/bin/../lib/gcc/arm-linux-gnueabihf/6.3.0/../../../../include/c++/6.3.0/bits/stl_vector.h:892:42
	ldm	r7, {r0, r1}
.Ltmp354:
	.loc	26 111 48               @ /root/Bela/projects/board_6/BelaMsg.h:111:48
	ldrb	r6, [r7, #22]
	.loc	26 111 46 is_stmt 0     @ /root/Bela/projects/board_6/BelaMsg.h:111:46
	add	r10, r0, r6
.Ltmp355:
	@DEBUG_VALUE: popString:str <- %R10
	.loc	19 656 50 is_stmt 1     @ /usr/bin/../lib/gcc/arm-linux-gnueabihf/6.3.0/../../../../include/c++/6.3.0/bits/stl_vector.h:656:50
	mvn	r0, r0
.Ltmp356:
	.loc	26 112 31               @ /root/Bela/projects/board_6/BelaMsg.h:112:31
	add	r0, r1, r0
	.loc	26 112 41 is_stmt 0     @ /root/Bela/projects/board_6/BelaMsg.h:112:41
	sub	r1, r0, r6
.Ltmp357:
	@DEBUG_VALUE: popString:maxLen <- %R1
	.loc	26 113 17 is_stmt 1 discriminator 1 @ /root/Bela/projects/board_6/BelaMsg.h:113:17
	mov	r0, r10
	bl	strnlen
.Ltmp358:
	@DEBUG_VALUE: popString:len <- %R0
	.loc	26 114 15               @ /root/Bela/projects/board_6/BelaMsg.h:114:15
	ldrb	r1, [r10, r0]
.Ltmp359:
	.loc	26 114 7 is_stmt 0      @ /root/Bela/projects/board_6/BelaMsg.h:114:7
	cmp	r1, #0
	beq	.LBB11_9
.Ltmp360:
@ BB#8:                                 @   in Loop: Header=BB11_2 Depth=1
	@DEBUG_VALUE: popString:len <- %R0
	@DEBUG_VALUE: popString:str <- %R10
	@DEBUG_VALUE: isA:idx <- %R4
	@DEBUG_VALUE: pop<float>:this <- %R7
	@DEBUG_VALUE: isA:this <- %R7
	@DEBUG_VALUE: popString:this <- %R7
	@DEBUG_VALUE: isA:this <- %R7
	@DEBUG_VALUE: isString:this <- %R7
	@DEBUG_VALUE: p <- %R7
	.loc	26 116 16 is_stmt 1     @ /root/Bela/projects/board_6/BelaMsg.h:116:16
	movw	r0, :lower16:stderr
.Ltmp361:
	.loc	26 116 5 is_stmt 0      @ /root/Bela/projects/board_6/BelaMsg.h:116:5
	movw	r1, :lower16:.L.str.17
	.loc	26 116 16               @ /root/Bela/projects/board_6/BelaMsg.h:116:16
	movt	r0, :upper16:stderr
	.loc	26 116 5                @ /root/Bela/projects/board_6/BelaMsg.h:116:5
	movt	r1, :upper16:.L.str.17
	.loc	26 116 16               @ /root/Bela/projects/board_6/BelaMsg.h:116:16
	ldr	r0, [r0]
	.loc	26 116 5                @ /root/Bela/projects/board_6/BelaMsg.h:116:5
	bl	rt_fprintf
	mov	r10, #0
.Ltmp362:
	b	.LBB11_10
.Ltmp363:
.LBB11_9:                               @   in Loop: Header=BB11_2 Depth=1
	@DEBUG_VALUE: popString:len <- %R0
	@DEBUG_VALUE: popString:str <- %R10
	@DEBUG_VALUE: isA:idx <- %R4
	@DEBUG_VALUE: pop<float>:this <- %R7
	@DEBUG_VALUE: isA:this <- %R7
	@DEBUG_VALUE: popString:this <- %R7
	@DEBUG_VALUE: isA:this <- %R7
	@DEBUG_VALUE: isString:this <- %R7
	@DEBUG_VALUE: p <- %R7
	.loc	26 119 19 is_stmt 1     @ /root/Bela/projects/board_6/BelaMsg.h:119:19
	add	r0, r6, r0
.Ltmp364:
	.loc	26 119 12 is_stmt 0     @ /root/Bela/projects/board_6/BelaMsg.h:119:12
	add	r0, r0, #1
	strb	r0, [r7, #22]
	.loc	26 120 11 is_stmt 1     @ /root/Bela/projects/board_6/BelaMsg.h:120:11
	add	r0, r4, #1
	strb	r0, [r7, #21]
.Ltmp365:
.LBB11_10:                              @ %_ZN13BelaMsgParser6Parsed9popStringEv.exit
                                        @   in Loop: Header=BB11_2 Depth=1
	@DEBUG_VALUE: isA:idx <- %R4
	@DEBUG_VALUE: pop<float>:this <- %R7
	@DEBUG_VALUE: isA:this <- %R7
	@DEBUG_VALUE: popString:this <- %R7
	@DEBUG_VALUE: isA:this <- %R7
	@DEBUG_VALUE: isString:this <- %R7
	@DEBUG_VALUE: p <- %R7
	mov	r0, #0
.Ltmp366:
.LBB11_11:                              @ %_ZN13BelaMsgParser6Parsed9popStringEv.exit
                                        @   in Loop: Header=BB11_2 Depth=1
	@DEBUG_VALUE: isA:idx <- %R4
	@DEBUG_VALUE: pop<float>:this <- %R7
	@DEBUG_VALUE: isA:this <- %R7
	@DEBUG_VALUE: popString:this <- %R7
	@DEBUG_VALUE: isA:this <- %R7
	@DEBUG_VALUE: isString:this <- %R7
	@DEBUG_VALUE: p <- %R7
	.loc	17 153 22               @ /root/Bela/projects/board_6/BelaArduino.cpp:153:22
	ldrb	r1, [r7, #20]
	.loc	17 154 6                @ /root/Bela/projects/board_6/BelaArduino.cpp:154:6
	mov	r9, sp
	.loc	17 153 32               @ /root/Bela/projects/board_6/BelaArduino.cpp:153:32
	sub	r2, r1, #1
.Ltmp367:
	@DEBUG_VALUE: length <- %R2
	.loc	17 154 6                @ /root/Bela/projects/board_6/BelaArduino.cpp:154:6
	mov	r1, #7
	add	r1, r1, r2, lsl #2
	bfc	r1, #0, #3
	sub	r1, sp, r1
.Ltmp368:
	@DEBUG_VALUE: data <-  [complex expression]
	mov	sp, r1
.Ltmp369:
	@DEBUG_VALUE: n <- 0
	.loc	17 155 35 discriminator 1 @ /root/Bela/projects/board_6/BelaArduino.cpp:155:35
	cmp	r0, #0
	bne	.LBB11_16
.Ltmp370:
@ BB#12:                                @ %_ZN13BelaMsgParser6Parsed9popStringEv.exit
                                        @   in Loop: Header=BB11_2 Depth=1
	@DEBUG_VALUE: data <-  [complex expression]
	@DEBUG_VALUE: length <- %R2
	@DEBUG_VALUE: isA:idx <- %R4
	@DEBUG_VALUE: pop<float>:this <- %R7
	@DEBUG_VALUE: isA:this <- %R7
	@DEBUG_VALUE: popString:this <- %R7
	@DEBUG_VALUE: isA:this <- %R7
	@DEBUG_VALUE: isString:this <- %R7
	@DEBUG_VALUE: p <- %R7
	cmp	r2, #0
	beq	.LBB11_16
.Ltmp371:
@ BB#13:                                @ %.lr.ph
                                        @   in Loop: Header=BB11_2 Depth=1
	@DEBUG_VALUE: data <-  [complex expression]
	@DEBUG_VALUE: length <- %R2
	@DEBUG_VALUE: isA:idx <- %R4
	@DEBUG_VALUE: pop<float>:this <- %R7
	@DEBUG_VALUE: isA:this <- %R7
	@DEBUG_VALUE: popString:this <- %R7
	@DEBUG_VALUE: isA:this <- %R7
	@DEBUG_VALUE: isString:this <- %R7
	@DEBUG_VALUE: p <- %R7
	.loc	26 93 11                @ /root/Bela/projects/board_6/BelaMsg.h:93:11
	ldrb	r3, [r7, #21]
	mov	r0, #0
.Ltmp372:
.LBB11_14:                              @   Parent Loop BB11_2 Depth=1
                                        @ =>  This Inner Loop Header: Depth=2
	@DEBUG_VALUE: isA:idx <- -1
	.loc	26 96 8                 @ /root/Bela/projects/board_6/BelaMsg.h:96:8
	ldr	r6, [r7, #16]
.Ltmp373:
	.loc	26 93 11                @ /root/Bela/projects/board_6/BelaMsg.h:93:11
	uxtb	r3, r3
.Ltmp374:
	@DEBUG_VALUE: isA:idx <- %R3
	.loc	26 96 8                 @ /root/Bela/projects/board_6/BelaMsg.h:96:8
	ldrb	r3, [r6, r3]
.Ltmp375:
	.loc	26 96 8 is_stmt 0       @ /root/Bela/projects/board_6/BelaMsg.h:96:8
	cmp	r3, #102
	bne	.LBB11_18
.Ltmp376:
@ BB#15:                                @ %_ZN13BelaMsgParser6Parsed3isAEPKci.exit
                                        @   in Loop: Header=BB11_14 Depth=2
	.loc	26 85 30 is_stmt 1      @ /root/Bela/projects/board_6/BelaMsg.h:85:30
	ldrb	r3, [r7, #22]
.Ltmp377:
	.loc	19 892 42               @ /usr/bin/../lib/gcc/arm-linux-gnueabihf/6.3.0/../../../../include/c++/6.3.0/bits/stl_vector.h:892:42
	ldr	r6, [r7]
.Ltmp378:
	.loc	26 85 4 discriminator 1 @ /root/Bela/projects/board_6/BelaMsg.h:85:4
	ldr	r3, [r6, r3]
	str	r3, [r1, r0, lsl #2]
.Ltmp379:
	.loc	17 155 44 discriminator 5 @ /root/Bela/projects/board_6/BelaArduino.cpp:155:44
	add	r0, r0, #1
.Ltmp380:
	@DEBUG_VALUE: n <- %R0
	.loc	26 86 12                @ /root/Bela/projects/board_6/BelaMsg.h:86:12
	ldrb	r3, [r7, #22]
.Ltmp381:
	.loc	17 155 35 discriminator 1 @ /root/Bela/projects/board_6/BelaArduino.cpp:155:35
	cmp	r0, r2
.Ltmp382:
	.loc	26 86 12                @ /root/Bela/projects/board_6/BelaMsg.h:86:12
	add	r3, r3, #4
	strb	r3, [r7, #22]
	.loc	26 87 11                @ /root/Bela/projects/board_6/BelaMsg.h:87:11
	ldrb	r3, [r7, #21]
	add	r3, r3, #1
	strb	r3, [r7, #21]
	blo	.LBB11_14
	b	.LBB11_17
.Ltmp383:
.LBB11_16:                              @ %.critedge
                                        @   in Loop: Header=BB11_2 Depth=1
	@DEBUG_VALUE: data <-  [complex expression]
	@DEBUG_VALUE: length <- %R2
	@DEBUG_VALUE: isA:idx <- %R4
	@DEBUG_VALUE: pop<float>:this <- %R7
	@DEBUG_VALUE: isA:this <- %R7
	@DEBUG_VALUE: popString:this <- %R7
	@DEBUG_VALUE: isA:this <- %R7
	@DEBUG_VALUE: isString:this <- %R7
	@DEBUG_VALUE: p <- %R7
	.loc	17 162 9                @ /root/Bela/projects/board_6/BelaArduino.cpp:162:9
	cmp	r0, #0
	bne	.LBB11_18
.Ltmp384:
.LBB11_17:                              @ %.critedge.thread42
                                        @   in Loop: Header=BB11_2 Depth=1
	.loc	17 163 7                @ /root/Bela/projects/board_6/BelaArduino.cpp:163:7
	mov	r0, r10
	bl	pdReceiveMsg
.Ltmp385:
.LBB11_18:                              @ %.critedge.thread
                                        @   in Loop: Header=BB11_2 Depth=1
	.loc	17 164 5                @ /root/Bela/projects/board_6/BelaArduino.cpp:164:5
	mov	sp, r9
.Ltmp386:
.LBB11_19:                              @   in Loop: Header=BB11_2 Depth=1
	.loc	17 167 3                @ /root/Bela/projects/board_6/BelaArduino.cpp:167:3
	bl	_Z4loopv
.Ltmp387:
	.loc	17 136 9 discriminator 1 @ /root/Bela/projects/board_6/BelaArduino.cpp:136:9
	bl	Bela_stopRequested
	.loc	17 136 2 is_stmt 0 discriminator 1 @ /root/Bela/projects/board_6/BelaArduino.cpp:136:2
	cmp	r0, #0
	beq	.LBB11_2
.LBB11_20:                              @ %._crit_edge
	.loc	17 169 1 is_stmt 1      @ /root/Bela/projects/board_6/BelaArduino.cpp:169:1
	sub	sp, r11, #28
	pop	{r4, r5, r6, r7, r8, r9, r10, r11, pc}
.Ltmp388:
.Lfunc_end11:
	.size	_ZL11ArduinoLoopPv, .Lfunc_end11-_ZL11ArduinoLoopPv
	.cfi_endproc
	.fnend

	.globl	_Z21BelaArduino_renderTopP11BelaContext
	.p2align	2
	.type	_Z21BelaArduino_renderTopP11BelaContext,%function
_Z21BelaArduino_renderTopP11BelaContext: @ @_Z21BelaArduino_renderTopP11BelaContext
.Lfunc_begin12:
	.loc	17 374 0                @ /root/Bela/projects/board_6/BelaArduino.cpp:374:0
	.fnstart
	.cfi_startproc
@ BB#0:
	.save	{r4, r5, r6, r10, r11, lr}
	push	{r4, r5, r6, r10, r11, lr}
.Ltmp389:
	.cfi_def_cfa_offset 24
.Ltmp390:
	.cfi_offset lr, -4
.Ltmp391:
	.cfi_offset r11, -8
.Ltmp392:
	.cfi_offset r10, -12
.Ltmp393:
	.cfi_offset r6, -16
.Ltmp394:
	.cfi_offset r5, -20
.Ltmp395:
	.cfi_offset r4, -24
	.setfp	r11, sp, #16
	add	r11, sp, #16
.Ltmp396:
	.cfi_def_cfa r11, 8
	@DEBUG_VALUE: BelaArduino_renderTop:context <- %R0
	mov	r6, r0
.Ltmp397:
	@DEBUG_VALUE: BelaArduino_renderTop:context <- %R6
	.loc	17 375 2 prologue_end   @ /root/Bela/projects/board_6/BelaArduino.cpp:375:2
	bl	_Z11processPipev
.Ltmp398:
	@DEBUG_VALUE: c <- 0
	.loc	17 409 33 discriminator 1 @ /root/Bela/projects/board_6/BelaArduino.cpp:409:33
	ldr	r0, [r6, #40]
	.loc	17 409 2 is_stmt 0 discriminator 1 @ /root/Bela/projects/board_6/BelaArduino.cpp:409:2
	cmp	r0, #0
	beq	.LBB12_3
.Ltmp399:
@ BB#1:                                 @ %.lr.ph22
	@DEBUG_VALUE: BelaArduino_renderTop:context <- %R6
	.loc	19 781 32 is_stmt 1     @ /usr/bin/../lib/gcc/arm-linux-gnueabihf/6.3.0/../../../../include/c++/6.3.0/bits/stl_vector.h:781:32
	movw	r2, :lower16:.L_MergedGlobals
	ldr	r3, [r6, #36]
	movt	r2, :upper16:.L_MergedGlobals
	ldr	r1, [r6, #8]
	ldr	r2, [r2, #12]
	mov	r4, #0
.Ltmp400:
	.loc	17 409 2 discriminator 1 @ /root/Bela/projects/board_6/BelaArduino.cpp:409:2
	lsl	r3, r3, #2
.Ltmp401:
.LBB12_2:                               @ =>This Inner Loop Header: Depth=1
	@DEBUG_VALUE: analogReadNI:frame <- 0
	@DEBUG_VALUE: operator[]:__n <- %R4
	.loc	15 1481 9               @ ./include/Bela.h:1481:9
	ldr	r5, [r1], r3
.Ltmp402:
	.loc	17 410 15               @ /root/Bela/projects/board_6/BelaArduino.cpp:410:15
	str	r5, [r2, r4, lsl #2]
	.loc	17 409 51 discriminator 3 @ /root/Bela/projects/board_6/BelaArduino.cpp:409:51
	add	r4, r4, #1
.Ltmp403:
	@DEBUG_VALUE: c <- %R4
	.loc	17 409 2 is_stmt 0 discriminator 1 @ /root/Bela/projects/board_6/BelaArduino.cpp:409:2
	cmp	r4, r0
	blo	.LBB12_2
.Ltmp404:
.LBB12_3:                               @ %.preheader
	.loc	17 411 33 is_stmt 1 discriminator 1 @ /root/Bela/projects/board_6/BelaArduino.cpp:411:33
	ldr	r0, [r6, #56]
	.loc	17 411 2 is_stmt 0 discriminator 1 @ /root/Bela/projects/board_6/BelaArduino.cpp:411:2
	cmp	r0, #16
	beq	.LBB12_8
@ BB#4:                                 @ %.lr.ph
.Ltmp405:
	.loc	19 781 32 is_stmt 1     @ /usr/bin/../lib/gcc/arm-linux-gnueabihf/6.3.0/../../../../include/c++/6.3.0/bits/stl_vector.h:781:32
	movw	r1, :lower16:.L_MergedGlobals
.Ltmp406:
	.loc	17 411 49 discriminator 1 @ /root/Bela/projects/board_6/BelaArduino.cpp:411:49
	sub	r0, r0, #16
.Ltmp407:
	.loc	19 781 32               @ /usr/bin/../lib/gcc/arm-linux-gnueabihf/6.3.0/../../../../include/c++/6.3.0/bits/stl_vector.h:781:32
	movt	r1, :upper16:.L_MergedGlobals
	mov	r2, #0
	ldr	r1, [r1]
.Ltmp408:
	.loc	15 1515 56              @ ./include/Bela.h:1515:56
	mov	r3, #1
.Ltmp409:
	.loc	17 411 2 discriminator 1 @ /root/Bela/projects/board_6/BelaArduino.cpp:411:2
	add	r1, r1, #4
.LBB12_5:                               @ =>This Inner Loop Header: Depth=1
.Ltmp410:
	.loc	17 413 38               @ /root/Bela/projects/board_6/BelaArduino.cpp:413:38
	ldr	r5, [r1, #-4]
.Ltmp411:
	.loc	17 413 6 is_stmt 0      @ /root/Bela/projects/board_6/BelaArduino.cpp:413:6
	cmp	r5, #0
	bne	.LBB12_7
@ BB#6:                                 @   in Loop: Header=BB12_5 Depth=1
	ldr	r5, [r6, #16]
.Ltmp412:
	@DEBUG_VALUE: digitalRead:frame <- 0
	.loc	15 1515 49 is_stmt 1    @ ./include/Bela.h:1515:49
	add	r4, r2, #16
	ldr	r5, [r5]
	.loc	15 1515 56 is_stmt 0    @ ./include/Bela.h:1515:56
	and	r5, r3, r5, lsr r4
.Ltmp413:
	.loc	17 414 21 is_stmt 1     @ /root/Bela/projects/board_6/BelaArduino.cpp:414:21
	strh	r5, [r1]
.Ltmp414:
	@DEBUG_VALUE: operator[]:__n <- %R2
.LBB12_7:                               @   in Loop: Header=BB12_5 Depth=1
	.loc	17 411 55 discriminator 3 @ /root/Bela/projects/board_6/BelaArduino.cpp:411:55
	add	r2, r2, #1
.Ltmp415:
	@DEBUG_VALUE: c <- %R2
	.loc	17 411 22 is_stmt 0 discriminator 1 @ /root/Bela/projects/board_6/BelaArduino.cpp:411:22
	add	r1, r1, #8
	.loc	17 411 2 discriminator 1 @ /root/Bela/projects/board_6/BelaArduino.cpp:411:2
	cmp	r2, r0
	blo	.LBB12_5
.Ltmp416:
.LBB12_8:                               @ %._crit_edge
	movw	r4, :lower16:.L_MergedGlobals.4
	movt	r4, :upper16:.L_MergedGlobals.4
	ldrb	r0, [r4, #2]
	.loc	17 417 5 is_stmt 1      @ /root/Bela/projects/board_6/BelaArduino.cpp:417:5
	cmp	r0, #0
	bne	.LBB12_10
@ BB#9:
.Ltmp417:
	.loc	17 418 30               @ /root/Bela/projects/board_6/BelaArduino.cpp:418:30
	ldr	r0, [r4, #4]
	.loc	17 418 3 is_stmt 0      @ /root/Bela/projects/board_6/BelaArduino.cpp:418:3
	bl	Bela_scheduleAuxiliaryTask
.Ltmp418:
.LBB12_10:
	mov	r0, #1
	strb	r0, [r4, #2]
	.loc	17 420 1 is_stmt 1      @ /root/Bela/projects/board_6/BelaArduino.cpp:420:1
	pop	{r4, r5, r6, r10, r11, pc}
.Ltmp419:
.Lfunc_end12:
	.size	_Z21BelaArduino_renderTopP11BelaContext, .Lfunc_end12-_Z21BelaArduino_renderTopP11BelaContext
	.cfi_endproc
	.fnend

	.globl	_Z24BelaArduino_renderBottomP11BelaContext
	.p2align	2
	.type	_Z24BelaArduino_renderBottomP11BelaContext,%function
_Z24BelaArduino_renderBottomP11BelaContext: @ @_Z24BelaArduino_renderBottomP11BelaContext
.Lfunc_begin13:
	.loc	17 423 0                @ /root/Bela/projects/board_6/BelaArduino.cpp:423:0
	.fnstart
	.cfi_startproc
@ BB#0:
	.save	{r4, r5, r6, r7, r8, r9, r10, r11, lr}
	push	{r4, r5, r6, r7, r8, r9, r10, r11, lr}
.Ltmp420:
	.cfi_def_cfa_offset 36
.Ltmp421:
	.cfi_offset lr, -4
.Ltmp422:
	.cfi_offset r11, -8
.Ltmp423:
	.cfi_offset r10, -12
.Ltmp424:
	.cfi_offset r9, -16
.Ltmp425:
	.cfi_offset r8, -20
.Ltmp426:
	.cfi_offset r7, -24
.Ltmp427:
	.cfi_offset r6, -28
.Ltmp428:
	.cfi_offset r5, -32
.Ltmp429:
	.cfi_offset r4, -36
	.setfp	r11, sp, #28
	add	r11, sp, #28
.Ltmp430:
	.cfi_def_cfa r11, 8
	.pad	#4
	sub	sp, sp, #4
	@DEBUG_VALUE: BelaArduino_renderBottom:context <- %R0
	mov	r1, r0
.Ltmp431:
	@DEBUG_VALUE: c <- 0
	@DEBUG_VALUE: BelaArduino_renderBottom:context <- %R1
	.loc	17 425 33 prologue_end discriminator 1 @ /root/Bela/projects/board_6/BelaArduino.cpp:425:33
	ldr	r0, [r1, #56]
	.loc	17 425 2 is_stmt 0 discriminator 1 @ /root/Bela/projects/board_6/BelaArduino.cpp:425:2
	cmp	r0, #16
	bne	.LBB13_2
.Ltmp432:
@ BB#1:                                 @ %.._crit_edge_crit_edge
	@DEBUG_VALUE: BelaArduino_renderBottom:context <- %R1
	.loc	17 446 14 is_stmt 1     @ /root/Bela/projects/board_6/BelaArduino.cpp:446:14
	movw	r2, :lower16:.L_MergedGlobals.4
	.loc	17 446 34 is_stmt 0     @ /root/Bela/projects/board_6/BelaArduino.cpp:446:34
	ldr	r0, [r1, #52]
	.loc	17 446 14               @ /root/Bela/projects/board_6/BelaArduino.cpp:446:14
	movt	r2, :upper16:.L_MergedGlobals.4
	ldr	r2, [r2, #8]
	b	.LBB13_25
.Ltmp433:
.LBB13_2:                               @ %.lr.ph44
	@DEBUG_VALUE: BelaArduino_renderBottom:context <- %R1
	.loc	19 781 32 is_stmt 1     @ /usr/bin/../lib/gcc/arm-linux-gnueabihf/6.3.0/../../../../include/c++/6.3.0/bits/stl_vector.h:781:32
	movw	r2, :lower16:.L_MergedGlobals
.Ltmp434:
	.loc	15 1546 30 discriminator 1 @ ./include/Bela.h:1546:30
	ldr	r0, [r1, #52]
.Ltmp435:
	.loc	19 781 32               @ /usr/bin/../lib/gcc/arm-linux-gnueabihf/6.3.0/../../../../include/c++/6.3.0/bits/stl_vector.h:781:32
	movt	r2, :upper16:.L_MergedGlobals
.Ltmp436:
	.loc	17 436 21               @ /root/Bela/projects/board_6/BelaArduino.cpp:436:21
	movw	r3, :lower16:.L_MergedGlobals.4
.Ltmp437:
	.loc	19 781 32               @ /usr/bin/../lib/gcc/arm-linux-gnueabihf/6.3.0/../../../../include/c++/6.3.0/bits/stl_vector.h:781:32
	ldr	r8, [r2]
.Ltmp438:
	.loc	17 436 21               @ /root/Bela/projects/board_6/BelaArduino.cpp:436:21
	movt	r3, :upper16:.L_MergedGlobals.4
	ldr	r3, [r3, #8]
	mov	r9, #0
.Ltmp439:
	.loc	15 1525 29              @ ./include/Bela.h:1525:29
	mov	lr, #1
	mov	r7, r0
	mov	r5, r0
.Ltmp440:
	.loc	15 1546 30 discriminator 1 @ ./include/Bela.h:1546:30
	mov	r6, r0
.Ltmp441:
	.loc	19 781 32               @ /usr/bin/../lib/gcc/arm-linux-gnueabihf/6.3.0/../../../../include/c++/6.3.0/bits/stl_vector.h:781:32
	str	r3, [sp]                @ 4-byte Spill
	b	.LBB13_5
.Ltmp442:
.LBB13_3:                               @ %.lr.ph.split.us.i.preheader
                                        @   in Loop: Header=BB13_5 Depth=1
	.loc	15 1527 27              @ ./include/Bela.h:1527:27
	mvn	r3, lr, lsl r0
	mov	r4, #0
.LBB13_4:                               @ %.lr.ph.split.us.i
                                        @   Parent Loop BB13_5 Depth=1
                                        @ =>  This Inner Loop Header: Depth=2
	.loc	15 1527 24 is_stmt 0    @ ./include/Bela.h:1527:24
	ldr	r0, [r7, r4, lsl #2]
	and	r0, r0, r3
	str	r0, [r7, r4, lsl #2]
.Ltmp443:
	.loc	15 1523 46 is_stmt 1 discriminator 2 @ ./include/Bela.h:1523:46
	add	r4, r4, #1
.Ltmp444:
	@DEBUG_VALUE: digitalWrite:f <- %R4
	.loc	15 1523 30 is_stmt 0 discriminator 1 @ ./include/Bela.h:1523:30
	ldr	r0, [r1, #52]
	.loc	15 1523 2 discriminator 1 @ ./include/Bela.h:1523:2
	cmp	r4, r0
.Ltmp445:
	.loc	17 437 36 is_stmt 1 discriminator 1 @ /root/Bela/projects/board_6/BelaArduino.cpp:437:36
	mov	r2, r0
	mov	r5, r0
	mov	r6, r0
	blo	.LBB13_4
	b	.LBB13_18
.Ltmp446:
.LBB13_5:                               @ =>This Loop Header: Depth=1
                                        @     Child Loop BB13_10 Depth 2
                                        @     Child Loop BB13_8 Depth 2
                                        @     Child Loop BB13_16 Depth 2
                                        @     Child Loop BB13_4 Depth 2
                                        @     Child Loop BB13_21 Depth 2
	@DEBUG_VALUE: operator[]:__n <- %R9
	.loc	17 434 37               @ /root/Bela/projects/board_6/BelaArduino.cpp:434:37
	ldr	r12, [r8, r9, lsl #3]
.Ltmp447:
	@DEBUG_VALUE: pinMode:f <- 0
	@DEBUG_VALUE: pinMode:frame <- 0
	.loc	15 1546 2 discriminator 1 @ ./include/Bela.h:1546:2
	cmp	r6, #0
	mov	r6, #0
	beq	.LBB13_11
.Ltmp448:
@ BB#6:                                 @ %.lr.ph.i33
                                        @   in Loop: Header=BB13_5 Depth=1
	@DEBUG_VALUE: operator[]:__n <- %R9
	.loc	15 1548 13              @ ./include/Bela.h:1548:13
	ldr	r2, [r1, #16]
.Ltmp449:
	.loc	15 1547 6               @ ./include/Bela.h:1547:6
	cmp	r12, #0
	beq	.LBB13_9
.Ltmp450:
@ BB#7:                                 @ %.lr.ph.split.i37.preheader
                                        @   in Loop: Header=BB13_5 Depth=1
	@DEBUG_VALUE: operator[]:__n <- %R9
	.loc	15 1550 27              @ ./include/Bela.h:1550:27
	mvn	r3, lr, lsl r9
	mov	r4, #0
.Ltmp451:
.LBB13_8:                               @ %.lr.ph.split.i37
                                        @   Parent Loop BB13_5 Depth=1
                                        @ =>  This Inner Loop Header: Depth=2
	.loc	15 1550 24 is_stmt 0    @ ./include/Bela.h:1550:24
	ldr	r0, [r2, r4, lsl #2]
	and	r0, r0, r3
	str	r0, [r2, r4, lsl #2]
.Ltmp452:
	.loc	15 1546 46 is_stmt 1 discriminator 2 @ ./include/Bela.h:1546:46
	add	r4, r4, #1
.Ltmp453:
	@DEBUG_VALUE: pinMode:f <- %R4
	.loc	15 1546 30 is_stmt 0 discriminator 1 @ ./include/Bela.h:1546:30
	ldr	r0, [r1, #52]
	.loc	15 1546 2 discriminator 1 @ ./include/Bela.h:1546:2
	cmp	r4, r0
	mov	r7, r0
.Ltmp454:
	.loc	15 1523 30 is_stmt 1 discriminator 1 @ ./include/Bela.h:1523:30
	mov	r5, r0
	mov	r6, r0
	blo	.LBB13_8
	b	.LBB13_11
.Ltmp455:
.LBB13_9:                               @ %.lr.ph.split.us.i35.preheader
                                        @   in Loop: Header=BB13_5 Depth=1
	@DEBUG_VALUE: operator[]:__n <- %R9
	.loc	15 1548 30              @ ./include/Bela.h:1548:30
	lsl	r3, lr, r9
	mov	r4, #0
.Ltmp456:
.LBB13_10:                              @ %.lr.ph.split.us.i35
                                        @   Parent Loop BB13_5 Depth=1
                                        @ =>  This Inner Loop Header: Depth=2
	.loc	15 1548 24 is_stmt 0    @ ./include/Bela.h:1548:24
	ldr	r0, [r2, r4, lsl #2]
	orr	r0, r0, r3
	str	r0, [r2, r4, lsl #2]
.Ltmp457:
	.loc	15 1546 46 is_stmt 1 discriminator 2 @ ./include/Bela.h:1546:46
	add	r4, r4, #1
.Ltmp458:
	@DEBUG_VALUE: pinMode:f <- %R4
	.loc	15 1546 30 is_stmt 0 discriminator 1 @ ./include/Bela.h:1546:30
	ldr	r0, [r1, #52]
	.loc	15 1546 2 discriminator 1 @ ./include/Bela.h:1546:2
	cmp	r4, r0
	mov	r7, r0
.Ltmp459:
	.loc	15 1523 30 is_stmt 1 discriminator 1 @ ./include/Bela.h:1523:30
	mov	r5, r0
	mov	r6, r0
	blo	.LBB13_10
.Ltmp460:
.LBB13_11:                              @ %_ZL7pinModeP11BelaContextiii.exit
                                        @   in Loop: Header=BB13_5 Depth=1
	.loc	17 430 6                @ /root/Bela/projects/board_6/BelaArduino.cpp:430:6
	cmp	r12, #0
	beq	.LBB13_23
@ BB#12:                                @   in Loop: Header=BB13_5 Depth=1
.Ltmp461:
	.loc	17 432 7                @ /root/Bela/projects/board_6/BelaArduino.cpp:432:7
	cmp	r12, #1
	bne	.LBB13_17
@ BB#13:                                @   in Loop: Header=BB13_5 Depth=1
.Ltmp462:
	@DEBUG_VALUE: digitalWrite:frame <- 0
	@DEBUG_VALUE: digitalWrite:f <- 0
	.loc	15 1523 2 discriminator 1 @ ./include/Bela.h:1523:2
	cmp	r5, #0
	mov	r6, #0
	mov	r5, #0
	beq	.LBB13_23
.Ltmp463:
@ BB#14:                                @ %.lr.ph.i
                                        @   in Loop: Header=BB13_5 Depth=1
	.loc	17 433 44               @ /root/Bela/projects/board_6/BelaArduino.cpp:433:44
	add	r2, r8, r9, lsl #3
.Ltmp464:
	.loc	15 1527 13              @ ./include/Bela.h:1527:13
	ldr	r7, [r1, #16]
	.loc	15 1525 41              @ ./include/Bela.h:1525:41
	add	r0, r9, #16
.Ltmp465:
	.loc	17 433 44               @ /root/Bela/projects/board_6/BelaArduino.cpp:433:44
	ldrh	r2, [r2, #4]
.Ltmp466:
	.loc	15 1524 6               @ ./include/Bela.h:1524:6
	cmp	r2, #0
	beq	.LBB13_3
@ BB#15:                                @ %.lr.ph.split.i.preheader
                                        @   in Loop: Header=BB13_5 Depth=1
.Ltmp467:
	.loc	15 1525 29              @ ./include/Bela.h:1525:29
	lsl	r3, lr, r0
	mov	r4, #0
.LBB13_16:                              @ %.lr.ph.split.i
                                        @   Parent Loop BB13_5 Depth=1
                                        @ =>  This Inner Loop Header: Depth=2
	.loc	15 1525 24 is_stmt 0    @ ./include/Bela.h:1525:24
	ldr	r0, [r7, r4, lsl #2]
	orr	r0, r0, r3
	str	r0, [r7, r4, lsl #2]
.Ltmp468:
	.loc	15 1523 46 is_stmt 1 discriminator 2 @ ./include/Bela.h:1523:46
	add	r4, r4, #1
.Ltmp469:
	@DEBUG_VALUE: digitalWrite:f <- %R4
	.loc	15 1523 30 is_stmt 0 discriminator 1 @ ./include/Bela.h:1523:30
	ldr	r0, [r1, #52]
	.loc	15 1523 2 discriminator 1 @ ./include/Bela.h:1523:2
	cmp	r4, r0
.Ltmp470:
	.loc	17 437 36 is_stmt 1 discriminator 1 @ /root/Bela/projects/board_6/BelaArduino.cpp:437:36
	mov	r2, r0
	mov	r5, r0
	mov	r6, r0
	blo	.LBB13_16
	b	.LBB13_18
.Ltmp471:
.LBB13_17:                              @   in Loop: Header=BB13_5 Depth=1
	mov	r2, r7
.Ltmp472:
.LBB13_18:                              @ %_ZL12digitalWriteP11BelaContextiii.exit
                                        @   in Loop: Header=BB13_5 Depth=1
	.loc	17 434 7                @ /root/Bela/projects/board_6/BelaArduino.cpp:434:7
	cmp	r12, #2
	bne	.LBB13_22
@ BB#19:                                @   in Loop: Header=BB13_5 Depth=1
.Ltmp473:
	@DEBUG_VALUE: n <- 0
	mov	r7, #0
	mov	r5, #0
	mov	r6, #0
.Ltmp474:
	.loc	17 437 5 discriminator 1 @ /root/Bela/projects/board_6/BelaArduino.cpp:437:5
	cmp	r2, #0
	beq	.LBB13_23
@ BB#20:                                @ %.lr.ph
                                        @   in Loop: Header=BB13_5 Depth=1
.Ltmp475:
	.loc	15 1536 44              @ ./include/Bela.h:1536:44
	add	r0, r9, #16
	ldr	r12, [sp]               @ 4-byte Reload
	mov	r2, #0
	.loc	15 1538 30              @ ./include/Bela.h:1538:30
	mvn	r10, lr, lsl r0
	.loc	15 1536 32              @ ./include/Bela.h:1536:32
	lsl	r4, lr, r0
.Ltmp476:
	.loc	17 440 30               @ /root/Bela/projects/board_6/BelaArduino.cpp:440:30
	add	r0, r8, r9, lsl #3
	.loc	17 440 19 is_stmt 0     @ /root/Bela/projects/board_6/BelaArduino.cpp:440:19
	ldrh	r3, [r0, #4]
.LBB13_21:                              @ %_ZL16digitalWriteOnceP11BelaContextiii.exit
                                        @   Parent Loop BB13_5 Depth=1
                                        @ =>  This Inner Loop Header: Depth=2
.Ltmp477:
	@DEBUG_VALUE: digitalWriteOnce:context <- %R1
	.loc	15 1538 12 is_stmt 1    @ ./include/Bela.h:1538:12
	ldr	r0, [r1, #16]
.Ltmp478:
	.loc	17 439 21               @ /root/Bela/projects/board_6/BelaArduino.cpp:439:21
	add	r7, r12, #1
	.loc	17 439 26 is_stmt 0     @ /root/Bela/projects/board_6/BelaArduino.cpp:439:26
	uxtb	r12, r7
.Ltmp479:
	.loc	15 1535 5 is_stmt 1     @ ./include/Bela.h:1535:5
	cmp	r3, r12
.Ltmp480:
	.loc	15 1536 27              @ ./include/Bela.h:1536:27
	ldr	r5, [r0, r2, lsl #2]
	.loc	15 1538 27              @ ./include/Bela.h:1538:27
	and	r6, r5, r10
.Ltmp481:
	.loc	15 1535 5               @ ./include/Bela.h:1535:5
	orrhi	r6, r5, r4
.Ltmp482:
	.loc	15 1536 27              @ ./include/Bela.h:1536:27
	str	r6, [r0, r2, lsl #2]
.Ltmp483:
	.loc	17 437 51 discriminator 3 @ /root/Bela/projects/board_6/BelaArduino.cpp:437:51
	add	r2, r2, #1
.Ltmp484:
	@DEBUG_VALUE: n <- %R2
	.loc	17 437 36 is_stmt 0 discriminator 1 @ /root/Bela/projects/board_6/BelaArduino.cpp:437:36
	ldr	r0, [r1, #52]
	.loc	17 437 5 discriminator 1 @ /root/Bela/projects/board_6/BelaArduino.cpp:437:5
	cmp	r2, r0
.Ltmp485:
	@DEBUG_VALUE: digitalWriteOnce:frame <- %R2
	mov	r7, r0
	mov	r5, r0
	mov	r6, r0
	blo	.LBB13_21
	b	.LBB13_23
.Ltmp486:
.LBB13_22:                              @   in Loop: Header=BB13_5 Depth=1
	mov	r7, r2
.LBB13_23:                              @ %.loopexit
                                        @   in Loop: Header=BB13_5 Depth=1
	.loc	17 425 33 is_stmt 1 discriminator 1 @ /root/Bela/projects/board_6/BelaArduino.cpp:425:33
	ldr	r2, [r1, #56]
	.loc	17 425 55 is_stmt 0 discriminator 3 @ /root/Bela/projects/board_6/BelaArduino.cpp:425:55
	add	r9, r9, #1
.Ltmp487:
	@DEBUG_VALUE: c <- %R9
	.loc	17 425 49 discriminator 1 @ /root/Bela/projects/board_6/BelaArduino.cpp:425:49
	sub	r2, r2, #16
	.loc	17 425 2 discriminator 1 @ /root/Bela/projects/board_6/BelaArduino.cpp:425:2
	cmp	r9, r2
	blo	.LBB13_5
.Ltmp488:
@ BB#24:
	@DEBUG_VALUE: c <- %R9
	ldr	r2, [sp]                @ 4-byte Reload
.Ltmp489:
.LBB13_25:                              @ %._crit_edge
	.loc	17 446 23 is_stmt 1     @ /root/Bela/projects/board_6/BelaArduino.cpp:446:23
	add	r0, r0, r2
	.loc	17 446 11 is_stmt 0     @ /root/Bela/projects/board_6/BelaArduino.cpp:446:11
	movw	r5, :lower16:.L_MergedGlobals.4
	movt	r5, :upper16:.L_MergedGlobals.4
	.loc	17 446 49               @ /root/Bela/projects/board_6/BelaArduino.cpp:446:49
	uxtb	r0, r0
	.loc	17 446 11               @ /root/Bela/projects/board_6/BelaArduino.cpp:446:11
	str	r0, [r5, #8]
	ldrb	r0, [r5, #1]
	.loc	17 448 5 is_stmt 1      @ /root/Bela/projects/board_6/BelaArduino.cpp:448:5
	cmp	r0, #0
	beq	.LBB13_27
@ BB#26:
.Ltmp490:
	.loc	17 450 20               @ /root/Bela/projects/board_6/BelaArduino.cpp:450:20
	add	r4, r5, #32
	mov	r0, r4
	bl	_ZN16ShiftRegisterOut7processEP11BelaContext
.Ltmp491:
	.loc	17 451 23               @ /root/Bela/projects/board_6/BelaArduino.cpp:451:23
	mov	r0, r4
	bl	_ZN13ShiftRegister9dataReadyEv
.Ltmp492:
	.loc	17 451 6 is_stmt 0      @ /root/Bela/projects/board_6/BelaArduino.cpp:451:6
	cmp	r0, #1
	moveq	r0, #0
	strbeq	r0, [r5, #1]
.Ltmp493:
.LBB13_27:
	.loc	17 495 1 is_stmt 1      @ /root/Bela/projects/board_6/BelaArduino.cpp:495:1
	sub	sp, r11, #28
	pop	{r4, r5, r6, r7, r8, r9, r10, r11, pc}
.Ltmp494:
.Lfunc_end13:
	.size	_Z24BelaArduino_renderBottomP11BelaContext, .Lfunc_end13-_Z24BelaArduino_renderBottomP11BelaContext
	.cfi_endproc
	.fnend

	.globl	_Z19BelaArduino_cleanupP11BelaContextPv
	.p2align	2
	.type	_Z19BelaArduino_cleanupP11BelaContextPv,%function
_Z19BelaArduino_cleanupP11BelaContextPv: @ @_Z19BelaArduino_cleanupP11BelaContextPv
.Lfunc_begin14:
	.loc	17 498 0                @ /root/Bela/projects/board_6/BelaArduino.cpp:498:0
	.fnstart
	.cfi_startproc
@ BB#0:
	@DEBUG_VALUE: BelaArduino_cleanup:context <- %R0
	@DEBUG_VALUE: BelaArduino_cleanup: <- %R1
	.loc	17 516 1 prologue_end   @ /root/Bela/projects/board_6/BelaArduino.cpp:516:1
	bx	lr
.Ltmp495:
.Lfunc_end14:
	.size	_Z19BelaArduino_cleanupP11BelaContextPv, .Lfunc_end14-_Z19BelaArduino_cleanupP11BelaContextPv
	.cfi_endproc
	.fnend

	.weak	Bela_userSettings
	.p2align	2
	.type	Bela_userSettings,%function
Bela_userSettings:                      @ @Bela_userSettings
.Lfunc_begin15:
	.loc	17 519 0                @ /root/Bela/projects/board_6/BelaArduino.cpp:519:0
	.fnstart
	.cfi_startproc
@ BB#0:
	@DEBUG_VALUE: Bela_userSettings:settings <- %R0
	mov	r2, #0
.Ltmp496:
	.loc	17 520 30 prologue_end  @ /root/Bela/projects/board_6/BelaArduino.cpp:520:30
	mov	r1, #1
	.loc	17 521 23               @ /root/Bela/projects/board_6/BelaArduino.cpp:521:23
	str	r2, [r0, #348]
	.loc	17 522 33               @ /root/Bela/projects/board_6/BelaArduino.cpp:522:33
	str	r2, [r0, #352]
	.loc	17 520 30               @ /root/Bela/projects/board_6/BelaArduino.cpp:520:30
	str	r1, [r0, #356]
	.loc	17 523 1                @ /root/Bela/projects/board_6/BelaArduino.cpp:523:1
	bx	lr
.Ltmp497:
.Lfunc_end15:
	.size	Bela_userSettings, .Lfunc_end15-Bela_userSettings
	.cfi_endproc
	.fnend

	.section	.text._ZNSt6vectorIhSaIhEE17_M_default_appendEj,"axG",%progbits,_ZNSt6vectorIhSaIhEE17_M_default_appendEj,comdat
	.weak	_ZNSt6vectorIhSaIhEE17_M_default_appendEj
	.p2align	2
	.type	_ZNSt6vectorIhSaIhEE17_M_default_appendEj,%function
_ZNSt6vectorIhSaIhEE17_M_default_appendEj: @ @_ZNSt6vectorIhSaIhEE17_M_default_appendEj
.Lfunc_begin16:
	.file	54 "/usr/bin/../lib/gcc/arm-linux-gnueabihf/6.3.0/../../../../include/c++/6.3.0/bits" "vector.tcc"
	.loc	54 542 0                @ /usr/bin/../lib/gcc/arm-linux-gnueabihf/6.3.0/../../../../include/c++/6.3.0/bits/vector.tcc:542:0
	.fnstart
	.cfi_startproc
@ BB#0:
	.save	{r4, r5, r6, r7, r8, r10, r11, lr}
	push	{r4, r5, r6, r7, r8, r10, r11, lr}
.Ltmp498:
	.cfi_def_cfa_offset 32
.Ltmp499:
	.cfi_offset lr, -4
.Ltmp500:
	.cfi_offset r11, -8
.Ltmp501:
	.cfi_offset r10, -12
.Ltmp502:
	.cfi_offset r8, -16
.Ltmp503:
	.cfi_offset r7, -20
.Ltmp504:
	.cfi_offset r6, -24
.Ltmp505:
	.cfi_offset r5, -28
.Ltmp506:
	.cfi_offset r4, -32
	.setfp	r11, sp, #24
	add	r11, sp, #24
.Ltmp507:
	.cfi_def_cfa r11, 8
	@DEBUG_VALUE: _M_default_append:this <- %R0
	@DEBUG_VALUE: _M_default_append:__n <- %R1
	mov	r5, r1
.Ltmp508:
	@DEBUG_VALUE: _M_default_append:__n <- %R5
	mov	r4, r0
.Ltmp509:
	@DEBUG_VALUE: _M_default_append:this <- %R4
	.loc	54 543 11 prologue_end  @ /usr/bin/../lib/gcc/arm-linux-gnueabihf/6.3.0/../../../../include/c++/6.3.0/bits/vector.tcc:543:11
	cmp	r5, #0
	beq	.LBB16_12
.Ltmp510:
@ BB#1:
	@DEBUG_VALUE: _M_default_append:this <- %R4
	@DEBUG_VALUE: _M_default_append:__n <- %R5
	@DEBUG_VALUE: __fill_a<unsigned char>:__first <- %R7
	@DEBUG_VALUE: __fill_n_a<unsigned int, unsigned char>:__first <- %R7
	@DEBUG_VALUE: fill_n<unsigned char *, unsigned int, unsigned char>:__first <- %R7
	@DEBUG_VALUE: __uninit_default_n<unsigned char *, unsigned int>:__first <- %R7
	@DEBUG_VALUE: __uninitialized_default_n<unsigned char *, unsigned int>:__first <- %R7
	@DEBUG_VALUE: __uninitialized_default_n_a<unsigned char *, unsigned int, unsigned char>:__first <- %R7
	.loc	54 546 20               @ /usr/bin/../lib/gcc/arm-linux-gnueabihf/6.3.0/../../../../include/c++/6.3.0/bits/vector.tcc:546:20
	ldr	r7, [r4, #4]
.Ltmp511:
	.loc	54 545 32               @ /usr/bin/../lib/gcc/arm-linux-gnueabihf/6.3.0/../../../../include/c++/6.3.0/bits/vector.tcc:545:32
	ldr	r0, [r4, #8]
	.loc	54 546 4                @ /usr/bin/../lib/gcc/arm-linux-gnueabihf/6.3.0/../../../../include/c++/6.3.0/bits/vector.tcc:546:4
	sub	r0, r0, r7
.Ltmp512:
	.loc	54 545 8                @ /usr/bin/../lib/gcc/arm-linux-gnueabihf/6.3.0/../../../../include/c++/6.3.0/bits/vector.tcc:545:8
	cmp	r0, r5
	bhs	.LBB16_5
.Ltmp513:
@ BB#2:
	@DEBUG_VALUE: _M_default_append:this <- %R4
	@DEBUG_VALUE: _M_default_append:__n <- %R5
	@DEBUG_VALUE: size:this <- %R4
	.loc	19 656 66               @ /usr/bin/../lib/gcc/arm-linux-gnueabihf/6.3.0/../../../../include/c++/6.3.0/bits/stl_vector.h:656:66
	ldr	r1, [r4]
	.loc	19 656 50 is_stmt 0     @ /usr/bin/../lib/gcc/arm-linux-gnueabihf/6.3.0/../../../../include/c++/6.3.0/bits/stl_vector.h:656:50
	sub	r0, r7, r1
.Ltmp514:
	@DEBUG_VALUE: _M_check_len:__n <- %R5
	.loc	19 1422 17 is_stmt 1    @ /usr/bin/../lib/gcc/arm-linux-gnueabihf/6.3.0/../../../../include/c++/6.3.0/bits/stl_vector.h:1422:17
	mvn	r2, r0
.Ltmp515:
	.loc	19 1422 6 is_stmt 0     @ /usr/bin/../lib/gcc/arm-linux-gnueabihf/6.3.0/../../../../include/c++/6.3.0/bits/stl_vector.h:1422:6
	cmp	r2, r5
	blo	.LBB16_13
.Ltmp516:
@ BB#3:                                 @ %_ZNKSt6vectorIhSaIhEE12_M_check_lenEjPKc.exit
	@DEBUG_VALUE: _M_check_len:__n <- %R5
	@DEBUG_VALUE: size:this <- %R4
	@DEBUG_VALUE: _M_default_append:this <- %R4
	@DEBUG_VALUE: _M_default_append:__n <- %R5
	.loc	19 1425 35 is_stmt 1    @ /usr/bin/../lib/gcc/arm-linux-gnueabihf/6.3.0/../../../../include/c++/6.3.0/bits/stl_vector.h:1425:35
	cmp	r0, r5
	mov	r2, r0
	movlo	r2, r5
	add	r6, r2, r0
	cmp	r6, r2
	.loc	19 1426 25              @ /usr/bin/../lib/gcc/arm-linux-gnueabihf/6.3.0/../../../../include/c++/6.3.0/bits/stl_vector.h:1426:25
	mvnlo	r6, #0
.Ltmp517:
	@DEBUG_VALUE: __len <- %R6
	@DEBUG_VALUE: allocate:__n <- %R6
	@DEBUG_VALUE: allocate:__n <- %R6
	.loc	19 170 9                @ /usr/bin/../lib/gcc/arm-linux-gnueabihf/6.3.0/../../../../include/c++/6.3.0/bits/stl_vector.h:170:9
	cmp	r6, #0
.Ltmp518:
	@DEBUG_VALUE: _M_check_len:__len <- %R6
	@DEBUG_VALUE: _M_allocate:__n <- %R6
	beq	.LBB16_6
.Ltmp519:
@ BB#4:
	@DEBUG_VALUE: _M_allocate:__n <- %R6
	@DEBUG_VALUE: _M_check_len:__len <- %R6
	@DEBUG_VALUE: allocate:__n <- %R6
	@DEBUG_VALUE: allocate:__n <- %R6
	@DEBUG_VALUE: __len <- %R6
	@DEBUG_VALUE: _M_check_len:__n <- %R5
	@DEBUG_VALUE: size:this <- %R4
	@DEBUG_VALUE: _M_default_append:this <- %R4
	@DEBUG_VALUE: _M_default_append:__n <- %R5
	.loc	7 104 27                @ /usr/bin/../lib/gcc/arm-linux-gnueabihf/6.3.0/../../../../include/c++/6.3.0/ext/new_allocator.h:104:27
	mov	r0, r6
	bl	_Znwj
.Ltmp520:
	.loc	54 563 22               @ /usr/bin/../lib/gcc/arm-linux-gnueabihf/6.3.0/../../../../include/c++/6.3.0/bits/vector.tcc:563:22
	ldm	r4, {r1, r7}
.Ltmp521:
	@DEBUG_VALUE: size:this <- %R4
	.loc	7 104 27                @ /usr/bin/../lib/gcc/arm-linux-gnueabihf/6.3.0/../../../../include/c++/6.3.0/ext/new_allocator.h:104:27
	mov	r8, r0
	b	.LBB16_7
.Ltmp522:
.LBB16_5:                               @ %_ZSt27__uninitialized_default_n_aIPhjhET_S1_T0_RSaIT1_E.exit
	@DEBUG_VALUE: _M_default_append:this <- %R4
	@DEBUG_VALUE: _M_default_append:__n <- %R5
	@DEBUG_VALUE: __uninitialized_default_n<unsigned char *, unsigned int>:__assignable <- 1
	@DEBUG_VALUE: __len <- %R5
	@DEBUG_VALUE: __fill_n_a<unsigned int, unsigned char>:__n <- %R5
	.file	55 "/usr/bin/../lib/gcc/arm-linux-gnueabihf/6.3.0/../../../../include/c++/6.3.0/bits" "stl_algobase.h"
	.loc	55 707 2                @ /usr/bin/../lib/gcc/arm-linux-gnueabihf/6.3.0/../../../../include/c++/6.3.0/bits/stl_algobase.h:707:2
	mov	r0, r7
	mov	r1, #0
	mov	r2, r5
	bl	memset
.Ltmp523:
	.loc	55 763 38               @ /usr/bin/../lib/gcc/arm-linux-gnueabihf/6.3.0/../../../../include/c++/6.3.0/bits/stl_algobase.h:763:38
	add	r0, r7, r5
.Ltmp524:
	@DEBUG_VALUE: __fill_a<unsigned char>:__last <- %R0
	.loc	54 548 32               @ /usr/bin/../lib/gcc/arm-linux-gnueabihf/6.3.0/../../../../include/c++/6.3.0/bits/vector.tcc:548:32
	str	r0, [r4, #4]
.Ltmp525:
	.loc	54 586 5 discriminator 2 @ /usr/bin/../lib/gcc/arm-linux-gnueabihf/6.3.0/../../../../include/c++/6.3.0/bits/vector.tcc:586:5
	pop	{r4, r5, r6, r7, r8, r10, r11, pc}
.Ltmp526:
.LBB16_6:                               @ %_ZNKSt6vectorIhSaIhEE12_M_check_lenEjPKc.exit._ZNSt12_Vector_baseIhSaIhEE11_M_allocateEj.exit_crit_edge
	@DEBUG_VALUE: _M_allocate:__n <- %R6
	@DEBUG_VALUE: _M_check_len:__len <- %R6
	@DEBUG_VALUE: allocate:__n <- %R6
	@DEBUG_VALUE: allocate:__n <- %R6
	@DEBUG_VALUE: __len <- %R6
	@DEBUG_VALUE: _M_check_len:__n <- %R5
	@DEBUG_VALUE: size:this <- %R4
	@DEBUG_VALUE: _M_default_append:this <- %R4
	@DEBUG_VALUE: _M_default_append:__n <- %R5
	mov	r8, #0
.Ltmp527:
	@DEBUG_VALUE: allocate: <- %R8
.LBB16_7:                               @ %_ZNSt12_Vector_baseIhSaIhEE11_M_allocateEj.exit
	@DEBUG_VALUE: _M_allocate:__n <- %R6
	@DEBUG_VALUE: _M_check_len:__len <- %R6
	@DEBUG_VALUE: allocate:__n <- %R6
	@DEBUG_VALUE: allocate:__n <- %R6
	@DEBUG_VALUE: __len <- %R6
	@DEBUG_VALUE: _M_check_len:__n <- %R5
	@DEBUG_VALUE: size:this <- %R4
	@DEBUG_VALUE: _M_default_append:this <- %R4
	@DEBUG_VALUE: _M_default_append:__n <- %R5
	@DEBUG_VALUE: __uninitialized_move_if_noexcept_a<unsigned char *, unsigned char *, std::allocator<unsigned char> >:__first <- %R1
	@DEBUG_VALUE: uninitialized_copy<std::move_iterator<unsigned char *>, unsigned char *>:__assignable <- 1
	@DEBUG_VALUE: __copy_move_a<true, unsigned char *, unsigned char *>:__simple <- 1
	.loc	55 366 34               @ /usr/bin/../lib/gcc/arm-linux-gnueabihf/6.3.0/../../../../include/c++/6.3.0/bits/stl_algobase.h:366:34
	subs	r7, r7, r1
.Ltmp528:
	@DEBUG_VALUE: __copy_m<unsigned char>:_Num <- %R7
	beq	.LBB16_9
.Ltmp529:
@ BB#8:
	@DEBUG_VALUE: __copy_m<unsigned char>:_Num <- %R7
	@DEBUG_VALUE: __uninitialized_move_if_noexcept_a<unsigned char *, unsigned char *, std::allocator<unsigned char> >:__first <- %R1
	@DEBUG_VALUE: _M_allocate:__n <- %R6
	@DEBUG_VALUE: _M_check_len:__len <- %R6
	@DEBUG_VALUE: allocate:__n <- %R6
	@DEBUG_VALUE: allocate:__n <- %R6
	@DEBUG_VALUE: __len <- %R6
	@DEBUG_VALUE: _M_check_len:__n <- %R5
	@DEBUG_VALUE: size:this <- %R4
	@DEBUG_VALUE: _M_default_append:this <- %R4
	@DEBUG_VALUE: _M_default_append:__n <- %R5
	@DEBUG_VALUE: __uninitialized_move_if_noexcept_a<unsigned char *, unsigned char *, std::allocator<unsigned char> >:__result <- %R8
	.loc	55 368 6                @ /usr/bin/../lib/gcc/arm-linux-gnueabihf/6.3.0/../../../../include/c++/6.3.0/bits/stl_algobase.h:368:6
	mov	r0, r8
	mov	r2, r7
	bl	memmove
.Ltmp530:
.LBB16_9:
	@DEBUG_VALUE: __copy_m<unsigned char>:_Num <- %R7
	@DEBUG_VALUE: _M_allocate:__n <- %R6
	@DEBUG_VALUE: _M_check_len:__len <- %R6
	@DEBUG_VALUE: allocate:__n <- %R6
	@DEBUG_VALUE: allocate:__n <- %R6
	@DEBUG_VALUE: __len <- %R6
	@DEBUG_VALUE: _M_check_len:__n <- %R5
	@DEBUG_VALUE: size:this <- %R4
	@DEBUG_VALUE: _M_default_append:this <- %R4
	@DEBUG_VALUE: _M_default_append:__n <- %R5
	.loc	55 369 20               @ /usr/bin/../lib/gcc/arm-linux-gnueabihf/6.3.0/../../../../include/c++/6.3.0/bits/stl_algobase.h:369:20
	add	r7, r8, r7
.Ltmp531:
	@DEBUG_VALUE: __len <- %R5
	@DEBUG_VALUE: __fill_n_a<unsigned int, unsigned char>:__first <- %R7
	@DEBUG_VALUE: fill_n<unsigned char *, unsigned int, unsigned char>:__first <- %R7
	@DEBUG_VALUE: __uninit_default_n<unsigned char *, unsigned int>:__first <- %R7
	@DEBUG_VALUE: __uninitialized_default_n<unsigned char *, unsigned int>:__assignable <- 1
	@DEBUG_VALUE: __uninitialized_default_n<unsigned char *, unsigned int>:__first <- %R7
	@DEBUG_VALUE: __uninitialized_default_n_a<unsigned char *, unsigned int, unsigned char>:__first <- %R7
	@DEBUG_VALUE: __new_finish <- %R7
	@DEBUG_VALUE: __fill_a<unsigned char>:__first <- %R7
	@DEBUG_VALUE: __fill_n_a<unsigned int, unsigned char>:__n <- %R5
	.loc	55 707 2                @ /usr/bin/../lib/gcc/arm-linux-gnueabihf/6.3.0/../../../../include/c++/6.3.0/bits/stl_algobase.h:707:2
	mov	r1, #0
	mov	r2, r5
	mov	r0, r7
	bl	memset
.Ltmp532:
	.loc	54 578 36               @ /usr/bin/../lib/gcc/arm-linux-gnueabihf/6.3.0/../../../../include/c++/6.3.0/bits/vector.tcc:578:36
	ldr	r0, [r4]
.Ltmp533:
	@DEBUG_VALUE: _M_deallocate:__p <- %R0
	@DEBUG_VALUE: deallocate:__p <- %R0
	@DEBUG_VALUE: deallocate:__p <- %R0
	.loc	55 763 38               @ /usr/bin/../lib/gcc/arm-linux-gnueabihf/6.3.0/../../../../include/c++/6.3.0/bits/stl_algobase.h:763:38
	add	r5, r7, r5
.Ltmp534:
	@DEBUG_VALUE: __fill_a<unsigned char>:__last <- %R5
	@DEBUG_VALUE: __new_finish <- %R5
	.loc	19 177 6                @ /usr/bin/../lib/gcc/arm-linux-gnueabihf/6.3.0/../../../../include/c++/6.3.0/bits/stl_vector.h:177:6
	cmp	r0, #0
	beq	.LBB16_11
.Ltmp535:
@ BB#10:
	@DEBUG_VALUE: __new_finish <- %R5
	@DEBUG_VALUE: __fill_a<unsigned char>:__last <- %R5
	@DEBUG_VALUE: deallocate:__p <- %R0
	@DEBUG_VALUE: deallocate:__p <- %R0
	@DEBUG_VALUE: _M_deallocate:__p <- %R0
	@DEBUG_VALUE: __fill_a<unsigned char>:__first <- %R7
	@DEBUG_VALUE: __uninitialized_default_n_a<unsigned char *, unsigned int, unsigned char>:__first <- %R7
	@DEBUG_VALUE: __uninitialized_default_n<unsigned char *, unsigned int>:__first <- %R7
	@DEBUG_VALUE: __uninit_default_n<unsigned char *, unsigned int>:__first <- %R7
	@DEBUG_VALUE: fill_n<unsigned char *, unsigned int, unsigned char>:__first <- %R7
	@DEBUG_VALUE: __fill_n_a<unsigned int, unsigned char>:__first <- %R7
	@DEBUG_VALUE: _M_allocate:__n <- %R6
	@DEBUG_VALUE: _M_check_len:__len <- %R6
	@DEBUG_VALUE: allocate:__n <- %R6
	@DEBUG_VALUE: allocate:__n <- %R6
	@DEBUG_VALUE: __len <- %R6
	@DEBUG_VALUE: size:this <- %R4
	@DEBUG_VALUE: _M_default_append:this <- %R4
	.loc	7 110 9                 @ /usr/bin/../lib/gcc/arm-linux-gnueabihf/6.3.0/../../../../include/c++/6.3.0/ext/new_allocator.h:110:9
	bl	_ZdlPv
.Ltmp536:
.LBB16_11:                              @ %_ZNSt12_Vector_baseIhSaIhEE13_M_deallocateEPhj.exit31
	@DEBUG_VALUE: __new_finish <- %R5
	@DEBUG_VALUE: __fill_a<unsigned char>:__last <- %R5
	@DEBUG_VALUE: __fill_a<unsigned char>:__first <- %R7
	@DEBUG_VALUE: __uninitialized_default_n_a<unsigned char *, unsigned int, unsigned char>:__first <- %R7
	@DEBUG_VALUE: __uninitialized_default_n<unsigned char *, unsigned int>:__first <- %R7
	@DEBUG_VALUE: __uninit_default_n<unsigned char *, unsigned int>:__first <- %R7
	@DEBUG_VALUE: fill_n<unsigned char *, unsigned int, unsigned char>:__first <- %R7
	@DEBUG_VALUE: __fill_n_a<unsigned int, unsigned char>:__first <- %R7
	@DEBUG_VALUE: _M_allocate:__n <- %R6
	@DEBUG_VALUE: _M_check_len:__len <- %R6
	@DEBUG_VALUE: allocate:__n <- %R6
	@DEBUG_VALUE: allocate:__n <- %R6
	@DEBUG_VALUE: __len <- %R6
	@DEBUG_VALUE: size:this <- %R4
	@DEBUG_VALUE: _M_default_append:this <- %R4
	.loc	54 581 31               @ /usr/bin/../lib/gcc/arm-linux-gnueabihf/6.3.0/../../../../include/c++/6.3.0/bits/vector.tcc:581:31
	str	r8, [r4]
	.loc	54 583 54               @ /usr/bin/../lib/gcc/arm-linux-gnueabihf/6.3.0/../../../../include/c++/6.3.0/bits/vector.tcc:583:54
	add	r0, r8, r6
	.loc	54 582 32               @ /usr/bin/../lib/gcc/arm-linux-gnueabihf/6.3.0/../../../../include/c++/6.3.0/bits/vector.tcc:582:32
	str	r5, [r4, #4]
	.loc	54 583 40               @ /usr/bin/../lib/gcc/arm-linux-gnueabihf/6.3.0/../../../../include/c++/6.3.0/bits/vector.tcc:583:40
	str	r0, [r4, #8]
.Ltmp537:
.LBB16_12:
	@DEBUG_VALUE: _M_default_append:this <- %R4
	.loc	54 586 5 discriminator 2 @ /usr/bin/../lib/gcc/arm-linux-gnueabihf/6.3.0/../../../../include/c++/6.3.0/bits/vector.tcc:586:5
	pop	{r4, r5, r6, r7, r8, r10, r11, pc}
.Ltmp538:
.LBB16_13:
	@DEBUG_VALUE: _M_check_len:__n <- %R5
	@DEBUG_VALUE: size:this <- %R4
	@DEBUG_VALUE: _M_default_append:this <- %R4
	@DEBUG_VALUE: _M_default_append:__n <- %R5
	.loc	19 1423 4               @ /usr/bin/../lib/gcc/arm-linux-gnueabihf/6.3.0/../../../../include/c++/6.3.0/bits/stl_vector.h:1423:4
	movw	r0, :lower16:.L.str.14
	movt	r0, :upper16:.L.str.14
.Ltmp539:
	@DEBUG_VALUE: _M_check_len:__s <- %R0
	mov	lr, pc
	b	_ZSt20__throw_length_errorPKc
.Ltmp540:
.Lfunc_end16:
	.size	_ZNSt6vectorIhSaIhEE17_M_default_appendEj, .Lfunc_end16-_ZNSt6vectorIhSaIhEE17_M_default_appendEj
	.cfi_endproc
	.file	56 "/usr/bin/../lib/gcc/arm-linux-gnueabihf/6.3.0/../../../../include/c++/6.3.0/ext" "type_traits.h"
	.file	57 "/usr/bin/../lib/gcc/arm-linux-gnueabihf/6.3.0/../../../../include/c++/6.3.0/bits" "stl_uninitialized.h"
	.fnend

	.section	.text._ZNSt6vectorIbSaIbEE14_M_fill_insertESt13_Bit_iteratorjb,"axG",%progbits,_ZNSt6vectorIbSaIbEE14_M_fill_insertESt13_Bit_iteratorjb,comdat
	.weak	_ZNSt6vectorIbSaIbEE14_M_fill_insertESt13_Bit_iteratorjb
	.p2align	2
	.type	_ZNSt6vectorIbSaIbEE14_M_fill_insertESt13_Bit_iteratorjb,%function
_ZNSt6vectorIbSaIbEE14_M_fill_insertESt13_Bit_iteratorjb: @ @_ZNSt6vectorIbSaIbEE14_M_fill_insertESt13_Bit_iteratorjb
.Lfunc_begin17:
	.loc	54 714 0                @ /usr/bin/../lib/gcc/arm-linux-gnueabihf/6.3.0/../../../../include/c++/6.3.0/bits/vector.tcc:714:0
	.fnstart
	.cfi_startproc
@ BB#0:
	.save	{r4, r5, r6, r7, r8, r9, r10, r11, lr}
	push	{r4, r5, r6, r7, r8, r9, r10, r11, lr}
.Ltmp541:
	.cfi_def_cfa_offset 36
.Ltmp542:
	.cfi_offset lr, -4
.Ltmp543:
	.cfi_offset r11, -8
.Ltmp544:
	.cfi_offset r10, -12
.Ltmp545:
	.cfi_offset r9, -16
.Ltmp546:
	.cfi_offset r8, -20
.Ltmp547:
	.cfi_offset r7, -24
.Ltmp548:
	.cfi_offset r6, -28
.Ltmp549:
	.cfi_offset r5, -32
.Ltmp550:
	.cfi_offset r4, -36
	.setfp	r11, sp, #28
	add	r11, sp, #28
.Ltmp551:
	.cfi_def_cfa r11, 8
	.pad	#20
	sub	sp, sp, #20
	@DEBUG_VALUE: _M_fill_insert:this <- %R0
	@DEBUG_VALUE: _M_fill_insert:__n <- %R3
	mov	r8, r3
.Ltmp552:
	@DEBUG_VALUE: _M_fill_insert:__n <- %R8
	mov	r9, r0
.Ltmp553:
	@DEBUG_VALUE: _M_fill_insert:this <- %R9
	ldr	r0, [r11, #8]
	mov	r6, r2
	mov	r10, r1
	strb	r0, [sp, #19]
.Ltmp554:
	@DEBUG_VALUE: _M_copy_aligned:__last [bit_piece offset=0 size=32] <- %R10
	@DEBUG_VALUE: _Bit_iterator_base:__y <- %R6
	@DEBUG_VALUE: __n <- %R6
	.loc	54 715 11 prologue_end  @ /usr/bin/../lib/gcc/arm-linux-gnueabihf/6.3.0/../../../../include/c++/6.3.0/bits/vector.tcc:715:11
	cmp	r8, #0
	beq	.LBB17_19
.Ltmp555:
@ BB#1:
	@DEBUG_VALUE: __n <- %R6
	@DEBUG_VALUE: _Bit_iterator_base:__y <- %R6
	@DEBUG_VALUE: _M_copy_aligned:__last [bit_piece offset=0 size=32] <- %R10
	@DEBUG_VALUE: _M_fill_insert:this <- %R9
	@DEBUG_VALUE: _M_fill_insert:__n <- %R8
	@DEBUG_VALUE: capacity:this <- %R9
	@DEBUG_VALUE: begin:this <- %R9
	.loc	11 313 30               @ /usr/bin/../lib/gcc/arm-linux-gnueabihf/6.3.0/../../../../include/c++/6.3.0/bits/stl_bvector.h:313:30
	mov	r4, r9
.Ltmp556:
	.loc	11 313 40 is_stmt 0     @ /usr/bin/../lib/gcc/arm-linux-gnueabihf/6.3.0/../../../../include/c++/6.3.0/bits/stl_bvector.h:313:40
	ldr	r1, [r9, #4]
.Ltmp557:
	.loc	11 280 24 is_stmt 1 discriminator 1 @ /usr/bin/../lib/gcc/arm-linux-gnueabihf/6.3.0/../../../../include/c++/6.3.0/bits/stl_bvector.h:280:24
	ldr	r2, [r9, #12]
.Ltmp558:
	.loc	11 313 30               @ /usr/bin/../lib/gcc/arm-linux-gnueabihf/6.3.0/../../../../include/c++/6.3.0/bits/stl_bvector.h:313:30
	ldr	r3, [r9]
.Ltmp559:
	.loc	11 444 8                @ /usr/bin/../lib/gcc/arm-linux-gnueabihf/6.3.0/../../../../include/c++/6.3.0/bits/stl_bvector.h:444:8
	ldr	r7, [r9, #16]
.Ltmp560:
	.loc	11 211 6                @ /usr/bin/../lib/gcc/arm-linux-gnueabihf/6.3.0/../../../../include/c++/6.3.0/bits/stl_bvector.h:211:6
	sub	r5, r2, r1
.Ltmp561:
	.loc	11 313 30               @ /usr/bin/../lib/gcc/arm-linux-gnueabihf/6.3.0/../../../../include/c++/6.3.0/bits/stl_bvector.h:313:30
	ldr	r0, [r4, #8]!
.Ltmp562:
	.loc	11 210 42               @ /usr/bin/../lib/gcc/arm-linux-gnueabihf/6.3.0/../../../../include/c++/6.3.0/bits/stl_bvector.h:210:42
	sub	r0, r0, r3
.Ltmp563:
	.loc	11 210 42 is_stmt 0     @ /usr/bin/../lib/gcc/arm-linux-gnueabihf/6.3.0/../../../../include/c++/6.3.0/bits/stl_bvector.h:210:42
	sub	r3, r7, r3
.Ltmp564:
	.loc	11 211 22 is_stmt 1     @ /usr/bin/../lib/gcc/arm-linux-gnueabihf/6.3.0/../../../../include/c++/6.3.0/bits/stl_bvector.h:211:22
	add	r0, r5, r0, lsl #3
.Ltmp565:
	.loc	11 211 22 is_stmt 0     @ /usr/bin/../lib/gcc/arm-linux-gnueabihf/6.3.0/../../../../include/c++/6.3.0/bits/stl_bvector.h:211:22
	rsb	r1, r1, r3, lsl #3
.Ltmp566:
	@DEBUG_VALUE: end:this <- %R9
	.loc	54 717 22 is_stmt 1     @ /usr/bin/../lib/gcc/arm-linux-gnueabihf/6.3.0/../../../../include/c++/6.3.0/bits/vector.tcc:717:22
	sub	r1, r1, r0
.Ltmp567:
	.loc	54 717 11 is_stmt 0     @ /usr/bin/../lib/gcc/arm-linux-gnueabihf/6.3.0/../../../../include/c++/6.3.0/bits/vector.tcc:717:11
	cmp	r1, r8
.Ltmp568:
	@DEBUG_VALUE: _Bit_const_iterator:__x <- %R4
	@DEBUG_VALUE: operator+:this <- %R4
	@DEBUG_VALUE: operator+=:this <- %R4
	@DEBUG_VALUE: _Bit_const_iterator:__x <- %R4
	@DEBUG_VALUE: _Bit_const_iterator:__x <- %R4
	@DEBUG_VALUE: _Bit_const_iterator:__x <- %R4
	@DEBUG_VALUE: _Bit_const_iterator:__x <- %R4
	bhs	.LBB17_11
.Ltmp569:
@ BB#2:
	@DEBUG_VALUE: _Bit_const_iterator:__x <- %R4
	@DEBUG_VALUE: _Bit_const_iterator:__x <- %R4
	@DEBUG_VALUE: _Bit_const_iterator:__x <- %R4
	@DEBUG_VALUE: _Bit_const_iterator:__x <- %R4
	@DEBUG_VALUE: operator+=:this <- %R4
	@DEBUG_VALUE: operator+:this <- %R4
	@DEBUG_VALUE: _Bit_const_iterator:__x <- %R4
	@DEBUG_VALUE: end:this <- %R9
	@DEBUG_VALUE: begin:this <- %R9
	@DEBUG_VALUE: capacity:this <- %R9
	@DEBUG_VALUE: __n <- %R6
	@DEBUG_VALUE: _Bit_iterator_base:__y <- %R6
	@DEBUG_VALUE: _M_copy_aligned:__last [bit_piece offset=0 size=32] <- %R10
	@DEBUG_VALUE: _M_fill_insert:this <- %R9
	@DEBUG_VALUE: _M_fill_insert:__n <- %R8
	@DEBUG_VALUE: _M_check_len:__n <- %R8
	.loc	11 1239 22 is_stmt 1    @ /usr/bin/../lib/gcc/arm-linux-gnueabihf/6.3.0/../../../../include/c++/6.3.0/bits/stl_bvector.h:1239:22
	mvn	r1, #-2147483617
	str	r4, [sp, #12]           @ 4-byte Spill
	sub	r1, r1, r0
.Ltmp570:
	.loc	11 1239 11 is_stmt 0    @ /usr/bin/../lib/gcc/arm-linux-gnueabihf/6.3.0/../../../../include/c++/6.3.0/bits/stl_bvector.h:1239:11
	cmp	r1, r8
	blo	.LBB17_20
.Ltmp571:
@ BB#3:                                 @ %_ZNKSt6vectorIbSaIbEE12_M_check_lenEjPKc.exit
	@DEBUG_VALUE: _M_check_len:__n <- %R8
	@DEBUG_VALUE: _Bit_const_iterator:__x <- %R4
	@DEBUG_VALUE: _Bit_const_iterator:__x <- %R4
	@DEBUG_VALUE: _Bit_const_iterator:__x <- %R4
	@DEBUG_VALUE: _Bit_const_iterator:__x <- %R4
	@DEBUG_VALUE: operator+=:this <- %R4
	@DEBUG_VALUE: operator+:this <- %R4
	@DEBUG_VALUE: _Bit_const_iterator:__x <- %R4
	@DEBUG_VALUE: end:this <- %R9
	@DEBUG_VALUE: begin:this <- %R9
	@DEBUG_VALUE: capacity:this <- %R9
	@DEBUG_VALUE: __n <- %R6
	@DEBUG_VALUE: _Bit_iterator_base:__y <- %R6
	@DEBUG_VALUE: _M_copy_aligned:__last [bit_piece offset=0 size=32] <- %R10
	@DEBUG_VALUE: _M_fill_insert:this <- %R9
	@DEBUG_VALUE: _M_fill_insert:__n <- %R8
	.loc	11 1242 40 is_stmt 1    @ /usr/bin/../lib/gcc/arm-linux-gnueabihf/6.3.0/../../../../include/c++/6.3.0/bits/stl_bvector.h:1242:40
	cmp	r0, r8
	mov	r1, r0
	movlo	r1, r8
	add	r0, r1, r0
.Ltmp572:
	.loc	11 508 40               @ /usr/bin/../lib/gcc/arm-linux-gnueabihf/6.3.0/../../../../include/c++/6.3.0/bits/stl_bvector.h:508:40
	add	r2, r0, #31
	.loc	11 508 45 is_stmt 0     @ /usr/bin/../lib/gcc/arm-linux-gnueabihf/6.3.0/../../../../include/c++/6.3.0/bits/stl_bvector.h:508:45
	cmn	r0, #-2147483616
	lsr	r2, r2, #5
	mvnhi	r2, #-67108864
	cmp	r0, r1
	mvnlo	r2, #-67108864
.Ltmp573:
	@DEBUG_VALUE: allocate:__n <- %R2
	@DEBUG_VALUE: allocate:__n <- %R2
	.loc	7 104 46 is_stmt 1      @ /usr/bin/../lib/gcc/arm-linux-gnueabihf/6.3.0/../../../../include/c++/6.3.0/ext/new_allocator.h:104:46
	lsl	r0, r2, #2
	str	r2, [sp, #4]            @ 4-byte Spill
.Ltmp574:
	@DEBUG_VALUE: allocate:__n <- [%SP+4]
	@DEBUG_VALUE: allocate:__n <- [%SP+4]
	.loc	7 104 27 is_stmt 0      @ /usr/bin/../lib/gcc/arm-linux-gnueabihf/6.3.0/../../../../include/c++/6.3.0/ext/new_allocator.h:104:27
	bl	_Znwj
.Ltmp575:
	@DEBUG_VALUE: begin:this <- %R9
	@DEBUG_VALUE: _Bit_iterator_base:__y <- 0
	@DEBUG_VALUE: _Bit_iterator:__y <- 0
	.loc	11 780 14 is_stmt 1     @ /usr/bin/../lib/gcc/arm-linux-gnueabihf/6.3.0/../../../../include/c++/6.3.0/bits/stl_bvector.h:780:14
	ldr	r1, [r9]
.Ltmp576:
	.loc	7 104 27                @ /usr/bin/../lib/gcc/arm-linux-gnueabihf/6.3.0/../../../../include/c++/6.3.0/ext/new_allocator.h:104:27
	mov	r7, r0
.Ltmp577:
	@DEBUG_VALUE: __copy_move_a<false, unsigned long *, unsigned long *>:__simple <- 1
	mov	r4, #0
.Ltmp578:
	.loc	55 366 34               @ /usr/bin/../lib/gcc/arm-linux-gnueabihf/6.3.0/../../../../include/c++/6.3.0/bits/stl_algobase.h:366:34
	sub	r2, r10, r1
	asr	r5, r2, #2
.Ltmp579:
	@DEBUG_VALUE: __copy_m<unsigned long>:_Num <- %R5
	.loc	55 367 8                @ /usr/bin/../lib/gcc/arm-linux-gnueabihf/6.3.0/../../../../include/c++/6.3.0/bits/stl_algobase.h:367:8
	cmp	r4, r2, asr #2
.Ltmp580:
	@DEBUG_VALUE: _M_check_len:__len <- %R0
	@DEBUG_VALUE: _M_copy_aligned:__first [bit_piece offset=0 size=32] <- %R1
	beq	.LBB17_5
.Ltmp581:
@ BB#4:
	@DEBUG_VALUE: _M_copy_aligned:__first [bit_piece offset=0 size=32] <- %R1
	@DEBUG_VALUE: _M_check_len:__len <- %R0
	@DEBUG_VALUE: __copy_m<unsigned long>:_Num <- %R5
	@DEBUG_VALUE: begin:this <- %R9
	@DEBUG_VALUE: _M_check_len:__n <- %R8
	@DEBUG_VALUE: end:this <- %R9
	@DEBUG_VALUE: begin:this <- %R9
	@DEBUG_VALUE: capacity:this <- %R9
	@DEBUG_VALUE: __n <- %R6
	@DEBUG_VALUE: _Bit_iterator_base:__y <- %R6
	@DEBUG_VALUE: _M_copy_aligned:__last [bit_piece offset=0 size=32] <- %R10
	@DEBUG_VALUE: _M_fill_insert:this <- %R9
	@DEBUG_VALUE: _M_fill_insert:__n <- %R8
	.loc	55 368 6                @ /usr/bin/../lib/gcc/arm-linux-gnueabihf/6.3.0/../../../../include/c++/6.3.0/bits/stl_algobase.h:368:6
	mov	r0, r7
.Ltmp582:
	bl	memmove
.Ltmp583:
.LBB17_5:                               @ %_ZSt4copyIPmS0_ET0_T_S2_S1_.exit.i
	@DEBUG_VALUE: __copy_m<unsigned long>:_Num <- %R5
	@DEBUG_VALUE: begin:this <- %R9
	@DEBUG_VALUE: _M_check_len:__n <- %R8
	@DEBUG_VALUE: end:this <- %R9
	@DEBUG_VALUE: begin:this <- %R9
	@DEBUG_VALUE: capacity:this <- %R9
	@DEBUG_VALUE: __n <- %R6
	@DEBUG_VALUE: _Bit_iterator_base:__y <- %R6
	@DEBUG_VALUE: _M_copy_aligned:__last [bit_piece offset=0 size=32] <- %R10
	@DEBUG_VALUE: _M_fill_insert:this <- %R9
	@DEBUG_VALUE: _M_fill_insert:__n <- %R8
	.loc	55 369 20               @ /usr/bin/../lib/gcc/arm-linux-gnueabihf/6.3.0/../../../../include/c++/6.3.0/bits/stl_algobase.h:369:20
	add	r0, r7, r5, lsl #2
.Ltmp584:
	@DEBUG_VALUE: __copy_move_a<false, std::_Bit_const_iterator, std::_Bit_iterator>:__simple <- 0
	@DEBUG_VALUE: _Bit_iterator_base:__y <- 0
	@DEBUG_VALUE: _Bit_iterator_base:__x <- %R0
	@DEBUG_VALUE: _Bit_iterator:__y <- 0
	@DEBUG_VALUE: _Bit_iterator:__x <- %R0
	@DEBUG_VALUE: _Bit_iterator_base:__y <- 0
	@DEBUG_VALUE: _M_copy_aligned:__q <- %R0
	str	r7, [sp, #8]            @ 4-byte Spill
.Ltmp585:
	.loc	55 322 4 discriminator 1 @ /usr/bin/../lib/gcc/arm-linux-gnueabihf/6.3.0/../../../../include/c++/6.3.0/bits/stl_algobase.h:322:4
	cmp	r6, #1
	blt	.LBB17_8
.Ltmp586:
@ BB#6:                                 @ %.lr.ph.i.i.i.i.i.preheader
	@DEBUG_VALUE: _M_copy_aligned:__q <- %R0
	@DEBUG_VALUE: _Bit_iterator:__x <- %R0
	@DEBUG_VALUE: _Bit_iterator_base:__x <- %R0
	@DEBUG_VALUE: __copy_m<unsigned long>:_Num <- %R5
	@DEBUG_VALUE: begin:this <- %R9
	@DEBUG_VALUE: _M_check_len:__n <- %R8
	@DEBUG_VALUE: end:this <- %R9
	@DEBUG_VALUE: begin:this <- %R9
	@DEBUG_VALUE: capacity:this <- %R9
	@DEBUG_VALUE: __n <- %R6
	@DEBUG_VALUE: _Bit_iterator_base:__y <- %R6
	@DEBUG_VALUE: _M_copy_aligned:__last [bit_piece offset=0 size=32] <- %R10
	@DEBUG_VALUE: _M_fill_insert:this <- %R9
	@DEBUG_VALUE: _M_fill_insert:__n <- %R8
	.loc	55 319 47               @ /usr/bin/../lib/gcc/arm-linux-gnueabihf/6.3.0/../../../../include/c++/6.3.0/bits/stl_algobase.h:319:47
	add	r1, r6, #1
	mov	r5, #0
.Ltmp587:
	.loc	11 231 34               @ /usr/bin/../lib/gcc/arm-linux-gnueabihf/6.3.0/../../../../include/c++/6.3.0/bits/stl_bvector.h:231:34
	mov	r12, #1
.Ltmp588:
	.loc	55 385 14               @ /usr/bin/../lib/gcc/arm-linux-gnueabihf/6.3.0/../../../../include/c++/6.3.0/bits/stl_algobase.h:385:14
	mov	r3, r10
	mov	r4, #0
.Ltmp589:
.LBB17_7:                               @ %.lr.ph.i.i.i.i.i
                                        @ =>This Inner Loop Header: Depth=1
	.loc	11 81 17                @ /usr/bin/../lib/gcc/arm-linux-gnueabihf/6.3.0/../../../../include/c++/6.3.0/bits/stl_bvector.h:81:17
	ldr	r2, [r3]
.Ltmp590:
	.loc	11 231 34               @ /usr/bin/../lib/gcc/arm-linux-gnueabihf/6.3.0/../../../../include/c++/6.3.0/bits/stl_bvector.h:231:34
	lsl	r7, r12, r4
.Ltmp591:
	.loc	55 322 46 discriminator 1 @ /usr/bin/../lib/gcc/arm-linux-gnueabihf/6.3.0/../../../../include/c++/6.3.0/bits/stl_algobase.h:322:46
	sub	r1, r1, #1
.Ltmp592:
	.loc	11 86 11                @ /usr/bin/../lib/gcc/arm-linux-gnueabihf/6.3.0/../../../../include/c++/6.3.0/bits/stl_bvector.h:86:11
	tst	r2, r12, lsl r5
.Ltmp593:
	.loc	11 89 8                 @ /usr/bin/../lib/gcc/arm-linux-gnueabihf/6.3.0/../../../../include/c++/6.3.0/bits/stl_bvector.h:89:8
	ldr	r2, [r0]
	biceq	r7, r2, r7
	.loc	11 87 8                 @ /usr/bin/../lib/gcc/arm-linux-gnueabihf/6.3.0/../../../../include/c++/6.3.0/bits/stl_bvector.h:87:8
	orrne	r7, r2, r7
	mov	r2, r0
.Ltmp594:
	.loc	11 148 11               @ /usr/bin/../lib/gcc/arm-linux-gnueabihf/6.3.0/../../../../include/c++/6.3.0/bits/stl_bvector.h:148:11
	cmp	r5, #31
.Ltmp595:
	.loc	11 87 8                 @ /usr/bin/../lib/gcc/arm-linux-gnueabihf/6.3.0/../../../../include/c++/6.3.0/bits/stl_bvector.h:87:8
	str	r7, [r2], #4
.Ltmp596:
	.loc	11 148 11               @ /usr/bin/../lib/gcc/arm-linux-gnueabihf/6.3.0/../../../../include/c++/6.3.0/bits/stl_bvector.h:148:11
	addeq	r3, r3, #4
.Ltmp597:
	.loc	11 148 11 is_stmt 0     @ /usr/bin/../lib/gcc/arm-linux-gnueabihf/6.3.0/../../../../include/c++/6.3.0/bits/stl_bvector.h:148:11
	cmp	r4, #31
.Ltmp598:
	.loc	11 148 20               @ /usr/bin/../lib/gcc/arm-linux-gnueabihf/6.3.0/../../../../include/c++/6.3.0/bits/stl_bvector.h:148:20
	add	r4, r4, #1
.Ltmp599:
	.loc	11 148 11               @ /usr/bin/../lib/gcc/arm-linux-gnueabihf/6.3.0/../../../../include/c++/6.3.0/bits/stl_bvector.h:148:11
	moveq	r0, r2
	movweq	r4, #0
.Ltmp600:
	.loc	11 148 20               @ /usr/bin/../lib/gcc/arm-linux-gnueabihf/6.3.0/../../../../include/c++/6.3.0/bits/stl_bvector.h:148:20
	add	r2, r5, #1
.Ltmp601:
	.loc	11 148 11               @ /usr/bin/../lib/gcc/arm-linux-gnueabihf/6.3.0/../../../../include/c++/6.3.0/bits/stl_bvector.h:148:11
	cmp	r5, #31
	movweq	r2, #0
.Ltmp602:
	.loc	55 322 4 is_stmt 1 discriminator 1 @ /usr/bin/../lib/gcc/arm-linux-gnueabihf/6.3.0/../../../../include/c++/6.3.0/bits/stl_algobase.h:322:4
	cmp	r1, #1
.Ltmp603:
	.loc	55 385 14               @ /usr/bin/../lib/gcc/arm-linux-gnueabihf/6.3.0/../../../../include/c++/6.3.0/bits/stl_algobase.h:385:14
	mov	r5, r2
	bgt	.LBB17_7
.Ltmp604:
.LBB17_8:                               @ %_ZNSt6vectorIbSaIbEE15_M_copy_alignedESt19_Bit_const_iteratorS2_St13_Bit_iterator.exit
	add	r1, sp, #19
.Ltmp605:
	@DEBUG_VALUE: _M_incr:__i <- %R8
	@DEBUG_VALUE: _M_fill_insert:__x <- [%R1+0]
	.loc	54 731 4 discriminator 2 @ /usr/bin/../lib/gcc/arm-linux-gnueabihf/6.3.0/../../../../include/c++/6.3.0/bits/vector.tcc:731:4
	str	r1, [sp]
.Ltmp606:
	.loc	11 168 33               @ /usr/bin/../lib/gcc/arm-linux-gnueabihf/6.3.0/../../../../include/c++/6.3.0/bits/stl_bvector.h:168:33
	add	r1, r4, r8
.Ltmp607:
	@DEBUG_VALUE: _M_incr:__n <- %R1
	@DEBUG_VALUE: _M_incr:__n <- %R1
	.loc	11 169 19               @ /usr/bin/../lib/gcc/arm-linux-gnueabihf/6.3.0/../../../../include/c++/6.3.0/bits/stl_bvector.h:169:19
	asr	r2, r1, #31
	add	r2, r1, r2, lsr #27
.Ltmp608:
	@DEBUG_VALUE: _M_incr:__n <- %R7
	@DEBUG_VALUE: _M_incr:__n <- %R7
	asr	r3, r2, #5
	bfc	r2, #0, #5
	.loc	11 170 17               @ /usr/bin/../lib/gcc/arm-linux-gnueabihf/6.3.0/../../../../include/c++/6.3.0/bits/stl_bvector.h:170:17
	sub	r7, r1, r2
.Ltmp609:
	.loc	11 169 12               @ /usr/bin/../lib/gcc/arm-linux-gnueabihf/6.3.0/../../../../include/c++/6.3.0/bits/stl_bvector.h:169:12
	add	r5, r0, r3, lsl #2
	.loc	11 171 11               @ /usr/bin/../lib/gcc/arm-linux-gnueabihf/6.3.0/../../../../include/c++/6.3.0/bits/stl_bvector.h:171:11
	cmp	r7, #0
.Ltmp610:
	.loc	54 731 4 discriminator 2 @ /usr/bin/../lib/gcc/arm-linux-gnueabihf/6.3.0/../../../../include/c++/6.3.0/bits/vector.tcc:731:4
	mov	r1, r4
.Ltmp611:
	.loc	11 171 11               @ /usr/bin/../lib/gcc/arm-linux-gnueabihf/6.3.0/../../../../include/c++/6.3.0/bits/stl_bvector.h:171:11
	sublt	r5, r5, #4
.Ltmp612:
	@DEBUG_VALUE: _M_incr:__n <- undef
	@DEBUG_VALUE: _M_incr:__n <- undef
	addlt	r7, r7, #32
.Ltmp613:
	.loc	54 731 4 discriminator 2 @ /usr/bin/../lib/gcc/arm-linux-gnueabihf/6.3.0/../../../../include/c++/6.3.0/bits/vector.tcc:731:4
	mov	r2, r5
	mov	r3, r7
	bl	_ZSt4fillSt13_Bit_iteratorS_RKb
.Ltmp614:
	@DEBUG_VALUE: __copy_move_a<false, std::_Bit_iterator, std::_Bit_iterator>:__simple <- 0
	ldr	r4, [sp, #12]           @ 4-byte Reload
.Ltmp615:
	.loc	11 788 14               @ /usr/bin/../lib/gcc/arm-linux-gnueabihf/6.3.0/../../../../include/c++/6.3.0/bits/stl_bvector.h:788:14
	ldm	r4, {r0, r1}
.Ltmp616:
	.loc	11 210 42               @ /usr/bin/../lib/gcc/arm-linux-gnueabihf/6.3.0/../../../../include/c++/6.3.0/bits/stl_bvector.h:210:42
	sub	r2, r0, r10
	.loc	11 211 6                @ /usr/bin/../lib/gcc/arm-linux-gnueabihf/6.3.0/../../../../include/c++/6.3.0/bits/stl_bvector.h:211:6
	sub	r3, r1, r6
	.loc	11 211 22 is_stmt 0     @ /usr/bin/../lib/gcc/arm-linux-gnueabihf/6.3.0/../../../../include/c++/6.3.0/bits/stl_bvector.h:211:22
	add	r2, r3, r2, lsl #3
.Ltmp617:
	@DEBUG_VALUE: __n <- %R2
	.loc	55 322 4 is_stmt 1 discriminator 1 @ /usr/bin/../lib/gcc/arm-linux-gnueabihf/6.3.0/../../../../include/c++/6.3.0/bits/stl_algobase.h:322:4
	cmp	r2, #1
	blt	.LBB17_15
.Ltmp618:
@ BB#9:                                 @ %.lr.ph.i.i.i.i.preheader
	@DEBUG_VALUE: __n <- %R2
	@DEBUG_VALUE: _M_incr:__i <- %R8
	.loc	55 319 47               @ /usr/bin/../lib/gcc/arm-linux-gnueabihf/6.3.0/../../../../include/c++/6.3.0/bits/stl_algobase.h:319:47
	add	r0, r1, r0, lsl #3
	ldr	r8, [sp, #4]            @ 4-byte Reload
.Ltmp619:
	add	r0, r0, #1
.Ltmp620:
	.loc	11 231 34               @ /usr/bin/../lib/gcc/arm-linux-gnueabihf/6.3.0/../../../../include/c++/6.3.0/bits/stl_bvector.h:231:34
	mov	r1, #1
.Ltmp621:
	.loc	55 319 47               @ /usr/bin/../lib/gcc/arm-linux-gnueabihf/6.3.0/../../../../include/c++/6.3.0/bits/stl_algobase.h:319:47
	sub	r0, r0, r6
	sub	r0, r0, r10, lsl #3
.Ltmp622:
.LBB17_10:                              @ %.lr.ph.i.i.i.i
                                        @ =>This Inner Loop Header: Depth=1
	.loc	11 81 17                @ /usr/bin/../lib/gcc/arm-linux-gnueabihf/6.3.0/../../../../include/c++/6.3.0/bits/stl_bvector.h:81:17
	ldr	r3, [r10]
.Ltmp623:
	.loc	11 231 34               @ /usr/bin/../lib/gcc/arm-linux-gnueabihf/6.3.0/../../../../include/c++/6.3.0/bits/stl_bvector.h:231:34
	lsl	r2, r1, r7
.Ltmp624:
	.loc	55 322 46 discriminator 1 @ /usr/bin/../lib/gcc/arm-linux-gnueabihf/6.3.0/../../../../include/c++/6.3.0/bits/stl_algobase.h:322:46
	sub	r0, r0, #1
.Ltmp625:
	.loc	11 86 11                @ /usr/bin/../lib/gcc/arm-linux-gnueabihf/6.3.0/../../../../include/c++/6.3.0/bits/stl_bvector.h:86:11
	tst	r3, r1, lsl r6
.Ltmp626:
	.loc	11 89 8                 @ /usr/bin/../lib/gcc/arm-linux-gnueabihf/6.3.0/../../../../include/c++/6.3.0/bits/stl_bvector.h:89:8
	ldr	r3, [r5]
	biceq	r2, r3, r2
	.loc	11 87 8                 @ /usr/bin/../lib/gcc/arm-linux-gnueabihf/6.3.0/../../../../include/c++/6.3.0/bits/stl_bvector.h:87:8
	orrne	r2, r3, r2
	mov	r3, r5
.Ltmp627:
	.loc	11 148 11               @ /usr/bin/../lib/gcc/arm-linux-gnueabihf/6.3.0/../../../../include/c++/6.3.0/bits/stl_bvector.h:148:11
	cmp	r6, #31
.Ltmp628:
	.loc	11 87 8                 @ /usr/bin/../lib/gcc/arm-linux-gnueabihf/6.3.0/../../../../include/c++/6.3.0/bits/stl_bvector.h:87:8
	str	r2, [r3], #4
.Ltmp629:
	.loc	11 148 11               @ /usr/bin/../lib/gcc/arm-linux-gnueabihf/6.3.0/../../../../include/c++/6.3.0/bits/stl_bvector.h:148:11
	addeq	r10, r10, #4
.Ltmp630:
	.loc	11 148 11 is_stmt 0     @ /usr/bin/../lib/gcc/arm-linux-gnueabihf/6.3.0/../../../../include/c++/6.3.0/bits/stl_bvector.h:148:11
	cmp	r7, #31
.Ltmp631:
	.loc	11 148 20               @ /usr/bin/../lib/gcc/arm-linux-gnueabihf/6.3.0/../../../../include/c++/6.3.0/bits/stl_bvector.h:148:20
	add	r7, r7, #1
.Ltmp632:
	.loc	11 148 11               @ /usr/bin/../lib/gcc/arm-linux-gnueabihf/6.3.0/../../../../include/c++/6.3.0/bits/stl_bvector.h:148:11
	moveq	r5, r3
	movweq	r7, #0
.Ltmp633:
	.loc	11 148 20               @ /usr/bin/../lib/gcc/arm-linux-gnueabihf/6.3.0/../../../../include/c++/6.3.0/bits/stl_bvector.h:148:20
	add	r2, r6, #1
.Ltmp634:
	.loc	11 148 11               @ /usr/bin/../lib/gcc/arm-linux-gnueabihf/6.3.0/../../../../include/c++/6.3.0/bits/stl_bvector.h:148:11
	cmp	r6, #31
	movweq	r2, #0
.Ltmp635:
	.loc	55 322 4 is_stmt 1 discriminator 1 @ /usr/bin/../lib/gcc/arm-linux-gnueabihf/6.3.0/../../../../include/c++/6.3.0/bits/stl_algobase.h:322:4
	cmp	r0, #1
.Ltmp636:
	.loc	55 385 14               @ /usr/bin/../lib/gcc/arm-linux-gnueabihf/6.3.0/../../../../include/c++/6.3.0/bits/stl_algobase.h:385:14
	mov	r6, r2
	bgt	.LBB17_10
	b	.LBB17_16
.Ltmp637:
.LBB17_11:
	@DEBUG_VALUE: _Bit_const_iterator:__x <- %R4
	@DEBUG_VALUE: _Bit_const_iterator:__x <- %R4
	@DEBUG_VALUE: _Bit_const_iterator:__x <- %R4
	@DEBUG_VALUE: _Bit_const_iterator:__x <- %R4
	@DEBUG_VALUE: operator+=:this <- %R4
	@DEBUG_VALUE: operator+:this <- %R4
	@DEBUG_VALUE: _Bit_const_iterator:__x <- %R4
	@DEBUG_VALUE: end:this <- %R9
	@DEBUG_VALUE: begin:this <- %R9
	@DEBUG_VALUE: capacity:this <- %R9
	@DEBUG_VALUE: __n <- %R6
	@DEBUG_VALUE: _Bit_iterator_base:__y <- %R6
	@DEBUG_VALUE: _M_copy_aligned:__last [bit_piece offset=0 size=32] <- %R10
	@DEBUG_VALUE: _M_fill_insert:this <- %R9
	@DEBUG_VALUE: _M_fill_insert:__n <- %R8
	@DEBUG_VALUE: _M_incr:__i <- %R8
	@DEBUG_VALUE: __copy_move_backward_a<false, std::_Bit_iterator, std::_Bit_iterator>:__simple <- 0
	.loc	11 788 14               @ /usr/bin/../lib/gcc/arm-linux-gnueabihf/6.3.0/../../../../include/c++/6.3.0/bits/stl_bvector.h:788:14
	ldm	r4, {r0, r1}
.Ltmp638:
	.loc	11 210 42               @ /usr/bin/../lib/gcc/arm-linux-gnueabihf/6.3.0/../../../../include/c++/6.3.0/bits/stl_bvector.h:210:42
	sub	r3, r0, r10
	.loc	11 211 6                @ /usr/bin/../lib/gcc/arm-linux-gnueabihf/6.3.0/../../../../include/c++/6.3.0/bits/stl_bvector.h:211:6
	sub	r7, r1, r6
	.loc	11 211 22 is_stmt 0     @ /usr/bin/../lib/gcc/arm-linux-gnueabihf/6.3.0/../../../../include/c++/6.3.0/bits/stl_bvector.h:211:22
	add	r3, r7, r3, lsl #3
.Ltmp639:
	@DEBUG_VALUE: __copy_move_b<std::_Bit_iterator, std::_Bit_iterator>:__n <- %R3
	.loc	55 532 4 is_stmt 1 discriminator 1 @ /usr/bin/../lib/gcc/arm-linux-gnueabihf/6.3.0/../../../../include/c++/6.3.0/bits/stl_algobase.h:532:4
	cmp	r3, #1
	blt	.LBB17_14
.Ltmp640:
@ BB#12:                                @ %_ZNSt13_Bit_iteratormmEv.exit11.i.i.i.i.preheader
	@DEBUG_VALUE: __copy_move_b<std::_Bit_iterator, std::_Bit_iterator>:__n <- %R3
	@DEBUG_VALUE: _M_incr:__i <- %R8
	@DEBUG_VALUE: _Bit_const_iterator:__x <- %R4
	@DEBUG_VALUE: _Bit_const_iterator:__x <- %R4
	@DEBUG_VALUE: _Bit_const_iterator:__x <- %R4
	@DEBUG_VALUE: _Bit_const_iterator:__x <- %R4
	@DEBUG_VALUE: operator+=:this <- %R4
	@DEBUG_VALUE: operator+:this <- %R4
	@DEBUG_VALUE: _Bit_const_iterator:__x <- %R4
	@DEBUG_VALUE: end:this <- %R9
	@DEBUG_VALUE: begin:this <- %R9
	@DEBUG_VALUE: capacity:this <- %R9
	@DEBUG_VALUE: __n <- %R6
	@DEBUG_VALUE: _Bit_iterator_base:__y <- %R6
	@DEBUG_VALUE: _M_copy_aligned:__last [bit_piece offset=0 size=32] <- %R10
	@DEBUG_VALUE: _M_fill_insert:this <- %R9
	@DEBUG_VALUE: _M_fill_insert:__n <- %R8
	.loc	11 168 33               @ /usr/bin/../lib/gcc/arm-linux-gnueabihf/6.3.0/../../../../include/c++/6.3.0/bits/stl_bvector.h:168:33
	add	r2, r2, r8
.Ltmp641:
	@DEBUG_VALUE: _M_incr:__n <- %R2
	.loc	11 231 34               @ /usr/bin/../lib/gcc/arm-linux-gnueabihf/6.3.0/../../../../include/c++/6.3.0/bits/stl_bvector.h:231:34
	mov	r12, #1
.Ltmp642:
	.loc	11 169 19               @ /usr/bin/../lib/gcc/arm-linux-gnueabihf/6.3.0/../../../../include/c++/6.3.0/bits/stl_bvector.h:169:19
	asr	r3, r2, #31
.Ltmp643:
	add	r3, r2, r3, lsr #27
.Ltmp644:
	@DEBUG_VALUE: _M_incr:__n <- %R4
	asr	r7, r3, #5
	bfc	r3, #0, #5
	.loc	11 170 17               @ /usr/bin/../lib/gcc/arm-linux-gnueabihf/6.3.0/../../../../include/c++/6.3.0/bits/stl_bvector.h:170:17
	sub	r4, r2, r3
.Ltmp645:
	.loc	55 529 55               @ /usr/bin/../lib/gcc/arm-linux-gnueabihf/6.3.0/../../../../include/c++/6.3.0/bits/stl_algobase.h:529:55
	add	r3, r1, r0, lsl #3
	add	r3, r3, #1
.Ltmp646:
	.loc	11 171 11               @ /usr/bin/../lib/gcc/arm-linux-gnueabihf/6.3.0/../../../../include/c++/6.3.0/bits/stl_bvector.h:171:11
	cmp	r4, #0
	.loc	11 169 12               @ /usr/bin/../lib/gcc/arm-linux-gnueabihf/6.3.0/../../../../include/c++/6.3.0/bits/stl_bvector.h:169:12
	add	r2, r0, r7, lsl #2
.Ltmp647:
	.loc	55 529 55               @ /usr/bin/../lib/gcc/arm-linux-gnueabihf/6.3.0/../../../../include/c++/6.3.0/bits/stl_algobase.h:529:55
	sub	r3, r3, r6
.Ltmp648:
	.loc	11 171 11               @ /usr/bin/../lib/gcc/arm-linux-gnueabihf/6.3.0/../../../../include/c++/6.3.0/bits/stl_bvector.h:171:11
	sublt	r2, r2, #4
.Ltmp649:
	@DEBUG_VALUE: _M_incr:__n <- undef
	addlt	r4, r4, #32
.Ltmp650:
	.loc	55 529 55               @ /usr/bin/../lib/gcc/arm-linux-gnueabihf/6.3.0/../../../../include/c++/6.3.0/bits/stl_algobase.h:529:55
	sub	r3, r3, r10, lsl #3
.Ltmp651:
.LBB17_13:                              @ %_ZNSt13_Bit_iteratormmEv.exit11.i.i.i.i
                                        @ =>This Inner Loop Header: Depth=1
	.loc	11 158 11               @ /usr/bin/../lib/gcc/arm-linux-gnueabihf/6.3.0/../../../../include/c++/6.3.0/bits/stl_bvector.h:158:11
	cmp	r4, #0
.Ltmp652:
	.loc	11 158 20 is_stmt 0     @ /usr/bin/../lib/gcc/arm-linux-gnueabihf/6.3.0/../../../../include/c++/6.3.0/bits/stl_bvector.h:158:20
	sub	r7, r4, #1
.Ltmp653:
	.loc	11 158 11               @ /usr/bin/../lib/gcc/arm-linux-gnueabihf/6.3.0/../../../../include/c++/6.3.0/bits/stl_bvector.h:158:11
	subeq	r2, r2, #4
.Ltmp654:
	.loc	11 158 11               @ /usr/bin/../lib/gcc/arm-linux-gnueabihf/6.3.0/../../../../include/c++/6.3.0/bits/stl_bvector.h:158:11
	cmp	r1, #0
	subeq	r0, r0, #4
.Ltmp655:
	.loc	11 158 20               @ /usr/bin/../lib/gcc/arm-linux-gnueabihf/6.3.0/../../../../include/c++/6.3.0/bits/stl_bvector.h:158:20
	sub	r1, r1, #1
.Ltmp656:
	.loc	11 158 11               @ /usr/bin/../lib/gcc/arm-linux-gnueabihf/6.3.0/../../../../include/c++/6.3.0/bits/stl_bvector.h:158:11
	movweq	r1, #31
.Ltmp657:
	.loc	11 158 11               @ /usr/bin/../lib/gcc/arm-linux-gnueabihf/6.3.0/../../../../include/c++/6.3.0/bits/stl_bvector.h:158:11
	cmp	r4, #0
.Ltmp658:
	.loc	11 81 17 is_stmt 1      @ /usr/bin/../lib/gcc/arm-linux-gnueabihf/6.3.0/../../../../include/c++/6.3.0/bits/stl_bvector.h:81:17
	ldr	r5, [r0]
.Ltmp659:
	.loc	11 158 11               @ /usr/bin/../lib/gcc/arm-linux-gnueabihf/6.3.0/../../../../include/c++/6.3.0/bits/stl_bvector.h:158:11
	movweq	r7, #31
.Ltmp660:
	.loc	11 231 34               @ /usr/bin/../lib/gcc/arm-linux-gnueabihf/6.3.0/../../../../include/c++/6.3.0/bits/stl_bvector.h:231:34
	lsl	r4, r12, r7
.Ltmp661:
	.loc	55 532 37 discriminator 1 @ /usr/bin/../lib/gcc/arm-linux-gnueabihf/6.3.0/../../../../include/c++/6.3.0/bits/stl_algobase.h:532:37
	sub	r3, r3, #1
.Ltmp662:
	.loc	11 86 11                @ /usr/bin/../lib/gcc/arm-linux-gnueabihf/6.3.0/../../../../include/c++/6.3.0/bits/stl_bvector.h:86:11
	tst	r5, r12, lsl r1
.Ltmp663:
	.loc	11 89 8                 @ /usr/bin/../lib/gcc/arm-linux-gnueabihf/6.3.0/../../../../include/c++/6.3.0/bits/stl_bvector.h:89:8
	ldr	r5, [r2]
	biceq	r4, r5, r4
	.loc	11 87 8                 @ /usr/bin/../lib/gcc/arm-linux-gnueabihf/6.3.0/../../../../include/c++/6.3.0/bits/stl_bvector.h:87:8
	orrne	r4, r5, r4
	str	r4, [r2]
.Ltmp664:
	.loc	55 587 14               @ /usr/bin/../lib/gcc/arm-linux-gnueabihf/6.3.0/../../../../include/c++/6.3.0/bits/stl_algobase.h:587:14
	mov	r4, r7
.Ltmp665:
	.loc	55 532 4 discriminator 1 @ /usr/bin/../lib/gcc/arm-linux-gnueabihf/6.3.0/../../../../include/c++/6.3.0/bits/stl_algobase.h:532:4
	cmp	r3, #1
	bgt	.LBB17_13
.Ltmp666:
.LBB17_14:                              @ %_ZSt13copy_backwardISt13_Bit_iteratorS0_ET0_T_S2_S1_.exit
	add	r0, sp, #19
.Ltmp667:
	@DEBUG_VALUE: _M_incr:__i <- %R8
	@DEBUG_VALUE: _M_fill_insert:__x <- [%R0+0]
	.loc	54 721 4 discriminator 2 @ /usr/bin/../lib/gcc/arm-linux-gnueabihf/6.3.0/../../../../include/c++/6.3.0/bits/vector.tcc:721:4
	str	r0, [sp]
.Ltmp668:
	.loc	11 168 33               @ /usr/bin/../lib/gcc/arm-linux-gnueabihf/6.3.0/../../../../include/c++/6.3.0/bits/stl_bvector.h:168:33
	add	r0, r6, r8
.Ltmp669:
	@DEBUG_VALUE: _M_incr:__n <- %R0
	.loc	11 169 19               @ /usr/bin/../lib/gcc/arm-linux-gnueabihf/6.3.0/../../../../include/c++/6.3.0/bits/stl_bvector.h:169:19
	asr	r1, r0, #31
	add	r1, r0, r1, lsr #27
.Ltmp670:
	@DEBUG_VALUE: _M_incr:__n <- %R3
	asr	r2, r1, #5
	bfc	r1, #0, #5
	.loc	11 170 17               @ /usr/bin/../lib/gcc/arm-linux-gnueabihf/6.3.0/../../../../include/c++/6.3.0/bits/stl_bvector.h:170:17
	sub	r3, r0, r1
.Ltmp671:
	.loc	11 169 12               @ /usr/bin/../lib/gcc/arm-linux-gnueabihf/6.3.0/../../../../include/c++/6.3.0/bits/stl_bvector.h:169:12
	add	r2, r10, r2, lsl #2
	.loc	11 171 11               @ /usr/bin/../lib/gcc/arm-linux-gnueabihf/6.3.0/../../../../include/c++/6.3.0/bits/stl_bvector.h:171:11
	cmp	r3, #0
.Ltmp672:
	.loc	54 721 4 discriminator 2 @ /usr/bin/../lib/gcc/arm-linux-gnueabihf/6.3.0/../../../../include/c++/6.3.0/bits/vector.tcc:721:4
	mov	r0, r10
.Ltmp673:
	.loc	11 171 11               @ /usr/bin/../lib/gcc/arm-linux-gnueabihf/6.3.0/../../../../include/c++/6.3.0/bits/stl_bvector.h:171:11
	sublt	r2, r2, #4
.Ltmp674:
	@DEBUG_VALUE: _M_incr:__n <- undef
	addlt	r3, r3, #32
.Ltmp675:
	.loc	54 721 4 discriminator 2 @ /usr/bin/../lib/gcc/arm-linux-gnueabihf/6.3.0/../../../../include/c++/6.3.0/bits/vector.tcc:721:4
	mov	r1, r6
	bl	_ZSt4fillSt13_Bit_iteratorS_RKb
.Ltmp676:
	.loc	11 168 35               @ /usr/bin/../lib/gcc/arm-linux-gnueabihf/6.3.0/../../../../include/c++/6.3.0/bits/stl_bvector.h:168:35
	ldr	r1, [r9, #12]
	.loc	11 169 12               @ /usr/bin/../lib/gcc/arm-linux-gnueabihf/6.3.0/../../../../include/c++/6.3.0/bits/stl_bvector.h:169:12
	ldr	r0, [r9, #8]
	.loc	11 168 33               @ /usr/bin/../lib/gcc/arm-linux-gnueabihf/6.3.0/../../../../include/c++/6.3.0/bits/stl_bvector.h:168:33
	add	r1, r1, r8
.Ltmp677:
	@DEBUG_VALUE: _M_incr:__n <- %R1
	.loc	11 169 19               @ /usr/bin/../lib/gcc/arm-linux-gnueabihf/6.3.0/../../../../include/c++/6.3.0/bits/stl_bvector.h:169:19
	asr	r2, r1, #31
	add	r2, r1, r2, lsr #27
	asr	r3, r2, #5
	bfc	r2, #0, #5
	.loc	11 170 17               @ /usr/bin/../lib/gcc/arm-linux-gnueabihf/6.3.0/../../../../include/c++/6.3.0/bits/stl_bvector.h:170:17
	sub	r1, r1, r2
.Ltmp678:
	.loc	11 169 12               @ /usr/bin/../lib/gcc/arm-linux-gnueabihf/6.3.0/../../../../include/c++/6.3.0/bits/stl_bvector.h:169:12
	add	r0, r0, r3, lsl #2
	.loc	11 171 11               @ /usr/bin/../lib/gcc/arm-linux-gnueabihf/6.3.0/../../../../include/c++/6.3.0/bits/stl_bvector.h:171:11
	cmp	r1, #0
	sublt	r0, r0, #4
.Ltmp679:
	@DEBUG_VALUE: _M_incr:__n <- undef
	addlt	r1, r1, #32
.Ltmp680:
	@DEBUG_VALUE: _M_incr:__i <- %R8
	@DEBUG_VALUE: end:this <- %R9
	.loc	11 169 12               @ /usr/bin/../lib/gcc/arm-linux-gnueabihf/6.3.0/../../../../include/c++/6.3.0/bits/stl_bvector.h:169:12
	str	r0, [r9, #8]
	.loc	11 176 17               @ /usr/bin/../lib/gcc/arm-linux-gnueabihf/6.3.0/../../../../include/c++/6.3.0/bits/stl_bvector.h:176:17
	str	r1, [r9, #12]
.Ltmp681:
	.loc	54 738 5                @ /usr/bin/../lib/gcc/arm-linux-gnueabihf/6.3.0/../../../../include/c++/6.3.0/bits/vector.tcc:738:5
	sub	sp, r11, #28
	pop	{r4, r5, r6, r7, r8, r9, r10, r11, pc}
.Ltmp682:
.LBB17_15:
	@DEBUG_VALUE: __n <- %R2
	@DEBUG_VALUE: _M_incr:__i <- %R8
	ldr	r8, [sp, #4]            @ 4-byte Reload
.Ltmp683:
.LBB17_16:                              @ %_ZSt4copyISt13_Bit_iteratorS0_ET0_T_S2_S1_.exit
	.loc	54 732 28 discriminator 4 @ /usr/bin/../lib/gcc/arm-linux-gnueabihf/6.3.0/../../../../include/c++/6.3.0/bits/vector.tcc:732:28
	stm	r4, {r5, r7}
.Ltmp684:
	.loc	11 497 23               @ /usr/bin/../lib/gcc/arm-linux-gnueabihf/6.3.0/../../../../include/c++/6.3.0/bits/stl_bvector.h:497:23
	ldr	r0, [r9]
.Ltmp685:
	.loc	11 497 6 is_stmt 0      @ /usr/bin/../lib/gcc/arm-linux-gnueabihf/6.3.0/../../../../include/c++/6.3.0/bits/stl_bvector.h:497:6
	cmp	r0, #0
.Ltmp686:
	@DEBUG_VALUE: end:this <- %R9
	beq	.LBB17_18
.Ltmp687:
@ BB#17:
	@DEBUG_VALUE: end:this <- %R9
	@DEBUG_VALUE: deallocate:__p <- %R0
	@DEBUG_VALUE: deallocate:__p <- %R0
	.loc	7 110 9 is_stmt 1       @ /usr/bin/../lib/gcc/arm-linux-gnueabihf/6.3.0/../../../../include/c++/6.3.0/ext/new_allocator.h:110:9
	bl	_ZdlPv
.Ltmp688:
.LBB17_18:                              @ %_ZNSt13_Bvector_baseISaIbEE13_M_deallocateEv.exit
	@DEBUG_VALUE: end:this <- %R9
	ldr	r1, [sp, #8]            @ 4-byte Reload
	.loc	54 735 42               @ /usr/bin/../lib/gcc/arm-linux-gnueabihf/6.3.0/../../../../include/c++/6.3.0/bits/vector.tcc:735:42
	add	r0, r1, r8, lsl #2
	.loc	54 735 36 is_stmt 0     @ /usr/bin/../lib/gcc/arm-linux-gnueabihf/6.3.0/../../../../include/c++/6.3.0/bits/vector.tcc:735:36
	str	r0, [r9, #16]
	mov	r0, #0
	.loc	54 736 27 is_stmt 1     @ /usr/bin/../lib/gcc/arm-linux-gnueabihf/6.3.0/../../../../include/c++/6.3.0/bits/vector.tcc:736:27
	str	r1, [r9]
	str	r0, [r9, #4]
.Ltmp689:
.LBB17_19:
	.loc	54 738 5                @ /usr/bin/../lib/gcc/arm-linux-gnueabihf/6.3.0/../../../../include/c++/6.3.0/bits/vector.tcc:738:5
	sub	sp, r11, #28
	pop	{r4, r5, r6, r7, r8, r9, r10, r11, pc}
.LBB17_20:
.Ltmp690:
	@DEBUG_VALUE: _M_check_len:__n <- %R8
	@DEBUG_VALUE: _Bit_const_iterator:__x <- %R4
	@DEBUG_VALUE: _Bit_const_iterator:__x <- %R4
	@DEBUG_VALUE: _Bit_const_iterator:__x <- %R4
	@DEBUG_VALUE: _Bit_const_iterator:__x <- %R4
	@DEBUG_VALUE: operator+=:this <- %R4
	@DEBUG_VALUE: operator+:this <- %R4
	@DEBUG_VALUE: _Bit_const_iterator:__x <- %R4
	@DEBUG_VALUE: end:this <- %R9
	@DEBUG_VALUE: begin:this <- %R9
	@DEBUG_VALUE: capacity:this <- %R9
	@DEBUG_VALUE: __n <- %R6
	@DEBUG_VALUE: _Bit_iterator_base:__y <- %R6
	@DEBUG_VALUE: _M_copy_aligned:__last [bit_piece offset=0 size=32] <- %R10
	@DEBUG_VALUE: _M_fill_insert:this <- %R9
	@DEBUG_VALUE: _M_fill_insert:__n <- %R8
	.loc	11 1240 2               @ /usr/bin/../lib/gcc/arm-linux-gnueabihf/6.3.0/../../../../include/c++/6.3.0/bits/stl_bvector.h:1240:2
	movw	r0, :lower16:.L.str.18
	movt	r0, :upper16:.L.str.18
.Ltmp691:
	@DEBUG_VALUE: _M_check_len:__s <- %R0
	mov	lr, pc
	b	_ZSt20__throw_length_errorPKc
.Ltmp692:
.Lfunc_end17:
	.size	_ZNSt6vectorIbSaIbEE14_M_fill_insertESt13_Bit_iteratorjb, .Lfunc_end17-_ZNSt6vectorIbSaIbEE14_M_fill_insertESt13_Bit_iteratorjb
	.cfi_endproc
	.fnend

	.section	.text._ZSt4fillSt13_Bit_iteratorS_RKb,"axG",%progbits,_ZSt4fillSt13_Bit_iteratorS_RKb,comdat
	.weak	_ZSt4fillSt13_Bit_iteratorS_RKb
	.p2align	4
	.type	_ZSt4fillSt13_Bit_iteratorS_RKb,%function
_ZSt4fillSt13_Bit_iteratorS_RKb:        @ @_ZSt4fillSt13_Bit_iteratorS_RKb
.Lfunc_begin18:
	.loc	11 399 0                @ /usr/bin/../lib/gcc/arm-linux-gnueabihf/6.3.0/../../../../include/c++/6.3.0/bits/stl_bvector.h:399:0
	.fnstart
	.cfi_startproc
@ BB#0:
	.save	{r4, r5, r6, r7, r8, r9, r10, lr}
	push	{r4, r5, r6, r7, r8, r9, r10, lr}
.Ltmp693:
	.cfi_def_cfa_offset 32
.Ltmp694:
	.cfi_offset lr, -4
.Ltmp695:
	.cfi_offset r10, -8
.Ltmp696:
	.cfi_offset r9, -12
.Ltmp697:
	.cfi_offset r8, -16
.Ltmp698:
	.cfi_offset r7, -20
.Ltmp699:
	.cfi_offset r6, -24
.Ltmp700:
	.cfi_offset r5, -28
.Ltmp701:
	.cfi_offset r4, -32
	ldr	r7, [sp, #32]
	@DEBUG_VALUE: fill:__first [bit_piece offset=0 size=32] <- %R0
.Ltmp702:
	@DEBUG_VALUE: fill<unsigned long *, int>:__last <- %R2
	@DEBUG_VALUE: __fill_a<unsigned long *, int>:__last <- %R2
	@DEBUG_VALUE: _Bit_iterator:__x <- %R2
	@DEBUG_VALUE: fill:__last [bit_piece offset=0 size=32] <- %R2
	@DEBUG_VALUE: fill:__x <- %R7
	.loc	11 400 9 prologue_end   @ /usr/bin/../lib/gcc/arm-linux-gnueabihf/6.3.0/../../../../include/c++/6.3.0/bits/stl_bvector.h:400:9
	cmp	r0, r2
	beq	.LBB18_22
.Ltmp703:
@ BB#1:
	@DEBUG_VALUE: fill:__x <- %R7
	@DEBUG_VALUE: fill:__last [bit_piece offset=0 size=32] <- %R2
	@DEBUG_VALUE: _Bit_iterator:__x <- %R2
	@DEBUG_VALUE: __fill_a<unsigned long *, int>:__last <- %R2
	@DEBUG_VALUE: fill<unsigned long *, int>:__last <- %R2
	@DEBUG_VALUE: fill:__first [bit_piece offset=0 size=32] <- %R0
	.loc	11 404 56               @ /usr/bin/../lib/gcc/arm-linux-gnueabihf/6.3.0/../../../../include/c++/6.3.0/bits/stl_bvector.h:404:56
	ldrb	r12, [r7]
	.loc	11 402 25               @ /usr/bin/../lib/gcc/arm-linux-gnueabihf/6.3.0/../../../../include/c++/6.3.0/bits/stl_bvector.h:402:25
	add	lr, r0, #4
.Ltmp704:
	@DEBUG_VALUE: fill<unsigned long *, int>:__first <- %LR
	@DEBUG_VALUE: __fill_a<unsigned long *, int>:__first <- %LR
	@DEBUG_VALUE: _Bit_iterator:__x <- %LR
	.loc	55 695 7 discriminator 1 @ /usr/bin/../lib/gcc/arm-linux-gnueabihf/6.3.0/../../../../include/c++/6.3.0/bits/stl_algobase.h:695:7
	cmp	lr, r2
.Ltmp705:
	.loc	11 402 43               @ /usr/bin/../lib/gcc/arm-linux-gnueabihf/6.3.0/../../../../include/c++/6.3.0/bits/stl_bvector.h:402:43
	sbfx	r4, r12, #0, #1
.Ltmp706:
	@DEBUG_VALUE: __fill_a<unsigned long *, int>:__tmp <- %R4
	beq	.LBB18_8
.Ltmp707:
@ BB#2:                                 @ %.lr.ph.i.i.preheader
	@DEBUG_VALUE: __fill_a<unsigned long *, int>:__tmp <- %R4
	@DEBUG_VALUE: _Bit_iterator:__x <- %LR
	@DEBUG_VALUE: __fill_a<unsigned long *, int>:__first <- %LR
	@DEBUG_VALUE: fill<unsigned long *, int>:__first <- %LR
	@DEBUG_VALUE: fill:__x <- %R7
	@DEBUG_VALUE: fill:__last [bit_piece offset=0 size=32] <- %R2
	@DEBUG_VALUE: _Bit_iterator:__x <- %R2
	@DEBUG_VALUE: __fill_a<unsigned long *, int>:__last <- %R2
	@DEBUG_VALUE: fill<unsigned long *, int>:__last <- %R2
	@DEBUG_VALUE: fill:__first [bit_piece offset=0 size=32] <- %R0
	.loc	55 696 11               @ /usr/bin/../lib/gcc/arm-linux-gnueabihf/6.3.0/../../../../include/c++/6.3.0/bits/stl_algobase.h:696:11
	sub	r5, r2, r0
	mov	r6, #1
	sub	r5, r5, #8
	add	r9, r6, r5, lsr #2
	mov	r5, lr
	cmp	r9, #4
	blo	.LBB18_7
.Ltmp708:
@ BB#3:                                 @ %min.iters.checked
	@DEBUG_VALUE: __fill_a<unsigned long *, int>:__tmp <- %R4
	@DEBUG_VALUE: _Bit_iterator:__x <- %LR
	@DEBUG_VALUE: __fill_a<unsigned long *, int>:__first <- %LR
	@DEBUG_VALUE: fill<unsigned long *, int>:__first <- %LR
	@DEBUG_VALUE: fill:__x <- %R7
	@DEBUG_VALUE: fill:__last [bit_piece offset=0 size=32] <- %R2
	@DEBUG_VALUE: _Bit_iterator:__x <- %R2
	@DEBUG_VALUE: __fill_a<unsigned long *, int>:__last <- %R2
	@DEBUG_VALUE: fill<unsigned long *, int>:__last <- %R2
	@DEBUG_VALUE: fill:__first [bit_piece offset=0 size=32] <- %R0
	bic	r8, r9, #-2147483645
	mov	r5, lr
	cmp	r8, #0
	beq	.LBB18_7
.Ltmp709:
@ BB#4:                                 @ %vector.ph
	@DEBUG_VALUE: __fill_a<unsigned long *, int>:__tmp <- %R4
	@DEBUG_VALUE: _Bit_iterator:__x <- %LR
	@DEBUG_VALUE: __fill_a<unsigned long *, int>:__first <- %LR
	@DEBUG_VALUE: fill<unsigned long *, int>:__first <- %LR
	@DEBUG_VALUE: fill:__x <- %R7
	@DEBUG_VALUE: fill:__last [bit_piece offset=0 size=32] <- %R2
	@DEBUG_VALUE: _Bit_iterator:__x <- %R2
	@DEBUG_VALUE: __fill_a<unsigned long *, int>:__last <- %R2
	@DEBUG_VALUE: fill<unsigned long *, int>:__last <- %R2
	@DEBUG_VALUE: fill:__first [bit_piece offset=0 size=32] <- %R0
	add	r5, lr, r8, lsl #2
	vdup.32	q8, r4
	mov	r7, r8
.Ltmp710:
	mov	r6, lr
.Ltmp711:
.LBB18_5:                               @ %vector.body
                                        @ =>This Inner Loop Header: Depth=1
	vst1.32	{d16, d17}, [r6]!
	subs	r7, r7, #4
	bne	.LBB18_5
@ BB#6:                                 @ %middle.block
	cmp	r9, r8
	beq	.LBB18_8
.LBB18_7:                               @ %.lr.ph.i.i
                                        @ =>This Inner Loop Header: Depth=1
	str	r4, [r5], #4
.Ltmp712:
	@DEBUG_VALUE: __fill_a<unsigned long *, int>:__first <- %R5
	.loc	55 695 7 discriminator 1 @ /usr/bin/../lib/gcc/arm-linux-gnueabihf/6.3.0/../../../../include/c++/6.3.0/bits/stl_algobase.h:695:7
	cmp	r2, r5
	bne	.LBB18_7
.Ltmp713:
.LBB18_8:                               @ %_ZSt4fillIPmiEvT_S1_RKT0_.exit
	@DEBUG_VALUE: _Bit_iterator:__y <- 0
	mov	r10, #0
.Ltmp714:
	.loc	11 231 34               @ /usr/bin/../lib/gcc/arm-linux-gnueabihf/6.3.0/../../../../include/c++/6.3.0/bits/stl_bvector.h:231:34
	mov	r5, #1
.Ltmp715:
	.loc	11 86 11                @ /usr/bin/../lib/gcc/arm-linux-gnueabihf/6.3.0/../../../../include/c++/6.3.0/bits/stl_bvector.h:86:11
	cmp	r12, #0
	beq	.LBB18_36
.Ltmp716:
@ BB#9:                                 @ %_ZNSt13_Bit_iteratorppEv.exit.outer.us.i82.preheader
	.loc	11 231 34               @ /usr/bin/../lib/gcc/arm-linux-gnueabihf/6.3.0/../../../../include/c++/6.3.0/bits/stl_bvector.h:231:34
	vmov.i32	q9, #0x1
.Ltmp717:
	.loc	11 0 0                  @ /usr/bin/../lib/gcc/arm-linux-gnueabihf/6.3.0/../../../../include/c++/6.3.0/bits/stl_bvector.h:0:0
	vdup.32	q8, r10
	vmov.i32	q10, #0x4
	b	.LBB18_11
.Ltmp718:
.LBB18_10:                              @ %.us-lcssa12.us-lcssa.us.us.i86
                                        @   in Loop: Header=BB18_11 Depth=1
	.loc	11 151 4                @ /usr/bin/../lib/gcc/arm-linux-gnueabihf/6.3.0/../../../../include/c++/6.3.0/bits/stl_bvector.h:151:4
	add	r10, r10, #1
	mov	r1, #0
.Ltmp719:
.LBB18_11:                              @ %_ZNSt13_Bit_iteratorppEv.exit.outer.us.i82
                                        @ =>This Loop Header: Depth=1
                                        @     Child Loop BB18_17 Depth 2
                                        @     Child Loop BB18_20 Depth 2
                                        @     Child Loop BB18_12 Depth 2
	.loc	11 181 31               @ /usr/bin/../lib/gcc/arm-linux-gnueabihf/6.3.0/../../../../include/c++/6.3.0/bits/stl_bvector.h:181:31
	cmp	r10, #1
	bne	.LBB18_14
.LBB18_12:                              @ %_ZNSt13_Bit_iteratorppEv.exit.us13.us.i89
                                        @   Parent Loop BB18_11 Depth=1
                                        @ =>  This Inner Loop Header: Depth=2
	cmp	r1, #0
	beq	.LBB18_50
.Ltmp720:
@ BB#13:                                @ %_ZNKSt18_Bit_iterator_baseneERKS_.exit.thread.us15.us.i90
                                        @   in Loop: Header=BB18_12 Depth=2
	.loc	11 87 8                 @ /usr/bin/../lib/gcc/arm-linux-gnueabihf/6.3.0/../../../../include/c++/6.3.0/bits/stl_bvector.h:87:8
	ldr	r4, [lr]
	orr	r4, r4, r5, lsl r1
.Ltmp721:
	.loc	11 148 20               @ /usr/bin/../lib/gcc/arm-linux-gnueabihf/6.3.0/../../../../include/c++/6.3.0/bits/stl_bvector.h:148:20
	add	r1, r1, #1
.Ltmp722:
	.loc	11 87 8                 @ /usr/bin/../lib/gcc/arm-linux-gnueabihf/6.3.0/../../../../include/c++/6.3.0/bits/stl_bvector.h:87:8
	str	r4, [lr]
.Ltmp723:
	.loc	11 148 11               @ /usr/bin/../lib/gcc/arm-linux-gnueabihf/6.3.0/../../../../include/c++/6.3.0/bits/stl_bvector.h:148:11
	cmp	r1, #32
	bne	.LBB18_12
	b	.LBB18_10
.Ltmp724:
.LBB18_14:                              @ %_ZNSt13_Bit_iteratorppEv.exit.us.us.us.preheader.i84
                                        @   in Loop: Header=BB18_11 Depth=1
	.loc	11 87 8                 @ /usr/bin/../lib/gcc/arm-linux-gnueabihf/6.3.0/../../../../include/c++/6.3.0/bits/stl_bvector.h:87:8
	ldr	r7, [r0, r10, lsl #2]
.Ltmp725:
	.loc	11 0 0                  @ /usr/bin/../lib/gcc/arm-linux-gnueabihf/6.3.0/../../../../include/c++/6.3.0/bits/stl_bvector.h:0:0
	rsb	r8, r1, #32
	cmp	r8, #3
	bls	.LBB18_19
@ BB#15:                                @ %min.iters.checked170
                                        @   in Loop: Header=BB18_11 Depth=1
	mov	r9, r8
	bfc	r9, #0, #2
	cmp	r9, #0
	beq	.LBB18_19
@ BB#16:                                @ %vector.ph174
                                        @   in Loop: Header=BB18_11 Depth=1
	vorr	d26, d16, d16
	adr	r4, .LCPI18_0
	vld1.64	{d22, d23}, [r4:128]
	add	r6, r1, r9
	vdup.32	q12, r1
	mov	r1, r9
	vmov.32	d26[0], r7
	vadd.i32	q12, q12, q11
	vorr	q11, q8, q8
	vorr	d22, d26, d26
.Ltmp726:
.LBB18_17:                              @ %vector.body166
                                        @   Parent Loop BB18_11 Depth=1
                                        @ =>  This Inner Loop Header: Depth=2
	.loc	11 231 34               @ /usr/bin/../lib/gcc/arm-linux-gnueabihf/6.3.0/../../../../include/c++/6.3.0/bits/stl_bvector.h:231:34
	vshl.u32	q13, q9, q12
.Ltmp727:
	.loc	11 0 0                  @ /usr/bin/../lib/gcc/arm-linux-gnueabihf/6.3.0/../../../../include/c++/6.3.0/bits/stl_bvector.h:0:0
	subs	r1, r1, #4
	vadd.i32	q12, q12, q10
.Ltmp728:
	.loc	11 87 8                 @ /usr/bin/../lib/gcc/arm-linux-gnueabihf/6.3.0/../../../../include/c++/6.3.0/bits/stl_bvector.h:87:8
	vorr	q11, q13, q11
.Ltmp729:
	.loc	11 0 0                  @ /usr/bin/../lib/gcc/arm-linux-gnueabihf/6.3.0/../../../../include/c++/6.3.0/bits/stl_bvector.h:0:0
	bne	.LBB18_17
.Ltmp730:
@ BB#18:                                @ %middle.block167
                                        @   in Loop: Header=BB18_11 Depth=1
	.loc	11 87 8                 @ /usr/bin/../lib/gcc/arm-linux-gnueabihf/6.3.0/../../../../include/c++/6.3.0/bits/stl_bvector.h:87:8
	vext.32	q12, q11, q8, #2
.Ltmp731:
	.loc	11 0 0                  @ /usr/bin/../lib/gcc/arm-linux-gnueabihf/6.3.0/../../../../include/c++/6.3.0/bits/stl_bvector.h:0:0
	cmp	r8, r9
.Ltmp732:
	.loc	11 87 8                 @ /usr/bin/../lib/gcc/arm-linux-gnueabihf/6.3.0/../../../../include/c++/6.3.0/bits/stl_bvector.h:87:8
	vorr	q11, q11, q12
	vdup.32	q12, d22[1]
	vorr	q11, q11, q12
	vmov.32	r7, d22[0]
	bne	.LBB18_20
	b	.LBB18_21
.LBB18_19:                              @   in Loop: Header=BB18_11 Depth=1
	mov	r6, r1
.LBB18_20:                              @ %_ZNSt13_Bit_iteratorppEv.exit.us.us.us.i92
                                        @   Parent Loop BB18_11 Depth=1
                                        @ =>  This Inner Loop Header: Depth=2
	orr	r7, r7, r5, lsl r6
.Ltmp733:
	.loc	11 148 20               @ /usr/bin/../lib/gcc/arm-linux-gnueabihf/6.3.0/../../../../include/c++/6.3.0/bits/stl_bvector.h:148:20
	add	r6, r6, #1
.Ltmp734:
	.loc	11 148 11 is_stmt 0     @ /usr/bin/../lib/gcc/arm-linux-gnueabihf/6.3.0/../../../../include/c++/6.3.0/bits/stl_bvector.h:148:11
	cmp	r6, #32
	bne	.LBB18_20
.Ltmp735:
.LBB18_21:                              @ %.us-lcssa12.us-lcssa.us.us.loopexit42.i85
                                        @   in Loop: Header=BB18_11 Depth=1
	.loc	11 87 8 is_stmt 1       @ /usr/bin/../lib/gcc/arm-linux-gnueabihf/6.3.0/../../../../include/c++/6.3.0/bits/stl_bvector.h:87:8
	str	r7, [r0, r10, lsl #2]
	b	.LBB18_10
.Ltmp736:
.LBB18_22:
	@DEBUG_VALUE: fill:__x <- %R7
	@DEBUG_VALUE: fill:__last [bit_piece offset=0 size=32] <- %R2
	@DEBUG_VALUE: _Bit_iterator:__x <- %R2
	@DEBUG_VALUE: __fill_a<unsigned long *, int>:__last <- %R2
	@DEBUG_VALUE: fill<unsigned long *, int>:__last <- %R2
	@DEBUG_VALUE: fill:__first [bit_piece offset=0 size=32] <- %R0
	.loc	11 407 39               @ /usr/bin/../lib/gcc/arm-linux-gnueabihf/6.3.0/../../../../include/c++/6.3.0/bits/stl_bvector.h:407:39
	ldrb	r2, [r7]
.Ltmp737:
	.loc	11 86 11                @ /usr/bin/../lib/gcc/arm-linux-gnueabihf/6.3.0/../../../../include/c++/6.3.0/bits/stl_bvector.h:86:11
	cmp	r2, #0
	beq	.LBB18_65
.Ltmp738:
@ BB#23:
	@DEBUG_VALUE: fill:__x <- %R7
	@DEBUG_VALUE: fill:__first [bit_piece offset=0 size=32] <- %R0
	.loc	11 0 0                  @ /usr/bin/../lib/gcc/arm-linux-gnueabihf/6.3.0/../../../../include/c++/6.3.0/bits/stl_bvector.h:0:0
	mov	r7, #0
.Ltmp739:
	.loc	11 231 34               @ /usr/bin/../lib/gcc/arm-linux-gnueabihf/6.3.0/../../../../include/c++/6.3.0/bits/stl_bvector.h:231:34
	vmov.i32	q9, #0x1
.Ltmp740:
	.loc	11 0 0                  @ /usr/bin/../lib/gcc/arm-linux-gnueabihf/6.3.0/../../../../include/c++/6.3.0/bits/stl_bvector.h:0:0
	vmov.i32	q10, #0x4
	vdup.32	q8, r7
.Ltmp741:
	.loc	11 231 34               @ /usr/bin/../lib/gcc/arm-linux-gnueabihf/6.3.0/../../../../include/c++/6.3.0/bits/stl_bvector.h:231:34
	mov	r2, #1
.Ltmp742:
	.loc	11 407 7 discriminator 2 @ /usr/bin/../lib/gcc/arm-linux-gnueabihf/6.3.0/../../../../include/c++/6.3.0/bits/stl_bvector.h:407:7
	mov	r5, r0
	b	.LBB18_25
.Ltmp743:
.LBB18_24:                              @ %.us-lcssa12.us-lcssa.us.us.i
                                        @   in Loop: Header=BB18_25 Depth=1
	.loc	11 151 4                @ /usr/bin/../lib/gcc/arm-linux-gnueabihf/6.3.0/../../../../include/c++/6.3.0/bits/stl_bvector.h:151:4
	add	r5, r5, #4
	mov	r1, #0
.Ltmp744:
.LBB18_25:                              @ %_ZNSt13_Bit_iteratorppEv.exit.outer.us.i
                                        @ =>This Loop Header: Depth=1
                                        @     Child Loop BB18_29 Depth 2
                                        @     Child Loop BB18_34 Depth 2
                                        @     Child Loop BB18_31 Depth 2
	.loc	11 181 31               @ /usr/bin/../lib/gcc/arm-linux-gnueabihf/6.3.0/../../../../include/c++/6.3.0/bits/stl_bvector.h:181:31
	cmp	r5, r0
	beq	.LBB18_31
.Ltmp745:
@ BB#26:                                @ %_ZNSt13_Bit_iteratorppEv.exit.us.us.us.preheader.i
                                        @   in Loop: Header=BB18_25 Depth=1
	.loc	11 87 8                 @ /usr/bin/../lib/gcc/arm-linux-gnueabihf/6.3.0/../../../../include/c++/6.3.0/bits/stl_bvector.h:87:8
	ldr	r7, [r5]
.Ltmp746:
	.loc	11 0 0                  @ /usr/bin/../lib/gcc/arm-linux-gnueabihf/6.3.0/../../../../include/c++/6.3.0/bits/stl_bvector.h:0:0
	rsb	r12, r1, #32
	cmp	r12, #3
	bls	.LBB18_33
@ BB#27:                                @ %min.iters.checked211
                                        @   in Loop: Header=BB18_25 Depth=1
	mov	lr, r12
	bfc	lr, #0, #2
	cmp	lr, #0
	beq	.LBB18_33
@ BB#28:                                @ %vector.ph215
                                        @   in Loop: Header=BB18_25 Depth=1
	vorr	d26, d16, d16
	adr	r4, .LCPI18_0
	vld1.64	{d22, d23}, [r4:128]
	add	r6, r1, lr
	vdup.32	q12, r1
	mov	r1, lr
	vmov.32	d26[0], r7
	vadd.i32	q12, q12, q11
	vorr	q11, q8, q8
	vorr	d22, d26, d26
.Ltmp747:
.LBB18_29:                              @ %vector.body207
                                        @   Parent Loop BB18_25 Depth=1
                                        @ =>  This Inner Loop Header: Depth=2
	.loc	11 231 34               @ /usr/bin/../lib/gcc/arm-linux-gnueabihf/6.3.0/../../../../include/c++/6.3.0/bits/stl_bvector.h:231:34
	vshl.u32	q13, q9, q12
.Ltmp748:
	.loc	11 0 0                  @ /usr/bin/../lib/gcc/arm-linux-gnueabihf/6.3.0/../../../../include/c++/6.3.0/bits/stl_bvector.h:0:0
	subs	r1, r1, #4
	vadd.i32	q12, q12, q10
.Ltmp749:
	.loc	11 87 8                 @ /usr/bin/../lib/gcc/arm-linux-gnueabihf/6.3.0/../../../../include/c++/6.3.0/bits/stl_bvector.h:87:8
	vorr	q11, q13, q11
.Ltmp750:
	.loc	11 0 0                  @ /usr/bin/../lib/gcc/arm-linux-gnueabihf/6.3.0/../../../../include/c++/6.3.0/bits/stl_bvector.h:0:0
	bne	.LBB18_29
.Ltmp751:
@ BB#30:                                @ %middle.block208
                                        @   in Loop: Header=BB18_25 Depth=1
	.loc	11 87 8                 @ /usr/bin/../lib/gcc/arm-linux-gnueabihf/6.3.0/../../../../include/c++/6.3.0/bits/stl_bvector.h:87:8
	vext.32	q12, q11, q8, #2
.Ltmp752:
	.loc	11 0 0                  @ /usr/bin/../lib/gcc/arm-linux-gnueabihf/6.3.0/../../../../include/c++/6.3.0/bits/stl_bvector.h:0:0
	cmp	r12, lr
.Ltmp753:
	.loc	11 87 8                 @ /usr/bin/../lib/gcc/arm-linux-gnueabihf/6.3.0/../../../../include/c++/6.3.0/bits/stl_bvector.h:87:8
	vorr	q11, q11, q12
	vdup.32	q12, d22[1]
	vorr	q11, q11, q12
	vmov.32	r7, d22[0]
	bne	.LBB18_34
	b	.LBB18_35
.Ltmp754:
.LBB18_31:                              @ %_ZNSt13_Bit_iteratorppEv.exit.us13.us.i
                                        @   Parent Loop BB18_25 Depth=1
                                        @ =>  This Inner Loop Header: Depth=2
	.loc	11 181 31               @ /usr/bin/../lib/gcc/arm-linux-gnueabihf/6.3.0/../../../../include/c++/6.3.0/bits/stl_bvector.h:181:31
	cmp	r3, r1
	beq	.LBB18_79
.Ltmp755:
@ BB#32:                                @ %_ZNKSt18_Bit_iterator_baseneERKS_.exit.thread.us15.us.i
                                        @   in Loop: Header=BB18_31 Depth=2
	.loc	11 87 8                 @ /usr/bin/../lib/gcc/arm-linux-gnueabihf/6.3.0/../../../../include/c++/6.3.0/bits/stl_bvector.h:87:8
	ldr	r7, [r0]
	orr	r7, r7, r2, lsl r1
.Ltmp756:
	.loc	11 148 20               @ /usr/bin/../lib/gcc/arm-linux-gnueabihf/6.3.0/../../../../include/c++/6.3.0/bits/stl_bvector.h:148:20
	add	r1, r1, #1
.Ltmp757:
	.loc	11 87 8                 @ /usr/bin/../lib/gcc/arm-linux-gnueabihf/6.3.0/../../../../include/c++/6.3.0/bits/stl_bvector.h:87:8
	str	r7, [r0]
.Ltmp758:
	.loc	11 148 11               @ /usr/bin/../lib/gcc/arm-linux-gnueabihf/6.3.0/../../../../include/c++/6.3.0/bits/stl_bvector.h:148:11
	cmp	r1, #32
	bne	.LBB18_31
	b	.LBB18_24
.Ltmp759:
.LBB18_33:                              @   in Loop: Header=BB18_25 Depth=1
	mov	r6, r1
.LBB18_34:                              @ %_ZNSt13_Bit_iteratorppEv.exit.us.us.us.i
                                        @   Parent Loop BB18_25 Depth=1
                                        @ =>  This Inner Loop Header: Depth=2
.Ltmp760:
	.loc	11 87 8                 @ /usr/bin/../lib/gcc/arm-linux-gnueabihf/6.3.0/../../../../include/c++/6.3.0/bits/stl_bvector.h:87:8
	orr	r7, r7, r2, lsl r6
.Ltmp761:
	.loc	11 148 20               @ /usr/bin/../lib/gcc/arm-linux-gnueabihf/6.3.0/../../../../include/c++/6.3.0/bits/stl_bvector.h:148:20
	add	r6, r6, #1
.Ltmp762:
	.loc	11 148 11 is_stmt 0     @ /usr/bin/../lib/gcc/arm-linux-gnueabihf/6.3.0/../../../../include/c++/6.3.0/bits/stl_bvector.h:148:11
	cmp	r6, #32
	bne	.LBB18_34
.Ltmp763:
.LBB18_35:                              @ %.us-lcssa12.us-lcssa.us.us.loopexit42.i
                                        @   in Loop: Header=BB18_25 Depth=1
	.loc	11 87 8 is_stmt 1       @ /usr/bin/../lib/gcc/arm-linux-gnueabihf/6.3.0/../../../../include/c++/6.3.0/bits/stl_bvector.h:87:8
	str	r7, [r5]
	b	.LBB18_24
.Ltmp764:
.LBB18_36:                              @ %_ZNSt13_Bit_iteratorppEv.exit.outer.i95.preheader
	.loc	11 0 0                  @ /usr/bin/../lib/gcc/arm-linux-gnueabihf/6.3.0/../../../../include/c++/6.3.0/bits/stl_bvector.h:0:0
	mvn	r6, #0
.Ltmp765:
	.loc	11 231 34               @ /usr/bin/../lib/gcc/arm-linux-gnueabihf/6.3.0/../../../../include/c++/6.3.0/bits/stl_bvector.h:231:34
	vmov.i32	q9, #0x1
.Ltmp766:
	.loc	11 0 0                  @ /usr/bin/../lib/gcc/arm-linux-gnueabihf/6.3.0/../../../../include/c++/6.3.0/bits/stl_bvector.h:0:0
	vmov.i32	q10, #0x4
	vdup.32	q8, r6
	b	.LBB18_38
.Ltmp767:
.LBB18_37:                              @ %.us-lcssa12.us.i105
                                        @   in Loop: Header=BB18_38 Depth=1
	.loc	11 151 4                @ /usr/bin/../lib/gcc/arm-linux-gnueabihf/6.3.0/../../../../include/c++/6.3.0/bits/stl_bvector.h:151:4
	add	r10, r10, #1
	mov	r1, #0
.Ltmp768:
.LBB18_38:                              @ %_ZNSt13_Bit_iteratorppEv.exit.outer.i95
                                        @ =>This Loop Header: Depth=1
                                        @     Child Loop BB18_45 Depth 2
                                        @     Child Loop BB18_48 Depth 2
                                        @     Child Loop BB18_39 Depth 2
	.loc	11 181 31               @ /usr/bin/../lib/gcc/arm-linux-gnueabihf/6.3.0/../../../../include/c++/6.3.0/bits/stl_bvector.h:181:31
	cmp	r10, #1
	bne	.LBB18_41
.LBB18_39:                              @ %_ZNSt13_Bit_iteratorppEv.exit.i102
                                        @   Parent Loop BB18_38 Depth=1
                                        @ =>  This Inner Loop Header: Depth=2
	cmp	r1, #0
	beq	.LBB18_50
.Ltmp769:
@ BB#40:                                @ %_ZNKSt18_Bit_iterator_baseneERKS_.exit.thread.i103
                                        @   in Loop: Header=BB18_39 Depth=2
	.loc	11 89 8                 @ /usr/bin/../lib/gcc/arm-linux-gnueabihf/6.3.0/../../../../include/c++/6.3.0/bits/stl_bvector.h:89:8
	ldr	r4, [lr]
	bic	r4, r4, r5, lsl r1
.Ltmp770:
	.loc	11 148 20               @ /usr/bin/../lib/gcc/arm-linux-gnueabihf/6.3.0/../../../../include/c++/6.3.0/bits/stl_bvector.h:148:20
	add	r1, r1, #1
.Ltmp771:
	.loc	11 87 8                 @ /usr/bin/../lib/gcc/arm-linux-gnueabihf/6.3.0/../../../../include/c++/6.3.0/bits/stl_bvector.h:87:8
	str	r4, [lr]
.Ltmp772:
	.loc	11 148 11               @ /usr/bin/../lib/gcc/arm-linux-gnueabihf/6.3.0/../../../../include/c++/6.3.0/bits/stl_bvector.h:148:11
	cmp	r1, #32
	bne	.LBB18_39
	b	.LBB18_37
.Ltmp773:
.LBB18_41:                              @ %_ZNSt13_Bit_iteratorppEv.exit.us.preheader.i97
                                        @   in Loop: Header=BB18_38 Depth=1
	.loc	11 89 8                 @ /usr/bin/../lib/gcc/arm-linux-gnueabihf/6.3.0/../../../../include/c++/6.3.0/bits/stl_bvector.h:89:8
	ldr	r7, [r0, r10, lsl #2]
.Ltmp774:
	.loc	11 0 0                  @ /usr/bin/../lib/gcc/arm-linux-gnueabihf/6.3.0/../../../../include/c++/6.3.0/bits/stl_bvector.h:0:0
	rsb	r8, r1, #32
	cmp	r8, #4
	bhs	.LBB18_43
@ BB#42:                                @   in Loop: Header=BB18_38 Depth=1
	mov	r6, r1
	b	.LBB18_48
.LBB18_43:                              @ %min.iters.checked186
                                        @   in Loop: Header=BB18_38 Depth=1
	mov	r9, r8
	bfc	r9, #0, #2
	cmp	r9, #0
	beq	.LBB18_47
@ BB#44:                                @ %vector.ph190
                                        @   in Loop: Header=BB18_38 Depth=1
	vorr	d26, d16, d16
	adr	r4, .LCPI18_0
	vld1.64	{d22, d23}, [r4:128]
	add	r6, r1, r9
	vdup.32	q12, r1
	mov	r1, r9
	vmov.32	d26[0], r7
	vadd.i32	q12, q12, q11
	vorr	q11, q8, q8
	vorr	d22, d26, d26
.Ltmp775:
.LBB18_45:                              @ %vector.body182
                                        @   Parent Loop BB18_38 Depth=1
                                        @ =>  This Inner Loop Header: Depth=2
	.loc	11 231 34               @ /usr/bin/../lib/gcc/arm-linux-gnueabihf/6.3.0/../../../../include/c++/6.3.0/bits/stl_bvector.h:231:34
	vshl.u32	q13, q9, q12
.Ltmp776:
	.loc	11 0 0                  @ /usr/bin/../lib/gcc/arm-linux-gnueabihf/6.3.0/../../../../include/c++/6.3.0/bits/stl_bvector.h:0:0
	subs	r1, r1, #4
	vadd.i32	q12, q12, q10
.Ltmp777:
	.loc	11 89 8                 @ /usr/bin/../lib/gcc/arm-linux-gnueabihf/6.3.0/../../../../include/c++/6.3.0/bits/stl_bvector.h:89:8
	vbic	q11, q11, q13
.Ltmp778:
	.loc	11 0 0                  @ /usr/bin/../lib/gcc/arm-linux-gnueabihf/6.3.0/../../../../include/c++/6.3.0/bits/stl_bvector.h:0:0
	bne	.LBB18_45
.Ltmp779:
@ BB#46:                                @ %middle.block183
                                        @   in Loop: Header=BB18_38 Depth=1
	.loc	11 89 8                 @ /usr/bin/../lib/gcc/arm-linux-gnueabihf/6.3.0/../../../../include/c++/6.3.0/bits/stl_bvector.h:89:8
	vext.32	q12, q11, q8, #2
.Ltmp780:
	.loc	11 0 0                  @ /usr/bin/../lib/gcc/arm-linux-gnueabihf/6.3.0/../../../../include/c++/6.3.0/bits/stl_bvector.h:0:0
	cmp	r8, r9
.Ltmp781:
	.loc	11 89 8                 @ /usr/bin/../lib/gcc/arm-linux-gnueabihf/6.3.0/../../../../include/c++/6.3.0/bits/stl_bvector.h:89:8
	vand	q11, q11, q12
	vdup.32	q12, d22[1]
	vand	q11, q11, q12
	vmov.32	r7, d22[0]
	bne	.LBB18_48
	b	.LBB18_49
.LBB18_47:                              @   in Loop: Header=BB18_38 Depth=1
	mov	r6, r1
.LBB18_48:                              @ %_ZNSt13_Bit_iteratorppEv.exit.us.i99
                                        @   Parent Loop BB18_38 Depth=1
                                        @ =>  This Inner Loop Header: Depth=2
	bic	r7, r7, r5, lsl r6
.Ltmp782:
	.loc	11 148 20               @ /usr/bin/../lib/gcc/arm-linux-gnueabihf/6.3.0/../../../../include/c++/6.3.0/bits/stl_bvector.h:148:20
	add	r6, r6, #1
.Ltmp783:
	.loc	11 148 11 is_stmt 0     @ /usr/bin/../lib/gcc/arm-linux-gnueabihf/6.3.0/../../../../include/c++/6.3.0/bits/stl_bvector.h:148:11
	cmp	r6, #32
	bne	.LBB18_48
.Ltmp784:
.LBB18_49:                              @ %.us-lcssa12.us.loopexit44.i104
                                        @   in Loop: Header=BB18_38 Depth=1
	.loc	11 87 8 is_stmt 1       @ /usr/bin/../lib/gcc/arm-linux-gnueabihf/6.3.0/../../../../include/c++/6.3.0/bits/stl_bvector.h:87:8
	str	r7, [r0, r10, lsl #2]
	b	.LBB18_37
.Ltmp785:
.LBB18_50:                              @ %_ZSt14__fill_bvectorSt13_Bit_iteratorS_b.exit106
	@DEBUG_VALUE: _Bit_iterator:__y <- 0
	.loc	11 231 34               @ /usr/bin/../lib/gcc/arm-linux-gnueabihf/6.3.0/../../../../include/c++/6.3.0/bits/stl_bvector.h:231:34
	mov	r0, #1
.Ltmp786:
	.loc	11 86 11                @ /usr/bin/../lib/gcc/arm-linux-gnueabihf/6.3.0/../../../../include/c++/6.3.0/bits/stl_bvector.h:86:11
	cmp	r12, #0
	beq	.LBB18_58
@ BB#51:
.Ltmp787:
	.loc	11 87 8                 @ /usr/bin/../lib/gcc/arm-linux-gnueabihf/6.3.0/../../../../include/c++/6.3.0/bits/stl_bvector.h:87:8
	mvn	r1, #0
.Ltmp788:
	.loc	11 404 2 discriminator 2 @ /usr/bin/../lib/gcc/arm-linux-gnueabihf/6.3.0/../../../../include/c++/6.3.0/bits/stl_bvector.h:404:2
	mov	r7, r2
	b	.LBB18_53
.LBB18_52:                              @ %.us-lcssa12.us-lcssa.us.us.i57
                                        @   in Loop: Header=BB18_53 Depth=1
.Ltmp789:
	.loc	11 151 4                @ /usr/bin/../lib/gcc/arm-linux-gnueabihf/6.3.0/../../../../include/c++/6.3.0/bits/stl_bvector.h:151:4
	add	r7, r7, #4
.Ltmp790:
.LBB18_53:                              @ %_ZNSt13_Bit_iteratorppEv.exit.outer.us.i53
                                        @ =>This Loop Header: Depth=1
                                        @     Child Loop BB18_56 Depth 2
	.loc	11 181 31               @ /usr/bin/../lib/gcc/arm-linux-gnueabihf/6.3.0/../../../../include/c++/6.3.0/bits/stl_bvector.h:181:31
	cmp	r7, r2
	beq	.LBB18_55
.Ltmp791:
@ BB#54:                                @ %_ZNSt13_Bit_iteratorppEv.exit.us.us.us.preheader.i55
                                        @   in Loop: Header=BB18_53 Depth=1
	.loc	11 87 8                 @ /usr/bin/../lib/gcc/arm-linux-gnueabihf/6.3.0/../../../../include/c++/6.3.0/bits/stl_bvector.h:87:8
	str	r1, [r7]
	b	.LBB18_52
.Ltmp792:
.LBB18_55:                              @ %_ZNSt13_Bit_iteratorppEv.exit.us13.us.i60.preheader
                                        @   in Loop: Header=BB18_53 Depth=1
	mov	r6, #0
.LBB18_56:                              @ %_ZNSt13_Bit_iteratorppEv.exit.us13.us.i60
                                        @   Parent Loop BB18_53 Depth=1
                                        @ =>  This Inner Loop Header: Depth=2
.Ltmp793:
	.loc	11 181 31               @ /usr/bin/../lib/gcc/arm-linux-gnueabihf/6.3.0/../../../../include/c++/6.3.0/bits/stl_bvector.h:181:31
	cmp	r3, r6
	beq	.LBB18_79
.Ltmp794:
@ BB#57:                                @ %_ZNKSt18_Bit_iterator_baseneERKS_.exit.thread.us15.us.i61
                                        @   in Loop: Header=BB18_56 Depth=2
	.loc	11 87 8                 @ /usr/bin/../lib/gcc/arm-linux-gnueabihf/6.3.0/../../../../include/c++/6.3.0/bits/stl_bvector.h:87:8
	ldr	r5, [r2]
	orr	r5, r5, r0, lsl r6
.Ltmp795:
	.loc	11 148 20               @ /usr/bin/../lib/gcc/arm-linux-gnueabihf/6.3.0/../../../../include/c++/6.3.0/bits/stl_bvector.h:148:20
	add	r6, r6, #1
.Ltmp796:
	.loc	11 87 8                 @ /usr/bin/../lib/gcc/arm-linux-gnueabihf/6.3.0/../../../../include/c++/6.3.0/bits/stl_bvector.h:87:8
	str	r5, [r2]
.Ltmp797:
	.loc	11 148 11               @ /usr/bin/../lib/gcc/arm-linux-gnueabihf/6.3.0/../../../../include/c++/6.3.0/bits/stl_bvector.h:148:11
	cmp	r6, #32
	bne	.LBB18_56
	b	.LBB18_52
.Ltmp798:
.LBB18_58:
	.loc	11 87 8                 @ /usr/bin/../lib/gcc/arm-linux-gnueabihf/6.3.0/../../../../include/c++/6.3.0/bits/stl_bvector.h:87:8
	mov	r1, #0
.Ltmp799:
	.loc	11 404 2 discriminator 2 @ /usr/bin/../lib/gcc/arm-linux-gnueabihf/6.3.0/../../../../include/c++/6.3.0/bits/stl_bvector.h:404:2
	mov	r7, r2
	b	.LBB18_60
.LBB18_59:                              @ %.us-lcssa12.us.i76
                                        @   in Loop: Header=BB18_60 Depth=1
.Ltmp800:
	.loc	11 151 4                @ /usr/bin/../lib/gcc/arm-linux-gnueabihf/6.3.0/../../../../include/c++/6.3.0/bits/stl_bvector.h:151:4
	add	r7, r7, #4
.Ltmp801:
.LBB18_60:                              @ %_ZNSt13_Bit_iteratorppEv.exit.outer.i66
                                        @ =>This Loop Header: Depth=1
                                        @     Child Loop BB18_63 Depth 2
	.loc	11 181 31               @ /usr/bin/../lib/gcc/arm-linux-gnueabihf/6.3.0/../../../../include/c++/6.3.0/bits/stl_bvector.h:181:31
	cmp	r7, r2
	beq	.LBB18_62
.Ltmp802:
@ BB#61:                                @ %_ZNSt13_Bit_iteratorppEv.exit.us.preheader.i68
                                        @   in Loop: Header=BB18_60 Depth=1
	.loc	11 87 8                 @ /usr/bin/../lib/gcc/arm-linux-gnueabihf/6.3.0/../../../../include/c++/6.3.0/bits/stl_bvector.h:87:8
	str	r1, [r7]
	b	.LBB18_59
.Ltmp803:
.LBB18_62:                              @ %_ZNSt13_Bit_iteratorppEv.exit.i73.preheader
                                        @   in Loop: Header=BB18_60 Depth=1
	mov	r6, #0
.LBB18_63:                              @ %_ZNSt13_Bit_iteratorppEv.exit.i73
                                        @   Parent Loop BB18_60 Depth=1
                                        @ =>  This Inner Loop Header: Depth=2
.Ltmp804:
	.loc	11 181 31               @ /usr/bin/../lib/gcc/arm-linux-gnueabihf/6.3.0/../../../../include/c++/6.3.0/bits/stl_bvector.h:181:31
	cmp	r3, r6
	beq	.LBB18_79
.Ltmp805:
@ BB#64:                                @ %_ZNKSt18_Bit_iterator_baseneERKS_.exit.thread.i74
                                        @   in Loop: Header=BB18_63 Depth=2
	.loc	11 89 8                 @ /usr/bin/../lib/gcc/arm-linux-gnueabihf/6.3.0/../../../../include/c++/6.3.0/bits/stl_bvector.h:89:8
	ldr	r5, [r2]
	bic	r5, r5, r0, lsl r6
.Ltmp806:
	.loc	11 148 20               @ /usr/bin/../lib/gcc/arm-linux-gnueabihf/6.3.0/../../../../include/c++/6.3.0/bits/stl_bvector.h:148:20
	add	r6, r6, #1
.Ltmp807:
	.loc	11 87 8                 @ /usr/bin/../lib/gcc/arm-linux-gnueabihf/6.3.0/../../../../include/c++/6.3.0/bits/stl_bvector.h:87:8
	str	r5, [r2]
.Ltmp808:
	.loc	11 148 11               @ /usr/bin/../lib/gcc/arm-linux-gnueabihf/6.3.0/../../../../include/c++/6.3.0/bits/stl_bvector.h:148:11
	cmp	r6, #32
	bne	.LBB18_63
	b	.LBB18_59
.Ltmp809:
.LBB18_65:
	@DEBUG_VALUE: fill:__x <- %R7
	@DEBUG_VALUE: fill:__first [bit_piece offset=0 size=32] <- %R0
	.loc	11 0 0                  @ /usr/bin/../lib/gcc/arm-linux-gnueabihf/6.3.0/../../../../include/c++/6.3.0/bits/stl_bvector.h:0:0
	mvn	r7, #0
.Ltmp810:
	.loc	11 231 34               @ /usr/bin/../lib/gcc/arm-linux-gnueabihf/6.3.0/../../../../include/c++/6.3.0/bits/stl_bvector.h:231:34
	vmov.i32	q9, #0x1
.Ltmp811:
	.loc	11 0 0                  @ /usr/bin/../lib/gcc/arm-linux-gnueabihf/6.3.0/../../../../include/c++/6.3.0/bits/stl_bvector.h:0:0
	vmov.i32	q10, #0x4
	vdup.32	q8, r7
.Ltmp812:
	.loc	11 231 34               @ /usr/bin/../lib/gcc/arm-linux-gnueabihf/6.3.0/../../../../include/c++/6.3.0/bits/stl_bvector.h:231:34
	mov	r2, #1
.Ltmp813:
	.loc	11 407 7 discriminator 2 @ /usr/bin/../lib/gcc/arm-linux-gnueabihf/6.3.0/../../../../include/c++/6.3.0/bits/stl_bvector.h:407:7
	mov	r5, r0
	b	.LBB18_67
.Ltmp814:
.LBB18_66:                              @ %.us-lcssa12.us.i
                                        @   in Loop: Header=BB18_67 Depth=1
	.loc	11 151 4                @ /usr/bin/../lib/gcc/arm-linux-gnueabihf/6.3.0/../../../../include/c++/6.3.0/bits/stl_bvector.h:151:4
	add	r5, r5, #4
	mov	r1, #0
.Ltmp815:
.LBB18_67:                              @ %_ZNSt13_Bit_iteratorppEv.exit.outer.i
                                        @ =>This Loop Header: Depth=1
                                        @     Child Loop BB18_74 Depth 2
                                        @     Child Loop BB18_77 Depth 2
                                        @     Child Loop BB18_70 Depth 2
	.loc	11 181 31               @ /usr/bin/../lib/gcc/arm-linux-gnueabihf/6.3.0/../../../../include/c++/6.3.0/bits/stl_bvector.h:181:31
	cmp	r5, r0
	beq	.LBB18_70
.Ltmp816:
@ BB#68:                                @ %_ZNSt13_Bit_iteratorppEv.exit.us.preheader.i
                                        @   in Loop: Header=BB18_67 Depth=1
	.loc	11 89 8                 @ /usr/bin/../lib/gcc/arm-linux-gnueabihf/6.3.0/../../../../include/c++/6.3.0/bits/stl_bvector.h:89:8
	ldr	r7, [r5]
.Ltmp817:
	.loc	11 0 0                  @ /usr/bin/../lib/gcc/arm-linux-gnueabihf/6.3.0/../../../../include/c++/6.3.0/bits/stl_bvector.h:0:0
	rsb	r12, r1, #32
	cmp	r12, #4
	bhs	.LBB18_72
@ BB#69:                                @   in Loop: Header=BB18_67 Depth=1
	mov	r6, r1
	b	.LBB18_77
.LBB18_70:                              @ %_ZNSt13_Bit_iteratorppEv.exit.i
                                        @   Parent Loop BB18_67 Depth=1
                                        @ =>  This Inner Loop Header: Depth=2
.Ltmp818:
	.loc	11 181 31               @ /usr/bin/../lib/gcc/arm-linux-gnueabihf/6.3.0/../../../../include/c++/6.3.0/bits/stl_bvector.h:181:31
	cmp	r3, r1
	beq	.LBB18_79
.Ltmp819:
@ BB#71:                                @ %_ZNKSt18_Bit_iterator_baseneERKS_.exit.thread.i
                                        @   in Loop: Header=BB18_70 Depth=2
	.loc	11 89 8                 @ /usr/bin/../lib/gcc/arm-linux-gnueabihf/6.3.0/../../../../include/c++/6.3.0/bits/stl_bvector.h:89:8
	ldr	r7, [r0]
	bic	r7, r7, r2, lsl r1
.Ltmp820:
	.loc	11 148 20               @ /usr/bin/../lib/gcc/arm-linux-gnueabihf/6.3.0/../../../../include/c++/6.3.0/bits/stl_bvector.h:148:20
	add	r1, r1, #1
.Ltmp821:
	.loc	11 87 8                 @ /usr/bin/../lib/gcc/arm-linux-gnueabihf/6.3.0/../../../../include/c++/6.3.0/bits/stl_bvector.h:87:8
	str	r7, [r0]
.Ltmp822:
	.loc	11 148 11               @ /usr/bin/../lib/gcc/arm-linux-gnueabihf/6.3.0/../../../../include/c++/6.3.0/bits/stl_bvector.h:148:11
	cmp	r1, #32
	bne	.LBB18_70
	b	.LBB18_66
.Ltmp823:
.LBB18_72:                              @ %min.iters.checked236
                                        @   in Loop: Header=BB18_67 Depth=1
	.loc	11 0 0                  @ /usr/bin/../lib/gcc/arm-linux-gnueabihf/6.3.0/../../../../include/c++/6.3.0/bits/stl_bvector.h:0:0
	mov	lr, r12
	bfc	lr, #0, #2
	cmp	lr, #0
	beq	.LBB18_76
@ BB#73:                                @ %vector.ph240
                                        @   in Loop: Header=BB18_67 Depth=1
	vorr	d26, d16, d16
	adr	r4, .LCPI18_0
	vld1.64	{d22, d23}, [r4:128]
	add	r6, r1, lr
	vdup.32	q12, r1
	mov	r1, lr
	vmov.32	d26[0], r7
	vadd.i32	q12, q12, q11
	vorr	q11, q8, q8
	vorr	d22, d26, d26
.Ltmp824:
.LBB18_74:                              @ %vector.body232
                                        @   Parent Loop BB18_67 Depth=1
                                        @ =>  This Inner Loop Header: Depth=2
	.loc	11 231 34               @ /usr/bin/../lib/gcc/arm-linux-gnueabihf/6.3.0/../../../../include/c++/6.3.0/bits/stl_bvector.h:231:34
	vshl.u32	q13, q9, q12
.Ltmp825:
	.loc	11 0 0                  @ /usr/bin/../lib/gcc/arm-linux-gnueabihf/6.3.0/../../../../include/c++/6.3.0/bits/stl_bvector.h:0:0
	subs	r1, r1, #4
	vadd.i32	q12, q12, q10
.Ltmp826:
	.loc	11 89 8                 @ /usr/bin/../lib/gcc/arm-linux-gnueabihf/6.3.0/../../../../include/c++/6.3.0/bits/stl_bvector.h:89:8
	vbic	q11, q11, q13
.Ltmp827:
	.loc	11 0 0                  @ /usr/bin/../lib/gcc/arm-linux-gnueabihf/6.3.0/../../../../include/c++/6.3.0/bits/stl_bvector.h:0:0
	bne	.LBB18_74
.Ltmp828:
@ BB#75:                                @ %middle.block233
                                        @   in Loop: Header=BB18_67 Depth=1
	.loc	11 89 8                 @ /usr/bin/../lib/gcc/arm-linux-gnueabihf/6.3.0/../../../../include/c++/6.3.0/bits/stl_bvector.h:89:8
	vext.32	q12, q11, q8, #2
.Ltmp829:
	.loc	11 0 0                  @ /usr/bin/../lib/gcc/arm-linux-gnueabihf/6.3.0/../../../../include/c++/6.3.0/bits/stl_bvector.h:0:0
	cmp	r12, lr
.Ltmp830:
	.loc	11 89 8                 @ /usr/bin/../lib/gcc/arm-linux-gnueabihf/6.3.0/../../../../include/c++/6.3.0/bits/stl_bvector.h:89:8
	vand	q11, q11, q12
	vdup.32	q12, d22[1]
	vand	q11, q11, q12
	vmov.32	r7, d22[0]
	bne	.LBB18_77
	b	.LBB18_78
.LBB18_76:                              @   in Loop: Header=BB18_67 Depth=1
	mov	r6, r1
.LBB18_77:                              @ %_ZNSt13_Bit_iteratorppEv.exit.us.i
                                        @   Parent Loop BB18_67 Depth=1
                                        @ =>  This Inner Loop Header: Depth=2
	bic	r7, r7, r2, lsl r6
.Ltmp831:
	.loc	11 148 20               @ /usr/bin/../lib/gcc/arm-linux-gnueabihf/6.3.0/../../../../include/c++/6.3.0/bits/stl_bvector.h:148:20
	add	r6, r6, #1
.Ltmp832:
	.loc	11 148 11 is_stmt 0     @ /usr/bin/../lib/gcc/arm-linux-gnueabihf/6.3.0/../../../../include/c++/6.3.0/bits/stl_bvector.h:148:11
	cmp	r6, #32
	bne	.LBB18_77
.Ltmp833:
.LBB18_78:                              @ %.us-lcssa12.us.loopexit44.i
                                        @   in Loop: Header=BB18_67 Depth=1
	.loc	11 87 8 is_stmt 1       @ /usr/bin/../lib/gcc/arm-linux-gnueabihf/6.3.0/../../../../include/c++/6.3.0/bits/stl_bvector.h:87:8
	str	r7, [r5]
	b	.LBB18_66
.Ltmp834:
.LBB18_79:                              @ %_ZSt14__fill_bvectorSt13_Bit_iteratorS_b.exit77
	.loc	11 408 3                @ /usr/bin/../lib/gcc/arm-linux-gnueabihf/6.3.0/../../../../include/c++/6.3.0/bits/stl_bvector.h:408:3
	pop	{r4, r5, r6, r7, r8, r9, r10, pc}
.Ltmp835:
	.p2align	4
@ BB#80:
.LCPI18_0:
	.long	0                       @ 0x0
	.long	1                       @ 0x1
	.long	2                       @ 0x2
	.long	3                       @ 0x3
.Lfunc_end18:
	.size	_ZSt4fillSt13_Bit_iteratorS_RKb, .Lfunc_end18-_ZSt4fillSt13_Bit_iteratorS_RKb
	.cfi_endproc
	.fnend

	.section	.text._ZNSt6vectorIfSaIfEE17_M_default_appendEj,"axG",%progbits,_ZNSt6vectorIfSaIfEE17_M_default_appendEj,comdat
	.weak	_ZNSt6vectorIfSaIfEE17_M_default_appendEj
	.p2align	2
	.type	_ZNSt6vectorIfSaIfEE17_M_default_appendEj,%function
_ZNSt6vectorIfSaIfEE17_M_default_appendEj: @ @_ZNSt6vectorIfSaIfEE17_M_default_appendEj
.Lfunc_begin19:
	.loc	54 542 0                @ /usr/bin/../lib/gcc/arm-linux-gnueabihf/6.3.0/../../../../include/c++/6.3.0/bits/vector.tcc:542:0
	.fnstart
	.cfi_startproc
@ BB#0:
	.save	{r4, r5, r6, r7, r8, r10, r11, lr}
	push	{r4, r5, r6, r7, r8, r10, r11, lr}
.Ltmp836:
	.cfi_def_cfa_offset 32
.Ltmp837:
	.cfi_offset lr, -4
.Ltmp838:
	.cfi_offset r11, -8
.Ltmp839:
	.cfi_offset r10, -12
.Ltmp840:
	.cfi_offset r8, -16
.Ltmp841:
	.cfi_offset r7, -20
.Ltmp842:
	.cfi_offset r6, -24
.Ltmp843:
	.cfi_offset r5, -28
.Ltmp844:
	.cfi_offset r4, -32
	.setfp	r11, sp, #24
	add	r11, sp, #24
.Ltmp845:
	.cfi_def_cfa r11, 8
	@DEBUG_VALUE: _M_default_append:this <- %R0
	@DEBUG_VALUE: _M_default_append:__n <- %R1
	mov	r5, r1
.Ltmp846:
	@DEBUG_VALUE: _M_default_append:__n <- %R5
	mov	r4, r0
.Ltmp847:
	@DEBUG_VALUE: _M_default_append:this <- %R4
	.loc	54 543 11 prologue_end  @ /usr/bin/../lib/gcc/arm-linux-gnueabihf/6.3.0/../../../../include/c++/6.3.0/bits/vector.tcc:543:11
	cmp	r5, #0
	beq	.LBB19_11
.Ltmp848:
@ BB#1:
	@DEBUG_VALUE: _M_default_append:this <- %R4
	@DEBUG_VALUE: _M_default_append:__n <- %R5
	@DEBUG_VALUE: __fill_n_a<float *, unsigned int, float>:__first <- %R7
	@DEBUG_VALUE: fill_n<float *, unsigned int, float>:__first <- %R7
	@DEBUG_VALUE: __uninit_default_n<float *, unsigned int>:__first <- %R7
	@DEBUG_VALUE: __uninitialized_default_n<float *, unsigned int>:__first <- %R7
	@DEBUG_VALUE: __uninitialized_default_n_a<float *, unsigned int, float>:__first <- %R7
	.loc	54 546 20               @ /usr/bin/../lib/gcc/arm-linux-gnueabihf/6.3.0/../../../../include/c++/6.3.0/bits/vector.tcc:546:20
	ldr	r7, [r4, #4]
.Ltmp849:
	.loc	54 545 32               @ /usr/bin/../lib/gcc/arm-linux-gnueabihf/6.3.0/../../../../include/c++/6.3.0/bits/vector.tcc:545:32
	ldr	r0, [r4, #8]
	.loc	54 546 4                @ /usr/bin/../lib/gcc/arm-linux-gnueabihf/6.3.0/../../../../include/c++/6.3.0/bits/vector.tcc:546:4
	sub	r0, r0, r7
	asr	r0, r0, #2
.Ltmp850:
	.loc	54 545 8                @ /usr/bin/../lib/gcc/arm-linux-gnueabihf/6.3.0/../../../../include/c++/6.3.0/bits/vector.tcc:545:8
	cmp	r0, r5
	bhs	.LBB19_12
.Ltmp851:
@ BB#2:
	@DEBUG_VALUE: _M_default_append:this <- %R4
	@DEBUG_VALUE: _M_default_append:__n <- %R5
	@DEBUG_VALUE: size:this <- %R4
	.loc	19 656 66               @ /usr/bin/../lib/gcc/arm-linux-gnueabihf/6.3.0/../../../../include/c++/6.3.0/bits/stl_vector.h:656:66
	ldr	r1, [r4]
.Ltmp852:
	.loc	19 1422 17              @ /usr/bin/../lib/gcc/arm-linux-gnueabihf/6.3.0/../../../../include/c++/6.3.0/bits/stl_vector.h:1422:17
	mvn	r8, #-1073741824
.Ltmp853:
	.loc	19 656 50               @ /usr/bin/../lib/gcc/arm-linux-gnueabihf/6.3.0/../../../../include/c++/6.3.0/bits/stl_vector.h:656:50
	sub	r0, r7, r1
.Ltmp854:
	.loc	19 1422 17              @ /usr/bin/../lib/gcc/arm-linux-gnueabihf/6.3.0/../../../../include/c++/6.3.0/bits/stl_vector.h:1422:17
	sub	r2, r8, r0, asr #2
.Ltmp855:
	@DEBUG_VALUE: _M_check_len:__n <- %R5
	.loc	19 1422 6 is_stmt 0     @ /usr/bin/../lib/gcc/arm-linux-gnueabihf/6.3.0/../../../../include/c++/6.3.0/bits/stl_vector.h:1422:6
	cmp	r2, r5
	blo	.LBB19_13
.Ltmp856:
@ BB#3:                                 @ %_ZNKSt6vectorIfSaIfEE12_M_check_lenEjPKc.exit
	@DEBUG_VALUE: _M_check_len:__n <- %R5
	@DEBUG_VALUE: size:this <- %R4
	@DEBUG_VALUE: _M_default_append:this <- %R4
	@DEBUG_VALUE: _M_default_append:__n <- %R5
	.loc	19 656 50 is_stmt 1     @ /usr/bin/../lib/gcc/arm-linux-gnueabihf/6.3.0/../../../../include/c++/6.3.0/bits/stl_vector.h:656:50
	asr	r0, r0, #2
.Ltmp857:
	.loc	19 1425 35              @ /usr/bin/../lib/gcc/arm-linux-gnueabihf/6.3.0/../../../../include/c++/6.3.0/bits/stl_vector.h:1425:35
	cmp	r0, r5
	mov	r2, r0
	mov	r6, #0
	movlo	r2, r5
	add	r0, r2, r0
	.loc	19 1426 25              @ /usr/bin/../lib/gcc/arm-linux-gnueabihf/6.3.0/../../../../include/c++/6.3.0/bits/stl_vector.h:1426:25
	cmp	r6, r0, lsr #30
	mov	r3, r0
	mvnne	r3, #-1073741824
	cmp	r0, r2
	movhs	r8, r3
.Ltmp858:
	@DEBUG_VALUE: _M_allocate:__n <- %R8
	@DEBUG_VALUE: __len <- %R8
	@DEBUG_VALUE: allocate:__n <- %R8
	@DEBUG_VALUE: allocate:__n <- %R8
	.loc	19 170 9                @ /usr/bin/../lib/gcc/arm-linux-gnueabihf/6.3.0/../../../../include/c++/6.3.0/bits/stl_vector.h:170:9
	cmp	r8, #0
.Ltmp859:
	@DEBUG_VALUE: _M_check_len:__len <- %R0
	beq	.LBB19_6
.Ltmp860:
@ BB#4:
	@DEBUG_VALUE: _M_check_len:__len <- %R0
	@DEBUG_VALUE: allocate:__n <- %R8
	@DEBUG_VALUE: allocate:__n <- %R8
	@DEBUG_VALUE: __len <- %R8
	@DEBUG_VALUE: _M_allocate:__n <- %R8
	@DEBUG_VALUE: _M_check_len:__n <- %R5
	@DEBUG_VALUE: size:this <- %R4
	@DEBUG_VALUE: _M_default_append:this <- %R4
	@DEBUG_VALUE: _M_default_append:__n <- %R5
	.loc	7 101 6                 @ /usr/bin/../lib/gcc/arm-linux-gnueabihf/6.3.0/../../../../include/c++/6.3.0/ext/new_allocator.h:101:6
	cmp	r8, #1073741824
	bhs	.LBB19_14
.Ltmp861:
@ BB#5:                                 @ %_ZNSt16allocator_traitsISaIfEE8allocateERS0_j.exit.i
	@DEBUG_VALUE: _M_check_len:__len <- %R0
	@DEBUG_VALUE: allocate:__n <- %R8
	@DEBUG_VALUE: allocate:__n <- %R8
	@DEBUG_VALUE: __len <- %R8
	@DEBUG_VALUE: _M_allocate:__n <- %R8
	@DEBUG_VALUE: _M_check_len:__n <- %R5
	@DEBUG_VALUE: size:this <- %R4
	@DEBUG_VALUE: _M_default_append:this <- %R4
	@DEBUG_VALUE: _M_default_append:__n <- %R5
	.loc	7 104 46                @ /usr/bin/../lib/gcc/arm-linux-gnueabihf/6.3.0/../../../../include/c++/6.3.0/ext/new_allocator.h:104:46
	lsl	r0, r8, #2
.Ltmp862:
	.loc	7 104 27 is_stmt 0      @ /usr/bin/../lib/gcc/arm-linux-gnueabihf/6.3.0/../../../../include/c++/6.3.0/ext/new_allocator.h:104:27
	bl	_Znwj
.Ltmp863:
	.loc	54 563 22 is_stmt 1     @ /usr/bin/../lib/gcc/arm-linux-gnueabihf/6.3.0/../../../../include/c++/6.3.0/bits/vector.tcc:563:22
	ldm	r4, {r1, r7}
.Ltmp864:
	@DEBUG_VALUE: size:this <- %R4
	.loc	7 104 27                @ /usr/bin/../lib/gcc/arm-linux-gnueabihf/6.3.0/../../../../include/c++/6.3.0/ext/new_allocator.h:104:27
	mov	r6, r0
.Ltmp865:
.LBB19_6:                               @ %_ZNSt12_Vector_baseIfSaIfEE11_M_allocateEj.exit
	@DEBUG_VALUE: allocate:__n <- %R8
	@DEBUG_VALUE: allocate:__n <- %R8
	@DEBUG_VALUE: __len <- %R8
	@DEBUG_VALUE: _M_allocate:__n <- %R8
	@DEBUG_VALUE: _M_check_len:__n <- %R5
	@DEBUG_VALUE: size:this <- %R4
	@DEBUG_VALUE: _M_default_append:this <- %R4
	@DEBUG_VALUE: _M_default_append:__n <- %R5
	@DEBUG_VALUE: __uninitialized_move_if_noexcept_a<float *, float *, std::allocator<float> >:__first <- %R1
	@DEBUG_VALUE: uninitialized_copy<std::move_iterator<float *>, float *>:__assignable <- 1
	@DEBUG_VALUE: __copy_move_a<true, float *, float *>:__simple <- 1
	.loc	55 366 34               @ /usr/bin/../lib/gcc/arm-linux-gnueabihf/6.3.0/../../../../include/c++/6.3.0/bits/stl_algobase.h:366:34
	sub	r2, r7, r1
	mov	r0, #0
	asr	r7, r2, #2
.Ltmp866:
	@DEBUG_VALUE: __copy_m<float>:_Num <- %R7
	.loc	55 367 8                @ /usr/bin/../lib/gcc/arm-linux-gnueabihf/6.3.0/../../../../include/c++/6.3.0/bits/stl_algobase.h:367:8
	cmp	r0, r2, asr #2
	beq	.LBB19_8
.Ltmp867:
@ BB#7:
	@DEBUG_VALUE: __copy_m<float>:_Num <- %R7
	@DEBUG_VALUE: __uninitialized_move_if_noexcept_a<float *, float *, std::allocator<float> >:__first <- %R1
	@DEBUG_VALUE: allocate:__n <- %R8
	@DEBUG_VALUE: allocate:__n <- %R8
	@DEBUG_VALUE: __len <- %R8
	@DEBUG_VALUE: _M_allocate:__n <- %R8
	@DEBUG_VALUE: _M_check_len:__n <- %R5
	@DEBUG_VALUE: size:this <- %R4
	@DEBUG_VALUE: _M_default_append:this <- %R4
	@DEBUG_VALUE: _M_default_append:__n <- %R5
	.loc	55 368 6                @ /usr/bin/../lib/gcc/arm-linux-gnueabihf/6.3.0/../../../../include/c++/6.3.0/bits/stl_algobase.h:368:6
	mov	r0, r6
	bl	memmove
.Ltmp868:
	@DEBUG_VALUE: __uninitialized_move_if_noexcept_a<float *, float *, std::allocator<float> >:__result <- %R6
.LBB19_8:
	@DEBUG_VALUE: __copy_m<float>:_Num <- %R7
	@DEBUG_VALUE: allocate:__n <- %R8
	@DEBUG_VALUE: allocate:__n <- %R8
	@DEBUG_VALUE: __len <- %R8
	@DEBUG_VALUE: _M_allocate:__n <- %R8
	@DEBUG_VALUE: _M_check_len:__n <- %R5
	@DEBUG_VALUE: size:this <- %R4
	@DEBUG_VALUE: _M_default_append:this <- %R4
	@DEBUG_VALUE: _M_default_append:__n <- %R5
	.loc	55 369 20               @ /usr/bin/../lib/gcc/arm-linux-gnueabihf/6.3.0/../../../../include/c++/6.3.0/bits/stl_algobase.h:369:20
	add	r7, r6, r7, lsl #2
.Ltmp869:
	@DEBUG_VALUE: __niter <- %R5
	@DEBUG_VALUE: __fill_n_a<float *, unsigned int, float>:__first <- %R7
	@DEBUG_VALUE: fill_n<float *, unsigned int, float>:__first <- %R7
	@DEBUG_VALUE: __uninit_default_n<float *, unsigned int>:__first <- %R7
	@DEBUG_VALUE: __uninitialized_default_n<float *, unsigned int>:__assignable <- 1
	@DEBUG_VALUE: __uninitialized_default_n<float *, unsigned int>:__first <- %R7
	@DEBUG_VALUE: __uninitialized_default_n_a<float *, unsigned int, float>:__first <- %R7
	@DEBUG_VALUE: __new_finish <- %R7
	.loc	55 754 11               @ /usr/bin/../lib/gcc/arm-linux-gnueabihf/6.3.0/../../../../include/c++/6.3.0/bits/stl_algobase.h:754:11
	lsl	r2, r5, #2
	mov	r1, #0
	mov	r0, r7
	bl	memset
.Ltmp870:
	.loc	54 578 36               @ /usr/bin/../lib/gcc/arm-linux-gnueabihf/6.3.0/../../../../include/c++/6.3.0/bits/vector.tcc:578:36
	ldr	r0, [r4]
.Ltmp871:
	@DEBUG_VALUE: _M_deallocate:__p <- %R0
	@DEBUG_VALUE: deallocate:__p <- %R0
	@DEBUG_VALUE: deallocate:__p <- %R0
	.loc	55 754 11               @ /usr/bin/../lib/gcc/arm-linux-gnueabihf/6.3.0/../../../../include/c++/6.3.0/bits/stl_algobase.h:754:11
	add	r5, r7, r5, lsl #2
.Ltmp872:
	@DEBUG_VALUE: __new_finish <- %R5
	.loc	19 177 6                @ /usr/bin/../lib/gcc/arm-linux-gnueabihf/6.3.0/../../../../include/c++/6.3.0/bits/stl_vector.h:177:6
	cmp	r0, #0
	beq	.LBB19_10
.Ltmp873:
@ BB#9:
	@DEBUG_VALUE: __new_finish <- %R5
	@DEBUG_VALUE: deallocate:__p <- %R0
	@DEBUG_VALUE: deallocate:__p <- %R0
	@DEBUG_VALUE: _M_deallocate:__p <- %R0
	@DEBUG_VALUE: __uninitialized_default_n_a<float *, unsigned int, float>:__first <- %R7
	@DEBUG_VALUE: __uninitialized_default_n<float *, unsigned int>:__first <- %R7
	@DEBUG_VALUE: __uninit_default_n<float *, unsigned int>:__first <- %R7
	@DEBUG_VALUE: fill_n<float *, unsigned int, float>:__first <- %R7
	@DEBUG_VALUE: __fill_n_a<float *, unsigned int, float>:__first <- %R7
	@DEBUG_VALUE: allocate:__n <- %R8
	@DEBUG_VALUE: allocate:__n <- %R8
	@DEBUG_VALUE: __len <- %R8
	@DEBUG_VALUE: _M_allocate:__n <- %R8
	@DEBUG_VALUE: size:this <- %R4
	@DEBUG_VALUE: _M_default_append:this <- %R4
	.loc	7 110 9                 @ /usr/bin/../lib/gcc/arm-linux-gnueabihf/6.3.0/../../../../include/c++/6.3.0/ext/new_allocator.h:110:9
	bl	_ZdlPv
.Ltmp874:
.LBB19_10:                              @ %_ZNSt12_Vector_baseIfSaIfEE13_M_deallocateEPfj.exit31
	@DEBUG_VALUE: __new_finish <- %R5
	@DEBUG_VALUE: __uninitialized_default_n_a<float *, unsigned int, float>:__first <- %R7
	@DEBUG_VALUE: __uninitialized_default_n<float *, unsigned int>:__first <- %R7
	@DEBUG_VALUE: __uninit_default_n<float *, unsigned int>:__first <- %R7
	@DEBUG_VALUE: fill_n<float *, unsigned int, float>:__first <- %R7
	@DEBUG_VALUE: __fill_n_a<float *, unsigned int, float>:__first <- %R7
	@DEBUG_VALUE: allocate:__n <- %R8
	@DEBUG_VALUE: allocate:__n <- %R8
	@DEBUG_VALUE: __len <- %R8
	@DEBUG_VALUE: _M_allocate:__n <- %R8
	@DEBUG_VALUE: size:this <- %R4
	@DEBUG_VALUE: _M_default_append:this <- %R4
	.loc	54 581 31               @ /usr/bin/../lib/gcc/arm-linux-gnueabihf/6.3.0/../../../../include/c++/6.3.0/bits/vector.tcc:581:31
	str	r6, [r4]
	.loc	54 583 54               @ /usr/bin/../lib/gcc/arm-linux-gnueabihf/6.3.0/../../../../include/c++/6.3.0/bits/vector.tcc:583:54
	add	r0, r6, r8, lsl #2
	.loc	54 582 32               @ /usr/bin/../lib/gcc/arm-linux-gnueabihf/6.3.0/../../../../include/c++/6.3.0/bits/vector.tcc:582:32
	str	r5, [r4, #4]
	.loc	54 583 40               @ /usr/bin/../lib/gcc/arm-linux-gnueabihf/6.3.0/../../../../include/c++/6.3.0/bits/vector.tcc:583:40
	str	r0, [r4, #8]
.Ltmp875:
.LBB19_11:
	@DEBUG_VALUE: _M_default_append:this <- %R4
	.loc	54 586 5 discriminator 2 @ /usr/bin/../lib/gcc/arm-linux-gnueabihf/6.3.0/../../../../include/c++/6.3.0/bits/vector.tcc:586:5
	pop	{r4, r5, r6, r7, r8, r10, r11, pc}
.Ltmp876:
.LBB19_12:                              @ %_ZSt27__uninitialized_default_n_aIPfjfET_S1_T0_RSaIT1_E.exit
	@DEBUG_VALUE: _M_default_append:this <- %R4
	@DEBUG_VALUE: _M_default_append:__n <- %R5
	@DEBUG_VALUE: __uninitialized_default_n<float *, unsigned int>:__assignable <- 1
	@DEBUG_VALUE: __niter <- %R5
	.loc	55 754 11               @ /usr/bin/../lib/gcc/arm-linux-gnueabihf/6.3.0/../../../../include/c++/6.3.0/bits/stl_algobase.h:754:11
	lsl	r2, r5, #2
	mov	r0, r7
	mov	r1, #0
	bl	memset
	add	r0, r7, r5, lsl #2
.Ltmp877:
	.loc	54 548 32               @ /usr/bin/../lib/gcc/arm-linux-gnueabihf/6.3.0/../../../../include/c++/6.3.0/bits/vector.tcc:548:32
	str	r0, [r4, #4]
.Ltmp878:
	.loc	54 586 5 discriminator 2 @ /usr/bin/../lib/gcc/arm-linux-gnueabihf/6.3.0/../../../../include/c++/6.3.0/bits/vector.tcc:586:5
	pop	{r4, r5, r6, r7, r8, r10, r11, pc}
.Ltmp879:
.LBB19_13:
	@DEBUG_VALUE: _M_check_len:__n <- %R5
	@DEBUG_VALUE: size:this <- %R4
	@DEBUG_VALUE: _M_default_append:this <- %R4
	@DEBUG_VALUE: _M_default_append:__n <- %R5
	.loc	19 1423 4               @ /usr/bin/../lib/gcc/arm-linux-gnueabihf/6.3.0/../../../../include/c++/6.3.0/bits/stl_vector.h:1423:4
	movw	r0, :lower16:.L.str.14
	movt	r0, :upper16:.L.str.14
.Ltmp880:
	@DEBUG_VALUE: _M_check_len:__s <- %R0
	mov	lr, pc
	b	_ZSt20__throw_length_errorPKc
.Ltmp881:
.LBB19_14:
	@DEBUG_VALUE: _M_check_len:__len <- %R0
	@DEBUG_VALUE: allocate:__n <- %R8
	@DEBUG_VALUE: allocate:__n <- %R8
	@DEBUG_VALUE: __len <- %R8
	@DEBUG_VALUE: _M_allocate:__n <- %R8
	@DEBUG_VALUE: _M_check_len:__n <- %R5
	@DEBUG_VALUE: size:this <- %R4
	@DEBUG_VALUE: _M_default_append:this <- %R4
	@DEBUG_VALUE: _M_default_append:__n <- %R5
	.loc	7 102 4                 @ /usr/bin/../lib/gcc/arm-linux-gnueabihf/6.3.0/../../../../include/c++/6.3.0/ext/new_allocator.h:102:4
	mov	lr, pc
	b	_ZSt17__throw_bad_allocv
.Ltmp882:
.Lfunc_end19:
	.size	_ZNSt6vectorIfSaIfEE17_M_default_appendEj, .Lfunc_end19-_ZNSt6vectorIfSaIfEE17_M_default_appendEj
	.cfi_endproc
	.fnend

	.section	.text._ZNSt6vectorI14DigitalChannelSaIS0_EE17_M_default_appendEj,"axG",%progbits,_ZNSt6vectorI14DigitalChannelSaIS0_EE17_M_default_appendEj,comdat
	.weak	_ZNSt6vectorI14DigitalChannelSaIS0_EE17_M_default_appendEj
	.p2align	2
	.type	_ZNSt6vectorI14DigitalChannelSaIS0_EE17_M_default_appendEj,%function
_ZNSt6vectorI14DigitalChannelSaIS0_EE17_M_default_appendEj: @ @_ZNSt6vectorI14DigitalChannelSaIS0_EE17_M_default_appendEj
.Lfunc_begin20:
	.loc	54 542 0                @ /usr/bin/../lib/gcc/arm-linux-gnueabihf/6.3.0/../../../../include/c++/6.3.0/bits/vector.tcc:542:0
	.fnstart
	.cfi_startproc
@ BB#0:
	.save	{r4, r5, r6, r7, r8, r10, r11, lr}
	push	{r4, r5, r6, r7, r8, r10, r11, lr}
.Ltmp883:
	.cfi_def_cfa_offset 32
.Ltmp884:
	.cfi_offset lr, -4
.Ltmp885:
	.cfi_offset r11, -8
.Ltmp886:
	.cfi_offset r10, -12
.Ltmp887:
	.cfi_offset r8, -16
.Ltmp888:
	.cfi_offset r7, -20
.Ltmp889:
	.cfi_offset r6, -24
.Ltmp890:
	.cfi_offset r5, -28
.Ltmp891:
	.cfi_offset r4, -32
	.setfp	r11, sp, #24
	add	r11, sp, #24
.Ltmp892:
	.cfi_def_cfa r11, 8
	@DEBUG_VALUE: _M_default_append:this <- %R0
	@DEBUG_VALUE: _M_default_append:__n <- %R1
	mov	r5, r1
.Ltmp893:
	@DEBUG_VALUE: _M_default_append:__n <- %R5
	mov	r4, r0
.Ltmp894:
	@DEBUG_VALUE: _M_default_append:this <- %R4
	.loc	54 543 11 prologue_end  @ /usr/bin/../lib/gcc/arm-linux-gnueabihf/6.3.0/../../../../include/c++/6.3.0/bits/vector.tcc:543:11
	cmp	r5, #0
	beq	.LBB20_11
.Ltmp895:
@ BB#1:
	@DEBUG_VALUE: _M_default_append:this <- %R4
	@DEBUG_VALUE: _M_default_append:__n <- %R5
	@DEBUG_VALUE: __fill_n_a<DigitalChannel *, unsigned int, DigitalChannel>:__first <- %R7
	@DEBUG_VALUE: fill_n<DigitalChannel *, unsigned int, DigitalChannel>:__first <- %R7
	@DEBUG_VALUE: __uninit_default_n<DigitalChannel *, unsigned int>:__first <- %R7
	@DEBUG_VALUE: __uninitialized_default_n<DigitalChannel *, unsigned int>:__first <- %R7
	@DEBUG_VALUE: __uninitialized_default_n_a<DigitalChannel *, unsigned int, DigitalChannel>:__first <- %R7
	.loc	54 546 20               @ /usr/bin/../lib/gcc/arm-linux-gnueabihf/6.3.0/../../../../include/c++/6.3.0/bits/vector.tcc:546:20
	ldr	r7, [r4, #4]
.Ltmp896:
	.loc	54 545 32               @ /usr/bin/../lib/gcc/arm-linux-gnueabihf/6.3.0/../../../../include/c++/6.3.0/bits/vector.tcc:545:32
	ldr	r0, [r4, #8]
	.loc	54 546 4                @ /usr/bin/../lib/gcc/arm-linux-gnueabihf/6.3.0/../../../../include/c++/6.3.0/bits/vector.tcc:546:4
	sub	r0, r0, r7
	asr	r0, r0, #3
.Ltmp897:
	.loc	54 545 8                @ /usr/bin/../lib/gcc/arm-linux-gnueabihf/6.3.0/../../../../include/c++/6.3.0/bits/vector.tcc:545:8
	cmp	r0, r5
	bhs	.LBB20_12
.Ltmp898:
@ BB#2:
	@DEBUG_VALUE: _M_default_append:this <- %R4
	@DEBUG_VALUE: _M_default_append:__n <- %R5
	@DEBUG_VALUE: size:this <- %R4
	.loc	19 656 66               @ /usr/bin/../lib/gcc/arm-linux-gnueabihf/6.3.0/../../../../include/c++/6.3.0/bits/stl_vector.h:656:66
	ldr	r1, [r4]
.Ltmp899:
	.loc	19 1422 17              @ /usr/bin/../lib/gcc/arm-linux-gnueabihf/6.3.0/../../../../include/c++/6.3.0/bits/stl_vector.h:1422:17
	mvn	r8, #-536870912
.Ltmp900:
	.loc	19 656 50               @ /usr/bin/../lib/gcc/arm-linux-gnueabihf/6.3.0/../../../../include/c++/6.3.0/bits/stl_vector.h:656:50
	sub	r0, r7, r1
.Ltmp901:
	.loc	19 1422 17              @ /usr/bin/../lib/gcc/arm-linux-gnueabihf/6.3.0/../../../../include/c++/6.3.0/bits/stl_vector.h:1422:17
	sub	r2, r8, r0, asr #3
.Ltmp902:
	@DEBUG_VALUE: _M_check_len:__n <- %R5
	.loc	19 1422 6 is_stmt 0     @ /usr/bin/../lib/gcc/arm-linux-gnueabihf/6.3.0/../../../../include/c++/6.3.0/bits/stl_vector.h:1422:6
	cmp	r2, r5
	blo	.LBB20_13
.Ltmp903:
@ BB#3:                                 @ %_ZNKSt6vectorI14DigitalChannelSaIS0_EE12_M_check_lenEjPKc.exit
	@DEBUG_VALUE: _M_check_len:__n <- %R5
	@DEBUG_VALUE: size:this <- %R4
	@DEBUG_VALUE: _M_default_append:this <- %R4
	@DEBUG_VALUE: _M_default_append:__n <- %R5
	.loc	19 656 50 is_stmt 1     @ /usr/bin/../lib/gcc/arm-linux-gnueabihf/6.3.0/../../../../include/c++/6.3.0/bits/stl_vector.h:656:50
	asr	r0, r0, #3
.Ltmp904:
	.loc	19 1425 35              @ /usr/bin/../lib/gcc/arm-linux-gnueabihf/6.3.0/../../../../include/c++/6.3.0/bits/stl_vector.h:1425:35
	cmp	r0, r5
	mov	r2, r0
	mov	r6, #0
	movlo	r2, r5
	add	r0, r2, r0
	.loc	19 1426 25              @ /usr/bin/../lib/gcc/arm-linux-gnueabihf/6.3.0/../../../../include/c++/6.3.0/bits/stl_vector.h:1426:25
	cmp	r6, r0, lsr #29
	mov	r3, r0
	mvnne	r3, #-536870912
	cmp	r0, r2
	movhs	r8, r3
.Ltmp905:
	@DEBUG_VALUE: _M_allocate:__n <- %R8
	@DEBUG_VALUE: __len <- %R8
	@DEBUG_VALUE: allocate:__n <- %R8
	@DEBUG_VALUE: allocate:__n <- %R8
	.loc	19 170 9                @ /usr/bin/../lib/gcc/arm-linux-gnueabihf/6.3.0/../../../../include/c++/6.3.0/bits/stl_vector.h:170:9
	cmp	r8, #0
.Ltmp906:
	@DEBUG_VALUE: _M_check_len:__len <- %R0
	beq	.LBB20_6
.Ltmp907:
@ BB#4:
	@DEBUG_VALUE: _M_check_len:__len <- %R0
	@DEBUG_VALUE: allocate:__n <- %R8
	@DEBUG_VALUE: allocate:__n <- %R8
	@DEBUG_VALUE: __len <- %R8
	@DEBUG_VALUE: _M_allocate:__n <- %R8
	@DEBUG_VALUE: _M_check_len:__n <- %R5
	@DEBUG_VALUE: size:this <- %R4
	@DEBUG_VALUE: _M_default_append:this <- %R4
	@DEBUG_VALUE: _M_default_append:__n <- %R5
	.loc	7 101 6                 @ /usr/bin/../lib/gcc/arm-linux-gnueabihf/6.3.0/../../../../include/c++/6.3.0/ext/new_allocator.h:101:6
	cmp	r8, #536870912
	bhs	.LBB20_14
.Ltmp908:
@ BB#5:                                 @ %_ZNSt16allocator_traitsISaI14DigitalChannelEE8allocateERS1_j.exit.i
	@DEBUG_VALUE: _M_check_len:__len <- %R0
	@DEBUG_VALUE: allocate:__n <- %R8
	@DEBUG_VALUE: allocate:__n <- %R8
	@DEBUG_VALUE: __len <- %R8
	@DEBUG_VALUE: _M_allocate:__n <- %R8
	@DEBUG_VALUE: _M_check_len:__n <- %R5
	@DEBUG_VALUE: size:this <- %R4
	@DEBUG_VALUE: _M_default_append:this <- %R4
	@DEBUG_VALUE: _M_default_append:__n <- %R5
	.loc	7 104 46                @ /usr/bin/../lib/gcc/arm-linux-gnueabihf/6.3.0/../../../../include/c++/6.3.0/ext/new_allocator.h:104:46
	lsl	r0, r8, #3
.Ltmp909:
	.loc	7 104 27 is_stmt 0      @ /usr/bin/../lib/gcc/arm-linux-gnueabihf/6.3.0/../../../../include/c++/6.3.0/ext/new_allocator.h:104:27
	bl	_Znwj
.Ltmp910:
	.loc	54 563 22 is_stmt 1     @ /usr/bin/../lib/gcc/arm-linux-gnueabihf/6.3.0/../../../../include/c++/6.3.0/bits/vector.tcc:563:22
	ldm	r4, {r1, r7}
.Ltmp911:
	@DEBUG_VALUE: size:this <- %R4
	.loc	7 104 27                @ /usr/bin/../lib/gcc/arm-linux-gnueabihf/6.3.0/../../../../include/c++/6.3.0/ext/new_allocator.h:104:27
	mov	r6, r0
.Ltmp912:
.LBB20_6:                               @ %_ZNSt12_Vector_baseI14DigitalChannelSaIS0_EE11_M_allocateEj.exit
	@DEBUG_VALUE: allocate:__n <- %R8
	@DEBUG_VALUE: allocate:__n <- %R8
	@DEBUG_VALUE: __len <- %R8
	@DEBUG_VALUE: _M_allocate:__n <- %R8
	@DEBUG_VALUE: _M_check_len:__n <- %R5
	@DEBUG_VALUE: size:this <- %R4
	@DEBUG_VALUE: _M_default_append:this <- %R4
	@DEBUG_VALUE: _M_default_append:__n <- %R5
	@DEBUG_VALUE: __uninitialized_move_if_noexcept_a<DigitalChannel *, DigitalChannel *, std::allocator<DigitalChannel> >:__first <- %R1
	@DEBUG_VALUE: uninitialized_copy<std::move_iterator<DigitalChannel *>, DigitalChannel *>:__assignable <- 1
	@DEBUG_VALUE: __copy_move_a<true, DigitalChannel *, DigitalChannel *>:__simple <- 1
	.loc	55 366 34               @ /usr/bin/../lib/gcc/arm-linux-gnueabihf/6.3.0/../../../../include/c++/6.3.0/bits/stl_algobase.h:366:34
	sub	r2, r7, r1
	mov	r0, #0
	asr	r7, r2, #3
.Ltmp913:
	@DEBUG_VALUE: __copy_m<DigitalChannel>:_Num <- %R7
	.loc	55 367 8                @ /usr/bin/../lib/gcc/arm-linux-gnueabihf/6.3.0/../../../../include/c++/6.3.0/bits/stl_algobase.h:367:8
	cmp	r0, r2, asr #3
	beq	.LBB20_8
.Ltmp914:
@ BB#7:
	@DEBUG_VALUE: __copy_m<DigitalChannel>:_Num <- %R7
	@DEBUG_VALUE: __uninitialized_move_if_noexcept_a<DigitalChannel *, DigitalChannel *, std::allocator<DigitalChannel> >:__first <- %R1
	@DEBUG_VALUE: allocate:__n <- %R8
	@DEBUG_VALUE: allocate:__n <- %R8
	@DEBUG_VALUE: __len <- %R8
	@DEBUG_VALUE: _M_allocate:__n <- %R8
	@DEBUG_VALUE: _M_check_len:__n <- %R5
	@DEBUG_VALUE: size:this <- %R4
	@DEBUG_VALUE: _M_default_append:this <- %R4
	@DEBUG_VALUE: _M_default_append:__n <- %R5
	.loc	55 368 6                @ /usr/bin/../lib/gcc/arm-linux-gnueabihf/6.3.0/../../../../include/c++/6.3.0/bits/stl_algobase.h:368:6
	mov	r0, r6
	bl	memmove
.Ltmp915:
	@DEBUG_VALUE: __uninitialized_move_if_noexcept_a<DigitalChannel *, DigitalChannel *, std::allocator<DigitalChannel> >:__result <- %R6
.LBB20_8:
	@DEBUG_VALUE: __copy_m<DigitalChannel>:_Num <- %R7
	@DEBUG_VALUE: allocate:__n <- %R8
	@DEBUG_VALUE: allocate:__n <- %R8
	@DEBUG_VALUE: __len <- %R8
	@DEBUG_VALUE: _M_allocate:__n <- %R8
	@DEBUG_VALUE: _M_check_len:__n <- %R5
	@DEBUG_VALUE: size:this <- %R4
	@DEBUG_VALUE: _M_default_append:this <- %R4
	@DEBUG_VALUE: _M_default_append:__n <- %R5
	.loc	55 369 20               @ /usr/bin/../lib/gcc/arm-linux-gnueabihf/6.3.0/../../../../include/c++/6.3.0/bits/stl_algobase.h:369:20
	add	r7, r6, r7, lsl #3
.Ltmp916:
	@DEBUG_VALUE: __niter <- %R5
	@DEBUG_VALUE: __fill_n_a<DigitalChannel *, unsigned int, DigitalChannel>:__first <- %R7
	@DEBUG_VALUE: fill_n<DigitalChannel *, unsigned int, DigitalChannel>:__first <- %R7
	@DEBUG_VALUE: __uninit_default_n<DigitalChannel *, unsigned int>:__first <- %R7
	@DEBUG_VALUE: __uninitialized_default_n<DigitalChannel *, unsigned int>:__assignable <- 1
	@DEBUG_VALUE: __uninitialized_default_n<DigitalChannel *, unsigned int>:__first <- %R7
	@DEBUG_VALUE: __uninitialized_default_n_a<DigitalChannel *, unsigned int, DigitalChannel>:__first <- %R7
	@DEBUG_VALUE: __new_finish <- %R7
	.loc	55 742 11               @ /usr/bin/../lib/gcc/arm-linux-gnueabihf/6.3.0/../../../../include/c++/6.3.0/bits/stl_algobase.h:742:11
	lsl	r2, r5, #3
	mov	r1, #0
	mov	r0, r7
	bl	memset
.Ltmp917:
	.loc	54 578 36               @ /usr/bin/../lib/gcc/arm-linux-gnueabihf/6.3.0/../../../../include/c++/6.3.0/bits/vector.tcc:578:36
	ldr	r0, [r4]
.Ltmp918:
	@DEBUG_VALUE: _M_deallocate:__p <- %R0
	@DEBUG_VALUE: deallocate:__p <- %R0
	@DEBUG_VALUE: deallocate:__p <- %R0
	.loc	55 740 7 discriminator 1 @ /usr/bin/../lib/gcc/arm-linux-gnueabihf/6.3.0/../../../../include/c++/6.3.0/bits/stl_algobase.h:740:7
	add	r5, r7, r5, lsl #3
.Ltmp919:
	@DEBUG_VALUE: __new_finish <- %R5
	.loc	19 177 6                @ /usr/bin/../lib/gcc/arm-linux-gnueabihf/6.3.0/../../../../include/c++/6.3.0/bits/stl_vector.h:177:6
	cmp	r0, #0
	beq	.LBB20_10
.Ltmp920:
@ BB#9:
	@DEBUG_VALUE: __new_finish <- %R5
	@DEBUG_VALUE: deallocate:__p <- %R0
	@DEBUG_VALUE: deallocate:__p <- %R0
	@DEBUG_VALUE: _M_deallocate:__p <- %R0
	@DEBUG_VALUE: __uninitialized_default_n_a<DigitalChannel *, unsigned int, DigitalChannel>:__first <- %R7
	@DEBUG_VALUE: __uninitialized_default_n<DigitalChannel *, unsigned int>:__first <- %R7
	@DEBUG_VALUE: __uninit_default_n<DigitalChannel *, unsigned int>:__first <- %R7
	@DEBUG_VALUE: fill_n<DigitalChannel *, unsigned int, DigitalChannel>:__first <- %R7
	@DEBUG_VALUE: __fill_n_a<DigitalChannel *, unsigned int, DigitalChannel>:__first <- %R7
	@DEBUG_VALUE: allocate:__n <- %R8
	@DEBUG_VALUE: allocate:__n <- %R8
	@DEBUG_VALUE: __len <- %R8
	@DEBUG_VALUE: _M_allocate:__n <- %R8
	@DEBUG_VALUE: size:this <- %R4
	@DEBUG_VALUE: _M_default_append:this <- %R4
	.loc	7 110 9                 @ /usr/bin/../lib/gcc/arm-linux-gnueabihf/6.3.0/../../../../include/c++/6.3.0/ext/new_allocator.h:110:9
	bl	_ZdlPv
.Ltmp921:
.LBB20_10:                              @ %_ZNSt12_Vector_baseI14DigitalChannelSaIS0_EE13_M_deallocateEPS0_j.exit31
	@DEBUG_VALUE: __new_finish <- %R5
	@DEBUG_VALUE: __uninitialized_default_n_a<DigitalChannel *, unsigned int, DigitalChannel>:__first <- %R7
	@DEBUG_VALUE: __uninitialized_default_n<DigitalChannel *, unsigned int>:__first <- %R7
	@DEBUG_VALUE: __uninit_default_n<DigitalChannel *, unsigned int>:__first <- %R7
	@DEBUG_VALUE: fill_n<DigitalChannel *, unsigned int, DigitalChannel>:__first <- %R7
	@DEBUG_VALUE: __fill_n_a<DigitalChannel *, unsigned int, DigitalChannel>:__first <- %R7
	@DEBUG_VALUE: allocate:__n <- %R8
	@DEBUG_VALUE: allocate:__n <- %R8
	@DEBUG_VALUE: __len <- %R8
	@DEBUG_VALUE: _M_allocate:__n <- %R8
	@DEBUG_VALUE: size:this <- %R4
	@DEBUG_VALUE: _M_default_append:this <- %R4
	.loc	54 581 31               @ /usr/bin/../lib/gcc/arm-linux-gnueabihf/6.3.0/../../../../include/c++/6.3.0/bits/vector.tcc:581:31
	str	r6, [r4]
	.loc	54 583 54               @ /usr/bin/../lib/gcc/arm-linux-gnueabihf/6.3.0/../../../../include/c++/6.3.0/bits/vector.tcc:583:54
	add	r0, r6, r8, lsl #3
	.loc	54 582 32               @ /usr/bin/../lib/gcc/arm-linux-gnueabihf/6.3.0/../../../../include/c++/6.3.0/bits/vector.tcc:582:32
	str	r5, [r4, #4]
	.loc	54 583 40               @ /usr/bin/../lib/gcc/arm-linux-gnueabihf/6.3.0/../../../../include/c++/6.3.0/bits/vector.tcc:583:40
	str	r0, [r4, #8]
.Ltmp922:
.LBB20_11:
	@DEBUG_VALUE: _M_default_append:this <- %R4
	.loc	54 586 5 discriminator 2 @ /usr/bin/../lib/gcc/arm-linux-gnueabihf/6.3.0/../../../../include/c++/6.3.0/bits/vector.tcc:586:5
	pop	{r4, r5, r6, r7, r8, r10, r11, pc}
.Ltmp923:
.LBB20_12:                              @ %_ZSt27__uninitialized_default_n_aIP14DigitalChanneljS0_ET_S2_T0_RSaIT1_E.exit
	@DEBUG_VALUE: _M_default_append:this <- %R4
	@DEBUG_VALUE: _M_default_append:__n <- %R5
	@DEBUG_VALUE: __uninitialized_default_n<DigitalChannel *, unsigned int>:__assignable <- 1
	@DEBUG_VALUE: __niter <- %R5
	.loc	55 742 11               @ /usr/bin/../lib/gcc/arm-linux-gnueabihf/6.3.0/../../../../include/c++/6.3.0/bits/stl_algobase.h:742:11
	lsl	r2, r5, #3
	mov	r0, r7
	mov	r1, #0
	bl	memset
.Ltmp924:
	.loc	55 740 7 discriminator 1 @ /usr/bin/../lib/gcc/arm-linux-gnueabihf/6.3.0/../../../../include/c++/6.3.0/bits/stl_algobase.h:740:7
	add	r0, r7, r5, lsl #3
.Ltmp925:
	.loc	54 548 32               @ /usr/bin/../lib/gcc/arm-linux-gnueabihf/6.3.0/../../../../include/c++/6.3.0/bits/vector.tcc:548:32
	str	r0, [r4, #4]
.Ltmp926:
	.loc	54 586 5 discriminator 2 @ /usr/bin/../lib/gcc/arm-linux-gnueabihf/6.3.0/../../../../include/c++/6.3.0/bits/vector.tcc:586:5
	pop	{r4, r5, r6, r7, r8, r10, r11, pc}
.Ltmp927:
.LBB20_13:
	@DEBUG_VALUE: _M_check_len:__n <- %R5
	@DEBUG_VALUE: size:this <- %R4
	@DEBUG_VALUE: _M_default_append:this <- %R4
	@DEBUG_VALUE: _M_default_append:__n <- %R5
	.loc	19 1423 4               @ /usr/bin/../lib/gcc/arm-linux-gnueabihf/6.3.0/../../../../include/c++/6.3.0/bits/stl_vector.h:1423:4
	movw	r0, :lower16:.L.str.14
	movt	r0, :upper16:.L.str.14
.Ltmp928:
	@DEBUG_VALUE: _M_check_len:__s <- %R0
	mov	lr, pc
	b	_ZSt20__throw_length_errorPKc
.Ltmp929:
.LBB20_14:
	@DEBUG_VALUE: _M_check_len:__len <- %R0
	@DEBUG_VALUE: allocate:__n <- %R8
	@DEBUG_VALUE: allocate:__n <- %R8
	@DEBUG_VALUE: __len <- %R8
	@DEBUG_VALUE: _M_allocate:__n <- %R8
	@DEBUG_VALUE: _M_check_len:__n <- %R5
	@DEBUG_VALUE: size:this <- %R4
	@DEBUG_VALUE: _M_default_append:this <- %R4
	@DEBUG_VALUE: _M_default_append:__n <- %R5
	.loc	7 102 4                 @ /usr/bin/../lib/gcc/arm-linux-gnueabihf/6.3.0/../../../../include/c++/6.3.0/ext/new_allocator.h:102:4
	mov	lr, pc
	b	_ZSt17__throw_bad_allocv
.Ltmp930:
.Lfunc_end20:
	.size	_ZNSt6vectorI14DigitalChannelSaIS0_EE17_M_default_appendEj, .Lfunc_end20-_ZNSt6vectorI14DigitalChannelSaIS0_EE17_M_default_appendEj
	.cfi_endproc
	.fnend

	.section	.text.startup,"ax",%progbits
	.p2align	2
	.type	_GLOBAL__sub_I_BelaArduino.ii,%function
_GLOBAL__sub_I_BelaArduino.ii:          @ @_GLOBAL__sub_I_BelaArduino.ii
.Lfunc_begin21:
	.loc	45 0 0                  @ /root/Bela/projects/board_6/build/BelaArduino.cpp:0:0
	.fnstart
	.cfi_startproc
@ BB#0:
	.save	{r4, r5, r6, r7, r8, r10, r11, lr}
	push	{r4, r5, r6, r7, r8, r10, r11, lr}
.Ltmp934:
	.cfi_def_cfa_offset 32
.Ltmp935:
	.cfi_offset lr, -4
.Ltmp936:
	.cfi_offset r11, -8
.Ltmp937:
	.cfi_offset r10, -12
.Ltmp938:
	.cfi_offset r8, -16
.Ltmp939:
	.cfi_offset r7, -20
.Ltmp940:
	.cfi_offset r6, -24
.Ltmp941:
	.cfi_offset r5, -28
.Ltmp942:
	.cfi_offset r4, -32
	.setfp	r11, sp, #24
	add	r11, sp, #24
.Ltmp943:
	.cfi_def_cfa r11, 8
	.vsave	{d8, d9}
	vpush	{d8, d9}
.Ltmp944:
	.cfi_offset d9, -40
.Ltmp945:
	.cfi_offset d8, -48
.Ltmp946:
	.loc	4 74 25 prologue_end    @ /usr/bin/../lib/gcc/arm-linux-gnueabihf/6.3.0/../../../../include/c++/6.3.0/iostream:74:25
	movw	r5, :lower16:.L_MergedGlobals.4
	movt	r5, :upper16:.L_MergedGlobals.4
	mov	r0, r5
	bl	_ZNSt8ios_base4InitC1Ev
	.loc	4 74 25 is_stmt 0 discriminator 1 @ /usr/bin/../lib/gcc/arm-linux-gnueabihf/6.3.0/../../../../include/c++/6.3.0/iostream:74:25
	movw	r4, :lower16:__dso_handle
	movw	r0, :lower16:_ZNSt8ios_base4InitD1Ev
	movt	r4, :upper16:__dso_handle
	movt	r0, :upper16:_ZNSt8ios_base4InitD1Ev
	mov	r1, r5
	mov	r2, r4
	bl	__cxa_atexit
.Ltmp947:
	.loc	5 70 7 is_stmt 1        @ ./libraries/ShiftRegister/ShiftRegister.h:70:7
	add	r6, r5, #32
.Ltmp948:
	@DEBUG_VALUE: ShiftRegisterOut:this <- %R6
	mov	r0, r6
	bl	_ZN13ShiftRegisterC2Ev
	movw	r0, :lower16:_ZTV16ShiftRegisterOut
.Ltmp949:
	.loc	17 22 25 discriminator 1 @ /root/Bela/projects/board_6/BelaArduino.cpp:22:25
	mov	r1, r6
.Ltmp950:
	.loc	5 70 7                  @ ./libraries/ShiftRegister/ShiftRegister.h:70:7
	movt	r0, :upper16:_ZTV16ShiftRegisterOut
.Ltmp951:
	.loc	17 22 25 discriminator 1 @ /root/Bela/projects/board_6/BelaArduino.cpp:22:25
	mov	r2, r4
.Ltmp952:
	.loc	5 70 7                  @ ./libraries/ShiftRegister/ShiftRegister.h:70:7
	add	r0, r0, #8
	str	r0, [r5, #32]
	.loc	5 100 15                @ ./libraries/ShiftRegister/ShiftRegister.h:100:15
	mov	r0, #2
	str	r0, [r5, #76]
.Ltmp953:
	.loc	17 22 25 discriminator 1 @ /root/Bela/projects/board_6/BelaArduino.cpp:22:25
	movw	r0, :lower16:_ZN13ShiftRegisterD2Ev
	movt	r0, :upper16:_ZN13ShiftRegisterD2Ev
	bl	__cxa_atexit
.Ltmp954:
	@DEBUG_VALUE: _Bit_iterator_base:__y <- 0
	@DEBUG_VALUE: _Bit_iterator_base:__y <- 0
	@DEBUG_VALUE: vector:__n <- 32
	.loc	11 143 18               @ /usr/bin/../lib/gcc/arm-linux-gnueabihf/6.3.0/../../../../include/c++/6.3.0/bits/stl_bvector.h:143:18
	vmov.i32	q4, #0x0
	add	r0, r5, #12
.Ltmp955:
	@DEBUG_VALUE: _M_initialize:this <- %R0
	@DEBUG_VALUE: vector:this <- %R0
	@DEBUG_VALUE: vector:__n <- 32
	mov	r4, #0
	vst1.32	{d8, d9}, [r0]
	str	r4, [r5, #28]
.Ltmp956:
	@DEBUG_VALUE: allocate:__n <- 1
	@DEBUG_VALUE: allocate:__n <- 1
	@DEBUG_VALUE: _M_allocate:__n <- 32
	@DEBUG_VALUE: _M_initialize:__n <- 32
	.loc	7 104 27                @ /usr/bin/../lib/gcc/arm-linux-gnueabihf/6.3.0/../../../../include/c++/6.3.0/ext/new_allocator.h:104:27
.Ltmp931:
	mov	r0, #4
.Ltmp957:
	bl	_Znwj
.Ltmp932:
.Ltmp958:
@ BB#1:                                 @ %__cxx_global_var_init.2.exit
	@DEBUG_VALUE: ShiftRegisterOut:this <- %R6
	.loc	17 23 26 discriminator 6 @ /root/Bela/projects/board_6/BelaArduino.cpp:23:26
	movw	r8, :lower16:__dso_handle
.Ltmp959:
	.loc	11 1082 45              @ /usr/bin/../lib/gcc/arm-linux-gnueabihf/6.3.0/../../../../include/c++/6.3.0/bits/stl_bvector.h:1082:45
	add	r1, r0, #4
	.loc	11 1082 39 is_stmt 0    @ /usr/bin/../lib/gcc/arm-linux-gnueabihf/6.3.0/../../../../include/c++/6.3.0/bits/stl_bvector.h:1082:39
	str	r1, [r5, #28]
.Ltmp960:
	@DEBUG_VALUE: _Bit_iterator_base:__y <- 0
	@DEBUG_VALUE: _Bit_iterator:__y <- 0
	.loc	17 23 26 is_stmt 1 discriminator 6 @ /root/Bela/projects/board_6/BelaArduino.cpp:23:26
	movt	r8, :upper16:__dso_handle
.Ltmp961:
	.loc	11 1083 30 discriminator 3 @ /usr/bin/../lib/gcc/arm-linux-gnueabihf/6.3.0/../../../../include/c++/6.3.0/bits/stl_bvector.h:1083:30
	str	r0, [r5, #12]!
.Ltmp962:
	@DEBUG_VALUE: __fill_a<unsigned long *, int>:__tmp <- 0
	@DEBUG_VALUE: _M_incr:__n <- 32
	@DEBUG_VALUE: _M_incr:__i <- 32
	@DEBUG_VALUE: operator+=:__i <- 32
	@DEBUG_VALUE: operator+:__i <- 32
	@DEBUG_VALUE: allocate: <- %R4
	@DEBUG_VALUE: allocate: <- %R4
	@DEBUG_VALUE: allocate: <- %R4
	.loc	17 23 26 discriminator 6 @ /root/Bela/projects/board_6/BelaArduino.cpp:23:26
	mov	r2, r8
.Ltmp963:
	.loc	55 696 11               @ /usr/bin/../lib/gcc/arm-linux-gnueabihf/6.3.0/../../../../include/c++/6.3.0/bits/stl_algobase.h:696:11
	str	r4, [r0]
.Ltmp964:
	.loc	17 23 26 discriminator 6 @ /root/Bela/projects/board_6/BelaArduino.cpp:23:26
	movw	r0, :lower16:_ZNSt13_Bvector_baseISaIbEED2Ev
.Ltmp965:
	.loc	11 1083 30 discriminator 3 @ /usr/bin/../lib/gcc/arm-linux-gnueabihf/6.3.0/../../../../include/c++/6.3.0/bits/stl_bvector.h:1083:30
	str	r4, [r5, #4]
.Ltmp966:
	.loc	17 23 26 discriminator 6 @ /root/Bela/projects/board_6/BelaArduino.cpp:23:26
	movt	r0, :upper16:_ZNSt13_Bvector_baseISaIbEED2Ev
.Ltmp967:
	.loc	11 1084 31 discriminator 2 @ /usr/bin/../lib/gcc/arm-linux-gnueabihf/6.3.0/../../../../include/c++/6.3.0/bits/stl_bvector.h:1084:31
	str	r1, [r5, #8]
.Ltmp968:
	.loc	17 23 26 discriminator 6 @ /root/Bela/projects/board_6/BelaArduino.cpp:23:26
	mov	r1, r5
.Ltmp969:
	.loc	11 1084 31 discriminator 2 @ /usr/bin/../lib/gcc/arm-linux-gnueabihf/6.3.0/../../../../include/c++/6.3.0/bits/stl_bvector.h:1084:31
	str	r4, [r5, #12]
.Ltmp970:
	.loc	17 23 26 discriminator 6 @ /root/Bela/projects/board_6/BelaArduino.cpp:23:26
	bl	__cxa_atexit
.Ltmp971:
	.loc	19 87 22                @ /usr/bin/../lib/gcc/arm-linux-gnueabihf/6.3.0/../../../../include/c++/6.3.0/bits/stl_vector.h:87:22
	movw	r6, :lower16:.L_MergedGlobals
.Ltmp972:
	.loc	17 109 29 discriminator 1 @ /root/Bela/projects/board_6/BelaArduino.cpp:109:29
	movw	r0, :lower16:_ZNSt6vectorI14DigitalChannelSaIS0_EED2Ev
.Ltmp973:
	.loc	19 87 22                @ /usr/bin/../lib/gcc/arm-linux-gnueabihf/6.3.0/../../../../include/c++/6.3.0/bits/stl_vector.h:87:22
	movt	r6, :upper16:.L_MergedGlobals
.Ltmp974:
	.loc	17 109 29 discriminator 1 @ /root/Bela/projects/board_6/BelaArduino.cpp:109:29
	movt	r0, :upper16:_ZNSt6vectorI14DigitalChannelSaIS0_EED2Ev
	mov	r1, r6
	mov	r2, r8
.Ltmp975:
	.loc	19 87 22                @ /usr/bin/../lib/gcc/arm-linux-gnueabihf/6.3.0/../../../../include/c++/6.3.0/bits/stl_vector.h:87:22
	str	r4, [r6]
	.loc	19 87 34 is_stmt 0      @ /usr/bin/../lib/gcc/arm-linux-gnueabihf/6.3.0/../../../../include/c++/6.3.0/bits/stl_vector.h:87:34
	str	r4, [r6, #4]
	.loc	19 87 47                @ /usr/bin/../lib/gcc/arm-linux-gnueabihf/6.3.0/../../../../include/c++/6.3.0/bits/stl_vector.h:87:47
	str	r4, [r6, #8]
.Ltmp976:
	.loc	17 109 29 is_stmt 1 discriminator 1 @ /root/Bela/projects/board_6/BelaArduino.cpp:109:29
	bl	__cxa_atexit
.Ltmp977:
	.loc	28 110 25               @ /usr/bin/../lib/gcc/arm-linux-gnueabihf/6.3.0/../../../../include/c++/6.3.0/bits/basic_string.h:110:25
	movw	r5, :lower16:belaArduinoPipe
.Ltmp978:
	.loc	17 110 6 is_stmt 0 discriminator 1 @ /root/Bela/projects/board_6/BelaArduino.cpp:110:6
	mov	r2, r8
.Ltmp979:
	.loc	28 110 25               @ /usr/bin/../lib/gcc/arm-linux-gnueabihf/6.3.0/../../../../include/c++/6.3.0/bits/basic_string.h:110:25
	movt	r5, :upper16:belaArduinoPipe
	add	r0, r5, #8
.Ltmp980:
	@DEBUG_VALUE: assign:__c1 <- %R0
	@DEBUG_VALUE: _M_length:__length <- 0
	@DEBUG_VALUE: _M_set_length:__n <- 0
	stm	r5, {r0, r4}
.Ltmp981:
	.loc	28 110 25               @ /usr/bin/../lib/gcc/arm-linux-gnueabihf/6.3.0/../../../../include/c++/6.3.0/bits/basic_string.h:110:25
	add	r0, r5, #32
.Ltmp982:
	.loc	17 110 6 discriminator 1 @ /root/Bela/projects/board_6/BelaArduino.cpp:110:6
	mov	r1, r5
.Ltmp983:
	.loc	29 243 14 is_stmt 1     @ /usr/bin/../lib/gcc/arm-linux-gnueabihf/6.3.0/../../../../include/c++/6.3.0/bits/char_traits.h:243:14
	strb	r4, [r5, #8]
.Ltmp984:
	.loc	28 110 25               @ /usr/bin/../lib/gcc/arm-linux-gnueabihf/6.3.0/../../../../include/c++/6.3.0/bits/basic_string.h:110:25
	str	r0, [r5, #24]
.Ltmp985:
	@DEBUG_VALUE: _M_length:__length <- 0
	@DEBUG_VALUE: _M_set_length:__n <- 0
	.loc	22 88 9                 @ ./libraries/Pipe/Pipe.h:88:9
	add	r0, r5, #64
.Ltmp986:
	.loc	28 132 26               @ /usr/bin/../lib/gcc/arm-linux-gnueabihf/6.3.0/../../../../include/c++/6.3.0/bits/basic_string.h:132:26
	str	r4, [r5, #28]
.Ltmp987:
	.loc	29 243 14               @ /usr/bin/../lib/gcc/arm-linux-gnueabihf/6.3.0/../../../../include/c++/6.3.0/bits/char_traits.h:243:14
	strb	r4, [r5, #32]
.Ltmp988:
	.loc	22 86 6                 @ ./libraries/Pipe/Pipe.h:86:6
	str	r4, [r5, #52]
	.loc	22 88 9                 @ ./libraries/Pipe/Pipe.h:88:9
	vst1.64	{d8, d9}, [r0]
.Ltmp989:
	.loc	17 110 6 discriminator 1 @ /root/Bela/projects/board_6/BelaArduino.cpp:110:6
	movw	r0, :lower16:_ZN4PipeD2Ev
	movt	r0, :upper16:_ZN4PipeD2Ev
.Ltmp990:
	.loc	22 88 9                 @ ./libraries/Pipe/Pipe.h:88:9
	strh	r4, [r5, #80]
.Ltmp991:
	.loc	17 110 6 discriminator 1 @ /root/Bela/projects/board_6/BelaArduino.cpp:110:6
	bl	__cxa_atexit
.Ltmp992:
	.loc	19 87 22                @ /usr/bin/../lib/gcc/arm-linux-gnueabihf/6.3.0/../../../../include/c++/6.3.0/bits/stl_vector.h:87:22
	mov	r1, r6
.Ltmp993:
	.loc	17 111 20 discriminator 1 @ /root/Bela/projects/board_6/BelaArduino.cpp:111:20
	movw	r7, :lower16:_ZNSt6vectorIfSaIfEED2Ev
.Ltmp994:
	.loc	19 87 22                @ /usr/bin/../lib/gcc/arm-linux-gnueabihf/6.3.0/../../../../include/c++/6.3.0/bits/stl_vector.h:87:22
	str	r4, [r1, #12]!
.Ltmp995:
	.loc	17 111 20 discriminator 1 @ /root/Bela/projects/board_6/BelaArduino.cpp:111:20
	movt	r7, :upper16:_ZNSt6vectorIfSaIfEED2Ev
	mov	r0, r7
	mov	r2, r8
.Ltmp996:
	.loc	19 87 34                @ /usr/bin/../lib/gcc/arm-linux-gnueabihf/6.3.0/../../../../include/c++/6.3.0/bits/stl_vector.h:87:34
	str	r4, [r6, #16]
	.loc	19 87 47 is_stmt 0      @ /usr/bin/../lib/gcc/arm-linux-gnueabihf/6.3.0/../../../../include/c++/6.3.0/bits/stl_vector.h:87:47
	str	r4, [r6, #20]
.Ltmp997:
	.loc	17 111 20 is_stmt 1 discriminator 1 @ /root/Bela/projects/board_6/BelaArduino.cpp:111:20
	bl	__cxa_atexit
.Ltmp998:
	.loc	19 87 22                @ /usr/bin/../lib/gcc/arm-linux-gnueabihf/6.3.0/../../../../include/c++/6.3.0/bits/stl_vector.h:87:22
	str	r4, [r6, #24]!
.Ltmp999:
	.loc	17 112 20 discriminator 1 @ /root/Bela/projects/board_6/BelaArduino.cpp:112:20
	mov	r0, r7
	mov	r2, r8
	mov	r1, r6
.Ltmp1000:
	.loc	19 87 34                @ /usr/bin/../lib/gcc/arm-linux-gnueabihf/6.3.0/../../../../include/c++/6.3.0/bits/stl_vector.h:87:34
	str	r4, [r6, #4]
	.loc	19 87 47 is_stmt 0      @ /usr/bin/../lib/gcc/arm-linux-gnueabihf/6.3.0/../../../../include/c++/6.3.0/bits/stl_vector.h:87:47
	str	r4, [r6, #8]
.Ltmp1001:
	.loc	17 112 20 is_stmt 1 discriminator 1 @ /root/Bela/projects/board_6/BelaArduino.cpp:112:20
	bl	__cxa_atexit
.Ltmp1002:
	@DEBUG_VALUE: BelaMsgParser:rt [bit_piece offset=0 size=1] <- 0
	.loc	26 223 4                @ /root/Bela/projects/board_6/BelaMsg.h:223:4
	movw	r6, :lower16:_ZL11nonRtParser
.Ltmp1003:
	.loc	7 104 27                @ /usr/bin/../lib/gcc/arm-linux-gnueabihf/6.3.0/../../../../include/c++/6.3.0/ext/new_allocator.h:104:27
	mov	r0, #1000
.Ltmp1004:
	.loc	26 223 4                @ /root/Bela/projects/board_6/BelaMsg.h:223:4
	movt	r6, :upper16:_ZL11nonRtParser
.Ltmp1005:
	@DEBUG_VALUE: _Vector_base:__n <- 1000
	@DEBUG_VALUE: vector:__n <- 1000
	str	r4, [r6]
	.loc	26 224 9                @ /root/Bela/projects/board_6/BelaMsg.h:224:9
	stmib	r6, {r4, r5}
.Ltmp1006:
	.loc	19 91 25                @ /usr/bin/../lib/gcc/arm-linux-gnueabihf/6.3.0/../../../../include/c++/6.3.0/bits/stl_vector.h:91:25
	str	r4, [r6, #12]
	.loc	19 91 37 is_stmt 0      @ /usr/bin/../lib/gcc/arm-linux-gnueabihf/6.3.0/../../../../include/c++/6.3.0/bits/stl_vector.h:91:37
	str	r4, [r6, #16]
	.loc	19 91 50                @ /usr/bin/../lib/gcc/arm-linux-gnueabihf/6.3.0/../../../../include/c++/6.3.0/bits/stl_vector.h:91:50
	str	r4, [r6, #20]
.Ltmp1007:
	.loc	7 104 27 is_stmt 1      @ /usr/bin/../lib/gcc/arm-linux-gnueabihf/6.3.0/../../../../include/c++/6.3.0/ext/new_allocator.h:104:27
	bl	_Znwj
.Ltmp1008:
	@DEBUG_VALUE: __uninitialized_default_n_a<unsigned char *, unsigned int, unsigned char>:__first <- %R0
	@DEBUG_VALUE: __uninitialized_default_n<unsigned char *, unsigned int>:__first <- %R0
	@DEBUG_VALUE: __uninit_default_n<unsigned char *, unsigned int>:__first <- %R0
	@DEBUG_VALUE: fill_n<unsigned char *, unsigned int, unsigned char>:__first <- %R0
	@DEBUG_VALUE: __fill_n_a<unsigned int, unsigned char>:__first <- %R0
	@DEBUG_VALUE: __fill_a<unsigned char>:__first <- %R0
	.loc	55 707 2                @ /usr/bin/../lib/gcc/arm-linux-gnueabihf/6.3.0/../../../../include/c++/6.3.0/bits/stl_algobase.h:707:2
	mov	r1, #0
	mov	r2, #1000
.Ltmp1009:
	.loc	19 185 25               @ /usr/bin/../lib/gcc/arm-linux-gnueabihf/6.3.0/../../../../include/c++/6.3.0/bits/stl_vector.h:185:25
	str	r0, [r6, #12]
	.loc	19 187 59               @ /usr/bin/../lib/gcc/arm-linux-gnueabihf/6.3.0/../../../../include/c++/6.3.0/bits/stl_vector.h:187:59
	add	r7, r0, #1000
.Ltmp1010:
	@DEBUG_VALUE: __fill_a<unsigned char>:__last <- %R7
	.loc	19 187 34 is_stmt 0     @ /usr/bin/../lib/gcc/arm-linux-gnueabihf/6.3.0/../../../../include/c++/6.3.0/bits/stl_vector.h:187:34
	str	r7, [r6, #20]
.Ltmp1011:
	.loc	55 707 2 is_stmt 1      @ /usr/bin/../lib/gcc/arm-linux-gnueabihf/6.3.0/../../../../include/c++/6.3.0/bits/stl_algobase.h:707:2
	bl	memset
.Ltmp1012:
	.loc	19 1308 26              @ /usr/bin/../lib/gcc/arm-linux-gnueabihf/6.3.0/../../../../include/c++/6.3.0/bits/stl_vector.h:1308:26
	str	r7, [r6, #16]
.Ltmp1013:
	.loc	17 133 22 discriminator 1 @ /root/Bela/projects/board_6/BelaArduino.cpp:133:22
	movw	r7, :lower16:_ZN13BelaMsgParserD2Ev
.Ltmp1014:
	movt	r7, :upper16:_ZN13BelaMsgParserD2Ev
	mov	r1, r6
	mov	r0, r7
	mov	r2, r8
.Ltmp1015:
	.loc	26 183 8                @ /root/Bela/projects/board_6/BelaMsg.h:183:8
	strb	r4, [r6, #35]
.Ltmp1016:
	.loc	26 185 51               @ /root/Bela/projects/board_6/BelaMsg.h:185:51
	strb	r4, [r6, #36]
.Ltmp1017:
	.loc	17 133 22 discriminator 1 @ /root/Bela/projects/board_6/BelaArduino.cpp:133:22
	bl	__cxa_atexit
.Ltmp1018:
	.loc	26 223 4                @ /root/Bela/projects/board_6/BelaMsg.h:223:4
	movw	r6, :lower16:_ZL8rtParser
.Ltmp1019:
	.loc	7 104 27                @ /usr/bin/../lib/gcc/arm-linux-gnueabihf/6.3.0/../../../../include/c++/6.3.0/ext/new_allocator.h:104:27
	mov	r0, #1000
.Ltmp1020:
	.loc	26 223 4                @ /root/Bela/projects/board_6/BelaMsg.h:223:4
	movt	r6, :upper16:_ZL8rtParser
	str	r4, [r6]
	.loc	26 224 9                @ /root/Bela/projects/board_6/BelaMsg.h:224:9
	stmib	r6, {r4, r5}
.Ltmp1021:
	.loc	19 91 25                @ /usr/bin/../lib/gcc/arm-linux-gnueabihf/6.3.0/../../../../include/c++/6.3.0/bits/stl_vector.h:91:25
	str	r4, [r6, #12]
	.loc	19 91 37 is_stmt 0      @ /usr/bin/../lib/gcc/arm-linux-gnueabihf/6.3.0/../../../../include/c++/6.3.0/bits/stl_vector.h:91:37
	str	r4, [r6, #16]
	.loc	19 91 50                @ /usr/bin/../lib/gcc/arm-linux-gnueabihf/6.3.0/../../../../include/c++/6.3.0/bits/stl_vector.h:91:50
	str	r4, [r6, #20]
.Ltmp1022:
	.loc	7 104 27 is_stmt 1      @ /usr/bin/../lib/gcc/arm-linux-gnueabihf/6.3.0/../../../../include/c++/6.3.0/ext/new_allocator.h:104:27
	bl	_Znwj
.Ltmp1023:
	@DEBUG_VALUE: __uninitialized_default_n_a<unsigned char *, unsigned int, unsigned char>:__first <- %R0
	@DEBUG_VALUE: __uninitialized_default_n<unsigned char *, unsigned int>:__first <- %R0
	@DEBUG_VALUE: __uninit_default_n<unsigned char *, unsigned int>:__first <- %R0
	@DEBUG_VALUE: fill_n<unsigned char *, unsigned int, unsigned char>:__first <- %R0
	@DEBUG_VALUE: __fill_n_a<unsigned int, unsigned char>:__first <- %R0
	@DEBUG_VALUE: __fill_a<unsigned char>:__first <- %R0
	.loc	55 707 2                @ /usr/bin/../lib/gcc/arm-linux-gnueabihf/6.3.0/../../../../include/c++/6.3.0/bits/stl_algobase.h:707:2
	mov	r1, #0
	mov	r2, #1000
.Ltmp1024:
	.loc	19 185 25               @ /usr/bin/../lib/gcc/arm-linux-gnueabihf/6.3.0/../../../../include/c++/6.3.0/bits/stl_vector.h:185:25
	str	r0, [r6, #12]
	.loc	19 187 59               @ /usr/bin/../lib/gcc/arm-linux-gnueabihf/6.3.0/../../../../include/c++/6.3.0/bits/stl_vector.h:187:59
	add	r5, r0, #1000
.Ltmp1025:
	@DEBUG_VALUE: __fill_a<unsigned char>:__last <- %R5
	.loc	19 187 34 is_stmt 0     @ /usr/bin/../lib/gcc/arm-linux-gnueabihf/6.3.0/../../../../include/c++/6.3.0/bits/stl_vector.h:187:34
	str	r5, [r6, #20]
.Ltmp1026:
	.loc	55 707 2 is_stmt 1      @ /usr/bin/../lib/gcc/arm-linux-gnueabihf/6.3.0/../../../../include/c++/6.3.0/bits/stl_algobase.h:707:2
	bl	memset
.Ltmp1027:
	.loc	26 185 51               @ /root/Bela/projects/board_6/BelaMsg.h:185:51
	mov	r0, #1
.Ltmp1028:
	.loc	19 1308 26              @ /usr/bin/../lib/gcc/arm-linux-gnueabihf/6.3.0/../../../../include/c++/6.3.0/bits/stl_vector.h:1308:26
	str	r5, [r6, #16]
.Ltmp1029:
	.loc	26 183 8                @ /root/Bela/projects/board_6/BelaMsg.h:183:8
	strb	r4, [r6, #35]
.Ltmp1030:
	.loc	17 210 22 discriminator 1 @ /root/Bela/projects/board_6/BelaArduino.cpp:210:22
	mov	r1, r6
.Ltmp1031:
	.loc	26 185 51               @ /root/Bela/projects/board_6/BelaMsg.h:185:51
	strb	r0, [r6, #36]
.Ltmp1032:
	.loc	17 210 22 discriminator 1 @ /root/Bela/projects/board_6/BelaArduino.cpp:210:22
	mov	r0, r7
	mov	r2, r8
.Ltmp1033:
	@DEBUG_VALUE: vector:this <- %R1
	@DEBUG_VALUE: vector:this <- %R6
	@DEBUG_VALUE: BelaMsgParser:pipe <- %R5
	@DEBUG_VALUE: BelaMsgParser:pipe <- %R5
	@DEBUG_VALUE: Pipe:this <- %R5
	@DEBUG_VALUE: BelaMsgParser:this <- %R6
	@DEBUG_VALUE: BelaMsgParser:this <- %R6
	@DEBUG_VALUE: assign:__c1 <- %R0
	@DEBUG_VALUE: __len <- 1000
	@DEBUG_VALUE: __fill_n_a<unsigned int, unsigned char>:__n <- 1000
	@DEBUG_VALUE: fill_n<unsigned char *, unsigned int, unsigned char>:__n <- 1000
	@DEBUG_VALUE: __uninit_default_n<unsigned char *, unsigned int>:__n <- 1000
	@DEBUG_VALUE: __uninitialized_default_n<unsigned char *, unsigned int>:__assignable <- 1
	@DEBUG_VALUE: __uninitialized_default_n<unsigned char *, unsigned int>:__n <- 1000
	@DEBUG_VALUE: __uninitialized_default_n_a<unsigned char *, unsigned int, unsigned char>:__n <- 1000
	@DEBUG_VALUE: _M_default_initialize:__n <- 1000
	@DEBUG_VALUE: allocate:__n <- 1000
	@DEBUG_VALUE: allocate:__n <- 1000
	@DEBUG_VALUE: _M_allocate:__n <- 1000
	@DEBUG_VALUE: _M_create_storage:__n <- 1000
	@DEBUG_VALUE: _Vector_base:__n <- 1000
	@DEBUG_VALUE: vector:__n <- 1000
	@DEBUG_VALUE: BelaMsgParser:rt [bit_piece offset=0 size=1] <- -1
	@DEBUG_VALUE: __len <- 1000
	@DEBUG_VALUE: __fill_n_a<unsigned int, unsigned char>:__n <- 1000
	@DEBUG_VALUE: fill_n<unsigned char *, unsigned int, unsigned char>:__n <- 1000
	@DEBUG_VALUE: __uninit_default_n<unsigned char *, unsigned int>:__n <- 1000
	@DEBUG_VALUE: __uninitialized_default_n<unsigned char *, unsigned int>:__assignable <- 1
	@DEBUG_VALUE: __uninitialized_default_n<unsigned char *, unsigned int>:__n <- 1000
	@DEBUG_VALUE: __uninitialized_default_n_a<unsigned char *, unsigned int, unsigned char>:__n <- 1000
	@DEBUG_VALUE: _M_default_initialize:__n <- 1000
	@DEBUG_VALUE: allocate:__n <- 1000
	@DEBUG_VALUE: allocate:__n <- 1000
	@DEBUG_VALUE: _M_allocate:__n <- 1000
	@DEBUG_VALUE: _M_create_storage:__n <- 1000
	vpop	{d8, d9}
	pop	{r4, r5, r6, r7, r8, r10, r11, lr}
.Ltmp1034:
	b	__cxa_atexit
.Ltmp1035:
.LBB21_2:
	@DEBUG_VALUE: ShiftRegisterOut:this <- %R6
.Ltmp933:
	mov	r4, r0
.Ltmp1036:
	.loc	11 497 23               @ /usr/bin/../lib/gcc/arm-linux-gnueabihf/6.3.0/../../../../include/c++/6.3.0/bits/stl_bvector.h:497:23
	ldr	r0, [r5, #12]
.Ltmp1037:
	.loc	11 497 6 is_stmt 0      @ /usr/bin/../lib/gcc/arm-linux-gnueabihf/6.3.0/../../../../include/c++/6.3.0/bits/stl_bvector.h:497:6
	cmp	r0, #0
	beq	.LBB21_4
.Ltmp1038:
@ BB#3:
	@DEBUG_VALUE: ShiftRegisterOut:this <- %R6
	@DEBUG_VALUE: deallocate:__p <- %R0
	@DEBUG_VALUE: deallocate:__p <- %R0
	.loc	7 110 9 is_stmt 1       @ /usr/bin/../lib/gcc/arm-linux-gnueabihf/6.3.0/../../../../include/c++/6.3.0/ext/new_allocator.h:110:9
	bl	_ZdlPv
.Ltmp1039:
.LBB21_4:                               @ %.body.i
	@DEBUG_VALUE: ShiftRegisterOut:this <- %R6
	mov	r0, r4
	mov	lr, pc
	b	_Unwind_Resume
.Lfunc_end21:
	.size	_GLOBAL__sub_I_BelaArduino.ii, .Lfunc_end21-_GLOBAL__sub_I_BelaArduino.ii
	.cfi_endproc
	.globl	__gxx_personality_v0
	.personality __gxx_personality_v0
	.handlerdata
	.p2align	2
GCC_except_table21:
.Lexception2:
	.byte	255                     @ @LPStart Encoding = omit
	.byte	0                       @ @TType Encoding = absptr
	.byte	41                      @ @TType base offset
	.byte	3                       @ Call site Encoding = udata4
	.byte	39                      @ Call site table length
	.long	.Lfunc_begin21-.Lfunc_begin21 @ >> Call Site 1 <<
	.long	.Ltmp931-.Lfunc_begin21 @   Call between .Lfunc_begin21 and .Ltmp931
	.long	0                       @     has no landing pad
	.byte	0                       @   On action: cleanup
	.long	.Ltmp931-.Lfunc_begin21 @ >> Call Site 2 <<
	.long	.Ltmp932-.Ltmp931       @   Call between .Ltmp931 and .Ltmp932
	.long	.Ltmp933-.Lfunc_begin21 @     jumps to .Ltmp933
	.byte	0                       @   On action: cleanup
	.long	.Ltmp932-.Lfunc_begin21 @ >> Call Site 3 <<
	.long	.Lfunc_end21-.Ltmp932   @   Call between .Ltmp932 and .Lfunc_end21
	.long	0                       @     has no landing pad
	.byte	0                       @   On action: cleanup
	.p2align	2
	.fnend

	.type	belaArduinoPipe,%object @ @belaArduinoPipe
	.bss
	.globl	belaArduinoPipe
	.p2align	3
belaArduinoPipe:
	.zero	88
	.size	belaArduinoPipe, 88

	.type	_ZL11nonRtParser,%object @ @_ZL11nonRtParser
	.local	_ZL11nonRtParser
	.comm	_ZL11nonRtParser,40,4
	.type	_ZL8rtParser,%object    @ @_ZL8rtParser
	.local	_ZL8rtParser
	.comm	_ZL8rtParser,40,4
	.type	.L.str.10,%object       @ @.str.10
	.section	.rodata.str1.1,"aMS",%progbits,1
.L.str.10:
	.asciz	"Error: analog, audio and digital must have the same sampling rate\n"
	.size	.L.str.10, 67

	.type	.L.str.11,%object       @ @.str.11
.L.str.11:
	.asciz	"Error: buffers most be non-interleaved\n"
	.size	.L.str.11, 40

	.type	.L.str.12,%object       @ @.str.12
	.section	.rodata.str1.8,"aMS",%progbits,1
	.p2align	3
.L.str.12:
	.asciz	"BelaArduino"
	.size	.L.str.12, 12

	.type	.L.str.13,%object       @ @.str.13
	.section	.rodata.str1.1,"aMS",%progbits,1
.L.str.13:
	.asciz	"ArduinoLoop"
	.size	.L.str.13, 12

	.type	_ZTV13ShiftRegister,%object @ @_ZTV13ShiftRegister
	.section	.rodata._ZTV13ShiftRegister,"aG",%progbits,_ZTV13ShiftRegister,comdat
	.weak	_ZTV13ShiftRegister
	.p2align	2
_ZTV13ShiftRegister:
	.long	0
	.long	_ZTI13ShiftRegister
	.long	__cxa_pure_virtual
	.size	_ZTV13ShiftRegister, 12

	.type	_ZTS13ShiftRegister,%object @ @_ZTS13ShiftRegister
	.section	.rodata._ZTS13ShiftRegister,"aG",%progbits,_ZTS13ShiftRegister,comdat
	.weak	_ZTS13ShiftRegister
_ZTS13ShiftRegister:
	.asciz	"13ShiftRegister"
	.size	_ZTS13ShiftRegister, 16

	.type	_ZTI13ShiftRegister,%object @ @_ZTI13ShiftRegister
	.section	.rodata._ZTI13ShiftRegister,"aG",%progbits,_ZTI13ShiftRegister,comdat
	.weak	_ZTI13ShiftRegister
	.p2align	2
_ZTI13ShiftRegister:
	.long	_ZTVN10__cxxabiv117__class_type_infoE+8
	.long	_ZTS13ShiftRegister
	.size	_ZTI13ShiftRegister, 8

	.type	.L.str.14,%object       @ @.str.14
	.section	.rodata.str1.1,"aMS",%progbits,1
.L.str.14:
	.asciz	"vector::_M_default_append"
	.size	.L.str.14, 26

	.type	.L.str.17,%object       @ @.str.17
.L.str.17:
	.asciz	"Malformed message\n"
	.size	.L.str.17, 19

	.type	.L.str.18,%object       @ @.str.18
.L.str.18:
	.asciz	"vector<bool>::_M_fill_insert"
	.size	.L.str.18, 29

	.section	.init_array,"aw",%init_array
	.p2align	2
	.long	_GLOBAL__sub_I_BelaArduino.ii(target1)
	.type	.L_MergedGlobals,%object @ @_MergedGlobals
	.local	.L_MergedGlobals
	.comm	.L_MergedGlobals,36,16
	.type	.L_MergedGlobals.4,%object @ @_MergedGlobals.4
	.local	.L_MergedGlobals.4
	.comm	.L_MergedGlobals.4,88,16