	.text
	.syntax unified
	.eabi_attribute	67, "2.09"	@ Tag_conformance
	.cpu	cortex-a8
	.eabi_attribute	6, 10	@ Tag_CPU_arch
	.eabi_attribute	7, 65	@ Tag_CPU_arch_profile
	.eabi_attribute	8, 1	@ Tag_ARM_ISA_use
	.eabi_attribute	9, 2	@ Tag_THUMB_ISA_use
	.fpu	neon
	.eabi_attribute	17, 1	@ Tag_ABI_PCS_GOT_use
	.eabi_attribute	20, 2	@ Tag_ABI_FP_denormal
	.eabi_attribute	23, 1	@ Tag_ABI_FP_number_model
	.eabi_attribute	34, 1	@ Tag_CPU_unaligned_access
	.eabi_attribute	24, 1	@ Tag_ABI_align_needed
	.eabi_attribute	25, 1	@ Tag_ABI_align_preserved
	.eabi_attribute	28, 1	@ Tag_ABI_VFP_args
	.eabi_attribute	38, 1	@ Tag_ABI_FP_16bit_format
	.eabi_attribute	18, 4	@ Tag_ABI_PCS_wchar_t
	.eabi_attribute	26, 2	@ Tag_ABI_enum_size
	.eabi_attribute	14, 0	@ Tag_ABI_PCS_R9_use
	.eabi_attribute	68, 1	@ Tag_Virtualization_use
	.file	"/root/Bela/projects/board_6/build/BelaMsg.bc"
	.file	1 "/usr/bin/../lib/gcc/arm-linux-gnueabihf/6.3.0/../../../../include/arm-linux-gnueabihf/c++/6.3.0/bits" "c++config.h"
	.file	2 "/usr/bin/../lib/gcc/arm-linux-gnueabihf/6.3.0/../../../../include/c++/6.3.0" "array"
	.file	3 "/usr/bin/../lib/gcc/arm-linux-gnueabihf/6.3.0/../../../../include/c++/6.3.0/bits" "alloc_traits.h"
	.file	4 "/usr/bin/../lib/gcc/arm-linux-gnueabihf/6.3.0/../../../../include/c++/6.3.0/ext" "new_allocator.h"
	.file	5 "/usr/bin/../lib/gcc/arm-linux-gnueabihf/6.3.0/../../../../include/arm-linux-gnueabihf/c++/6.3.0/bits" "c++allocator.h"
	.file	6 "/usr/bin/../lib/gcc/arm-linux-gnueabihf/6.3.0/../../../../include/c++/6.3.0/bits" "allocator.h"
	.file	7 "/usr/bin/../lib/gcc/arm-linux-gnueabihf/6.3.0/../../../../include/c++/6.3.0/ext" "alloc_traits.h"
	.file	8 "/usr/bin/../lib/gcc/arm-linux-gnueabihf/6.3.0/../../../../include/c++/6.3.0/bits" "stl_vector.h"
	.file	9 "/usr/bin/../lib/gcc/arm-linux-gnueabihf/6.3.0/../../../../include/c++/6.3.0" "type_traits"
	.file	10 "/root/Bela/projects/board_6" "BelaMsg.cpp"
	.file	11 "/usr/lib/llvm-3.9/bin/../lib/clang/3.9.1/include" "stddef.h"
	.file	12 "/root/Bela/projects/board_6" "BelaMsg.h"
	.file	13 "/usr/bin/../lib/gcc/arm-linux-gnueabihf/6.3.0/../../../../include/c++/6.3.0/bits" "cpp_type_traits.h"
	.file	14 "/usr/include" "stdint.h"
	.file	15 "/usr/bin/../lib/gcc/arm-linux-gnueabihf/6.3.0/../../../../include/c++/6.3.0/bits" "stl_iterator.h"
	.file	16 "/usr/bin/../lib/gcc/arm-linux-gnueabihf/6.3.0/../../../../include/c++/6.3.0/bits" "stl_iterator_base_types.h"
	.file	17 "/usr/bin/../lib/gcc/arm-linux-gnueabihf/6.3.0/../../../../include/c++/6.3.0/debug" "debug.h"
	.file	18 "/usr/bin/../lib/gcc/arm-linux-gnueabihf/6.3.0/../../../../include/c++/6.3.0/bits" "exception_ptr.h"
	.file	19 "/usr/include" "wchar.h"
	.file	20 "/usr/include" "libio.h"
	.file	21 "/usr/include/arm-linux-gnueabihf/bits" "types.h"
	.file	22 "/usr/include" "stdio.h"
	.file	23 "/usr/lib/llvm-3.9/bin/../lib/clang/3.9.1/include" "stdarg.h"
	.file	24 "/usr/include" "locale.h"
	.file	25 "/usr/include" "ctype.h"
	.file	26 "/usr/include" "stdlib.h"
	.file	27 "/usr/include/arm-linux-gnueabihf/bits" "stdlib-float.h"
	.file	28 "/usr/include/arm-linux-gnueabihf/bits" "stdlib-bsearch.h"
	.file	29 "/usr/bin/../lib/gcc/arm-linux-gnueabihf/6.3.0/../../../../include/c++/6.3.0" "cstdlib"
	.file	30 "/usr/include" "_G_config.h"
	.file	31 "/usr/include/arm-linux-gnueabihf/bits" "stdio.h"
	.section	.text._ZNSt5arrayI5StateLj2EED2Ev,"axG",%progbits,_ZNSt5arrayI5StateLj2EED2Ev,comdat
	.weak	_ZNSt5arrayI5StateLj2EED2Ev
	.p2align	2
	.type	_ZNSt5arrayI5StateLj2EED2Ev,%function
_ZNSt5arrayI5StateLj2EED2Ev:            @ @_ZNSt5arrayI5StateLj2EED2Ev
.Lfunc_begin0:
	.loc	2 90 0                  @ /usr/bin/../lib/gcc/arm-linux-gnueabihf/6.3.0/../../../../include/c++/6.3.0/array:90:0
	.fnstart
	.cfi_startproc
@ BB#0:
	.save	{r4, r10, r11, lr}
	push	{r4, r10, r11, lr}
.Ltmp0:
	.cfi_def_cfa_offset 16
.Ltmp1:
	.cfi_offset lr, -4
.Ltmp2:
	.cfi_offset r11, -8
.Ltmp3:
	.cfi_offset r10, -12
.Ltmp4:
	.cfi_offset r4, -16
	.setfp	r11, sp, #8
	add	r11, sp, #8
.Ltmp5:
	.cfi_def_cfa r11, 8
	@DEBUG_VALUE: ~array:this <- %R0
	mov	r4, r0
.Ltmp6:
	@DEBUG_VALUE: ~array:this <- %R4
	.loc	8 160 37 prologue_end   @ /usr/bin/../lib/gcc/arm-linux-gnueabihf/6.3.0/../../../../include/c++/6.3.0/bits/stl_vector.h:160:37
	ldr	r0, [r4, #20]
.Ltmp7:
	@DEBUG_VALUE: _M_deallocate:__p <- %R0
	@DEBUG_VALUE: deallocate:__p <- %R0
	@DEBUG_VALUE: deallocate:__p <- %R0
	.loc	8 177 6                 @ /usr/bin/../lib/gcc/arm-linux-gnueabihf/6.3.0/../../../../include/c++/6.3.0/bits/stl_vector.h:177:6
	cmp	r0, #0
	beq	.LBB0_2
.Ltmp8:
@ BB#1:
	@DEBUG_VALUE: deallocate:__p <- %R0
	@DEBUG_VALUE: deallocate:__p <- %R0
	@DEBUG_VALUE: _M_deallocate:__p <- %R0
	@DEBUG_VALUE: ~array:this <- %R4
	.loc	4 110 9                 @ /usr/bin/../lib/gcc/arm-linux-gnueabihf/6.3.0/../../../../include/c++/6.3.0/ext/new_allocator.h:110:9
	bl	_ZdlPv
.Ltmp9:
.LBB0_2:                                @ %_ZN5StateD2Ev.exit
	@DEBUG_VALUE: ~array:this <- %R4
	.loc	8 160 37                @ /usr/bin/../lib/gcc/arm-linux-gnueabihf/6.3.0/../../../../include/c++/6.3.0/bits/stl_vector.h:160:37
	ldr	r0, [r4]
.Ltmp10:
	.loc	8 177 6                 @ /usr/bin/../lib/gcc/arm-linux-gnueabihf/6.3.0/../../../../include/c++/6.3.0/bits/stl_vector.h:177:6
	cmp	r0, #0
	beq	.LBB0_4
.Ltmp11:
@ BB#3:
	@DEBUG_VALUE: ~array:this <- %R4
	.loc	4 110 9                 @ /usr/bin/../lib/gcc/arm-linux-gnueabihf/6.3.0/../../../../include/c++/6.3.0/ext/new_allocator.h:110:9
	bl	_ZdlPv
.Ltmp12:
.LBB0_4:                                @ %_ZN5StateD2Ev.exit.1
	@DEBUG_VALUE: ~array:this <- %R4
	.loc	2 90 12 discriminator 2 @ /usr/bin/../lib/gcc/arm-linux-gnueabihf/6.3.0/../../../../include/c++/6.3.0/array:90:12
	mov	r0, r4
	pop	{r4, r10, r11, pc}
.Ltmp13:
.Lfunc_end0:
	.size	_ZNSt5arrayI5StateLj2EED2Ev, .Lfunc_end0-_ZNSt5arrayI5StateLj2EED2Ev
	.cfi_endproc
	.file	32 "<stdin>"
	.fnend

	.text
	.globl	_Z7msgInit16BelaSourceThread12BelaReceiverj
	.p2align	2
	.type	_Z7msgInit16BelaSourceThread12BelaReceiverj,%function
_Z7msgInit16BelaSourceThread12BelaReceiverj: @ @_Z7msgInit16BelaSourceThread12BelaReceiverj
.Lfunc_begin1:
	.loc	10 17 0                 @ /root/Bela/projects/board_6/BelaMsg.cpp:17:0
	.fnstart
	.cfi_startproc
@ BB#0:
	.save	{r4, r5, r6, r10, r11, lr}
	push	{r4, r5, r6, r10, r11, lr}
.Ltmp14:
	.cfi_def_cfa_offset 24
.Ltmp15:
	.cfi_offset lr, -4
.Ltmp16:
	.cfi_offset r11, -8
.Ltmp17:
	.cfi_offset r10, -12
.Ltmp18:
	.cfi_offset r6, -16
.Ltmp19:
	.cfi_offset r5, -20
.Ltmp20:
	.cfi_offset r4, -24
	.setfp	r11, sp, #16
	add	r11, sp, #16
.Ltmp21:
	.cfi_def_cfa r11, 8
	@DEBUG_VALUE: msgInit:thread <- %R0
	@DEBUG_VALUE: msgInit:rec <- %R1
	@DEBUG_VALUE: msgInit:count <- %R2
.Ltmp22:
	.loc	2 54 33 prologue_end    @ /usr/bin/../lib/gcc/arm-linux-gnueabihf/6.3.0/../../../../include/c++/6.3.0/array:54:33
	add	r0, r0, r0, lsl #2
.Ltmp23:
	mov	r5, r2
.Ltmp24:
	@DEBUG_VALUE: msgInit:count <- %R5
	movw	r2, :lower16:_ZL6states
	mov	r4, r1
.Ltmp25:
	@DEBUG_VALUE: _S_ref:__n <- %R0
	@DEBUG_VALUE: operator[]:__n <- %R0
	@DEBUG_VALUE: msgInit:rec <- %R4
	movt	r2, :upper16:_ZL6states
.Ltmp26:
	@DEBUG_VALUE: operator[]:this <- %R2
	add	r6, r2, r0, lsl #2
.Ltmp27:
	@DEBUG_VALUE: msgInit:s <- %R6
	.loc	10 19 23                @ /root/Bela/projects/board_6/BelaMsg.cpp:19:23
	add	r1, r5, #2
.Ltmp28:
	@DEBUG_VALUE: resize:__new_size <- %R1
	.loc	10 19 15 is_stmt 0      @ /root/Bela/projects/board_6/BelaMsg.cpp:19:15
	str	r1, [r6, #12]
.Ltmp29:
	.loc	8 656 66 is_stmt 1      @ /usr/bin/../lib/gcc/arm-linux-gnueabihf/6.3.0/../../../../include/c++/6.3.0/bits/stl_vector.h:656:66
	ldr	r0, [r2, r0, lsl #2]
.Ltmp30:
	.loc	8 656 40 is_stmt 0      @ /usr/bin/../lib/gcc/arm-linux-gnueabihf/6.3.0/../../../../include/c++/6.3.0/bits/stl_vector.h:656:40
	mov	r2, r6
.Ltmp31:
	ldr	r3, [r2, #4]!
	.loc	8 656 50                @ /usr/bin/../lib/gcc/arm-linux-gnueabihf/6.3.0/../../../../include/c++/6.3.0/bits/stl_vector.h:656:50
	sub	r3, r3, r0
.Ltmp32:
	.loc	8 676 6 is_stmt 1       @ /usr/bin/../lib/gcc/arm-linux-gnueabihf/6.3.0/../../../../include/c++/6.3.0/bits/stl_vector.h:676:6
	cmp	r1, r3
	bls	.LBB1_2
.Ltmp33:
@ BB#1:
	@DEBUG_VALUE: resize:__new_size <- %R1
	@DEBUG_VALUE: msgInit:s <- %R6
	@DEBUG_VALUE: msgInit:rec <- %R4
	@DEBUG_VALUE: msgInit:count <- %R5
	.loc	8 677 33                @ /usr/bin/../lib/gcc/arm-linux-gnueabihf/6.3.0/../../../../include/c++/6.3.0/bits/stl_vector.h:677:33
	sub	r1, r1, r3
.Ltmp34:
	@DEBUG_VALUE: resize:this <- %R6
	@DEBUG_VALUE: size:this <- %R6
	@DEBUG_VALUE: size:this <- %R6
	@DEBUG_VALUE: _M_erase_at_end:this <- %R6
	@DEBUG_VALUE: operator[]:this <- %R6
	@DEBUG_VALUE: operator[]:this <- %R6
	.loc	8 677 4 is_stmt 0 discriminator 1 @ /usr/bin/../lib/gcc/arm-linux-gnueabihf/6.3.0/../../../../include/c++/6.3.0/bits/stl_vector.h:677:4
	mov	r0, r6
	bl	_ZNSt6vectorIhSaIhEE17_M_default_appendEj
.Ltmp35:
	.loc	8 781 32 is_stmt 1      @ /usr/bin/../lib/gcc/arm-linux-gnueabihf/6.3.0/../../../../include/c++/6.3.0/bits/stl_vector.h:781:32
	ldr	r0, [r6]
	b	.LBB1_3
.Ltmp36:
.LBB1_2:
	@DEBUG_VALUE: resize:__new_size <- %R1
	@DEBUG_VALUE: msgInit:s <- %R6
	@DEBUG_VALUE: msgInit:rec <- %R4
	@DEBUG_VALUE: msgInit:count <- %R5
	.loc	8 679 43                @ /usr/bin/../lib/gcc/arm-linux-gnueabihf/6.3.0/../../../../include/c++/6.3.0/bits/stl_vector.h:679:43
	addlo	r1, r0, r1
.Ltmp37:
	@DEBUG_VALUE: _M_erase_at_end:__pos <- %R1
	.loc	8 1437 26               @ /usr/bin/../lib/gcc/arm-linux-gnueabihf/6.3.0/../../../../include/c++/6.3.0/bits/stl_vector.h:1437:26
	strlo	r1, [r2]
.Ltmp38:
.LBB1_3:                                @ %_ZNSt6vectorIhSaIhEE6resizeEj.exit
	@DEBUG_VALUE: msgInit:s <- %R6
	@DEBUG_VALUE: msgInit:rec <- %R4
	@DEBUG_VALUE: msgInit:count <- %R5
	@DEBUG_VALUE: operator[]:__n <- 0
	.loc	10 21 14                @ /root/Bela/projects/board_6/BelaMsg.cpp:21:14
	strb	r5, [r0]
.Ltmp39:
	@DEBUG_VALUE: operator[]:__n <- 1
	.loc	8 781 32                @ /usr/bin/../lib/gcc/arm-linux-gnueabihf/6.3.0/../../../../include/c++/6.3.0/bits/stl_vector.h:781:32
	ldr	r0, [r6]
.Ltmp40:
	.loc	10 22 14                @ /root/Bela/projects/board_6/BelaMsg.cpp:22:14
	strb	r4, [r0, #1]
	mov	r0, #2
	.loc	10 23 17                @ /root/Bela/projects/board_6/BelaMsg.cpp:23:17
	str	r0, [r6, #16]
	.loc	10 24 1                 @ /root/Bela/projects/board_6/BelaMsg.cpp:24:1
	pop	{r4, r5, r6, r10, r11, pc}
.Ltmp41:
.Lfunc_end1:
	.size	_Z7msgInit16BelaSourceThread12BelaReceiverj, .Lfunc_end1-_Z7msgInit16BelaSourceThread12BelaReceiverj
	.cfi_endproc
	.fnend

	.globl	_Z7msgPush16BelaSourceThreadcPKvj
	.p2align	2
	.type	_Z7msgPush16BelaSourceThreadcPKvj,%function
_Z7msgPush16BelaSourceThreadcPKvj:      @ @_Z7msgPush16BelaSourceThreadcPKvj
.Lfunc_begin2:
	.loc	10 27 0                 @ /root/Bela/projects/board_6/BelaMsg.cpp:27:0
	.fnstart
	.cfi_startproc
@ BB#0:
	.save	{r4, r5, r6, r7, r8, r10, r11, lr}
	push	{r4, r5, r6, r7, r8, r10, r11, lr}
.Ltmp42:
	.cfi_def_cfa_offset 32
.Ltmp43:
	.cfi_offset lr, -4
.Ltmp44:
	.cfi_offset r11, -8
.Ltmp45:
	.cfi_offset r10, -12
.Ltmp46:
	.cfi_offset r8, -16
.Ltmp47:
	.cfi_offset r7, -20
.Ltmp48:
	.cfi_offset r6, -24
.Ltmp49:
	.cfi_offset r5, -28
.Ltmp50:
	.cfi_offset r4, -32
	.setfp	r11, sp, #24
	add	r11, sp, #24
.Ltmp51:
	.cfi_def_cfa r11, 8
	@DEBUG_VALUE: msgPush:thread <- %R0
	@DEBUG_VALUE: msgPush:tag <- %R1
	@DEBUG_VALUE: msgPush:data <- %R2
	@DEBUG_VALUE: msgPush:size <- %R3
.Ltmp52:
	.loc	2 54 33 prologue_end    @ /usr/bin/../lib/gcc/arm-linux-gnueabihf/6.3.0/../../../../include/c++/6.3.0/array:54:33
	add	r0, r0, r0, lsl #2
.Ltmp53:
	mov	r8, r2
.Ltmp54:
	@DEBUG_VALUE: _S_ref:__n <- %R0
	@DEBUG_VALUE: operator[]:__n <- %R0
	@DEBUG_VALUE: msgPush:data <- %R8
	movw	r2, :lower16:_ZL6states
	mov	r4, r3
.Ltmp55:
	@DEBUG_VALUE: msgPush:size <- %R4
	movt	r2, :upper16:_ZL6states
.Ltmp56:
	@DEBUG_VALUE: operator[]:this <- %R2
	add	r6, r2, r0, lsl #2
.Ltmp57:
	@DEBUG_VALUE: msgPush:s <- %R6
	.loc	10 29 25                @ /root/Bela/projects/board_6/BelaMsg.cpp:29:25
	ldr	r3, [r6, #16]
.Ltmp58:
	@DEBUG_VALUE: operator[]:__n <- %R3
	add	r7, r3, #1
	str	r7, [r6, #16]
.Ltmp59:
	.loc	8 781 32                @ /usr/bin/../lib/gcc/arm-linux-gnueabihf/6.3.0/../../../../include/c++/6.3.0/bits/stl_vector.h:781:32
	ldr	r7, [r2, r0, lsl #2]
.Ltmp60:
	.loc	10 29 29                @ /root/Bela/projects/board_6/BelaMsg.cpp:29:29
	strb	r1, [r7, r3]
	.loc	10 30 20                @ /root/Bela/projects/board_6/BelaMsg.cpp:30:20
	mov	r7, r6
.Ltmp61:
	.loc	8 656 66                @ /usr/bin/../lib/gcc/arm-linux-gnueabihf/6.3.0/../../../../include/c++/6.3.0/bits/stl_vector.h:656:66
	ldr	r0, [r2, r0, lsl #2]
.Ltmp62:
	.loc	8 656 40 is_stmt 0      @ /usr/bin/../lib/gcc/arm-linux-gnueabihf/6.3.0/../../../../include/c++/6.3.0/bits/stl_vector.h:656:40
	mov	r2, r6
.Ltmp63:
	ldr	r3, [r2, #4]!
.Ltmp64:
	.loc	10 30 20 is_stmt 1      @ /root/Bela/projects/board_6/BelaMsg.cpp:30:20
	ldr	r1, [r7, #12]!
.Ltmp65:
	.loc	8 656 50                @ /usr/bin/../lib/gcc/arm-linux-gnueabihf/6.3.0/../../../../include/c++/6.3.0/bits/stl_vector.h:656:50
	sub	r5, r3, r0
.Ltmp66:
	.loc	10 30 31                @ /root/Bela/projects/board_6/BelaMsg.cpp:30:31
	add	r3, r1, r4
.Ltmp67:
	@DEBUG_VALUE: resize:__new_size <- %R3
	.loc	8 676 6                 @ /usr/bin/../lib/gcc/arm-linux-gnueabihf/6.3.0/../../../../include/c++/6.3.0/bits/stl_vector.h:676:6
	cmp	r3, r5
	bls	.LBB2_2
.Ltmp68:
@ BB#1:
	@DEBUG_VALUE: resize:__new_size <- %R3
	@DEBUG_VALUE: msgPush:s <- %R6
	@DEBUG_VALUE: msgPush:size <- %R4
	@DEBUG_VALUE: msgPush:data <- %R8
	.loc	8 677 33                @ /usr/bin/../lib/gcc/arm-linux-gnueabihf/6.3.0/../../../../include/c++/6.3.0/bits/stl_vector.h:677:33
	sub	r1, r3, r5
.Ltmp69:
	@DEBUG_VALUE: operator[]:this <- %R6
	@DEBUG_VALUE: resize:this <- %R6
	@DEBUG_VALUE: size:this <- %R6
	@DEBUG_VALUE: size:this <- %R6
	@DEBUG_VALUE: _M_erase_at_end:this <- %R6
	@DEBUG_VALUE: data:this <- %R6
	.loc	8 677 4 is_stmt 0 discriminator 1 @ /usr/bin/../lib/gcc/arm-linux-gnueabihf/6.3.0/../../../../include/c++/6.3.0/bits/stl_vector.h:677:4
	mov	r0, r6
	bl	_ZNSt6vectorIhSaIhEE17_M_default_appendEj
.Ltmp70:
	.loc	10 31 29 is_stmt 1      @ /root/Bela/projects/board_6/BelaMsg.cpp:31:29
	ldr	r1, [r7]
.Ltmp71:
	.loc	8 892 42                @ /usr/bin/../lib/gcc/arm-linux-gnueabihf/6.3.0/../../../../include/c++/6.3.0/bits/stl_vector.h:892:42
	ldr	r0, [r6]
	b	.LBB2_3
.Ltmp72:
.LBB2_2:
	@DEBUG_VALUE: resize:__new_size <- %R3
	@DEBUG_VALUE: msgPush:s <- %R6
	@DEBUG_VALUE: msgPush:size <- %R4
	@DEBUG_VALUE: msgPush:data <- %R8
	.loc	8 679 43                @ /usr/bin/../lib/gcc/arm-linux-gnueabihf/6.3.0/../../../../include/c++/6.3.0/bits/stl_vector.h:679:43
	addlo	r3, r0, r3
.Ltmp73:
	@DEBUG_VALUE: _M_erase_at_end:__pos <- %R3
	.loc	8 1437 26               @ /usr/bin/../lib/gcc/arm-linux-gnueabihf/6.3.0/../../../../include/c++/6.3.0/bits/stl_vector.h:1437:26
	strlo	r3, [r2]
.Ltmp74:
.LBB2_3:                                @ %_ZNSt6vectorIhSaIhEE6resizeEj.exit
	@DEBUG_VALUE: msgPush:s <- %R6
	@DEBUG_VALUE: msgPush:size <- %R4
	@DEBUG_VALUE: msgPush:data <- %R8
	.loc	10 31 25                @ /root/Bela/projects/board_6/BelaMsg.cpp:31:25
	add	r0, r0, r1
	.loc	10 31 2 is_stmt 0 discriminator 1 @ /root/Bela/projects/board_6/BelaMsg.cpp:31:2
	mov	r1, r8
	mov	r2, r4
	bl	memcpy
	.loc	10 32 15 is_stmt 1      @ /root/Bela/projects/board_6/BelaMsg.cpp:32:15
	ldr	r0, [r7]
	add	r0, r0, r4
	str	r0, [r7]
	.loc	10 33 1                 @ /root/Bela/projects/board_6/BelaMsg.cpp:33:1
	pop	{r4, r5, r6, r7, r8, r10, r11, pc}
.Ltmp75:
.Lfunc_end2:
	.size	_Z7msgPush16BelaSourceThreadcPKvj, .Lfunc_end2-_Z7msgPush16BelaSourceThreadcPKvj
	.cfi_endproc
	.fnend

	.globl	_Z8msgAddFS16BelaSourceThreadPKc
	.p2align	2
	.type	_Z8msgAddFS16BelaSourceThreadPKc,%function
_Z8msgAddFS16BelaSourceThreadPKc:       @ @_Z8msgAddFS16BelaSourceThreadPKc
.Lfunc_begin3:
	.loc	10 36 0                 @ /root/Bela/projects/board_6/BelaMsg.cpp:36:0
	.fnstart
	.cfi_startproc
@ BB#0:
	.save	{r4, r5, r6, r7, r8, r10, r11, lr}
	push	{r4, r5, r6, r7, r8, r10, r11, lr}
.Ltmp76:
	.cfi_def_cfa_offset 32
.Ltmp77:
	.cfi_offset lr, -4
.Ltmp78:
	.cfi_offset r11, -8
.Ltmp79:
	.cfi_offset r10, -12
.Ltmp80:
	.cfi_offset r8, -16
.Ltmp81:
	.cfi_offset r7, -20
.Ltmp82:
	.cfi_offset r6, -24
.Ltmp83:
	.cfi_offset r5, -28
.Ltmp84:
	.cfi_offset r4, -32
	.setfp	r11, sp, #24
	add	r11, sp, #24
.Ltmp85:
	.cfi_def_cfa r11, 8
	@DEBUG_VALUE: msgAddFS:thread <- %R0
	@DEBUG_VALUE: msgAddFS:value <- %R1
	mov	r8, r1
.Ltmp86:
	@DEBUG_VALUE: _S_ref:__n <- %R0
	@DEBUG_VALUE: operator[]:__n <- %R0
	@DEBUG_VALUE: msgAddFS:value <- %R8
	.loc	2 54 33 prologue_end    @ /usr/bin/../lib/gcc/arm-linux-gnueabihf/6.3.0/../../../../include/c++/6.3.0/array:54:33
	add	r4, r0, r0, lsl #2
	movw	r5, :lower16:_ZL6states
.Ltmp87:
	.loc	10 37 30                @ /root/Bela/projects/board_6/BelaMsg.cpp:37:30
	mov	r0, r8
.Ltmp88:
	.loc	2 54 33                 @ /usr/bin/../lib/gcc/arm-linux-gnueabihf/6.3.0/../../../../include/c++/6.3.0/array:54:33
	movt	r5, :upper16:_ZL6states
.Ltmp89:
	@DEBUG_VALUE: operator[]:this <- %R5
	@DEBUG_VALUE: msgPush:size <- %R5
	add	r6, r5, r4, lsl #2
.Ltmp90:
	@DEBUG_VALUE: msgPush:s <- %R6
	@DEBUG_VALUE: msgPush:data <- %R8
	@DEBUG_VALUE: msgPush:tag <- 115
	@DEBUG_VALUE: msgPush:thread <- %R0
	.loc	10 37 30                @ /root/Bela/projects/board_6/BelaMsg.cpp:37:30
	bl	strlen
.Ltmp91:
	.loc	10 29 25                @ /root/Bela/projects/board_6/BelaMsg.cpp:29:25
	ldr	r1, [r6, #16]
.Ltmp92:
	@DEBUG_VALUE: operator[]:__n <- %R1
	.loc	10 29 29 is_stmt 0      @ /root/Bela/projects/board_6/BelaMsg.cpp:29:29
	mov	r3, #115
	.loc	10 30 20 is_stmt 1      @ /root/Bela/projects/board_6/BelaMsg.cpp:30:20
	mov	r7, r6
	.loc	10 29 25                @ /root/Bela/projects/board_6/BelaMsg.cpp:29:25
	add	r2, r1, #1
	str	r2, [r6, #16]
.Ltmp93:
	.loc	8 781 32                @ /usr/bin/../lib/gcc/arm-linux-gnueabihf/6.3.0/../../../../include/c++/6.3.0/bits/stl_vector.h:781:32
	ldr	r2, [r5, r4, lsl #2]
.Ltmp94:
	.loc	10 29 29                @ /root/Bela/projects/board_6/BelaMsg.cpp:29:29
	strb	r3, [r2, r1]
.Ltmp95:
	.loc	8 656 40                @ /usr/bin/../lib/gcc/arm-linux-gnueabihf/6.3.0/../../../../include/c++/6.3.0/bits/stl_vector.h:656:40
	mov	r3, r6
	.loc	8 656 66 is_stmt 0      @ /usr/bin/../lib/gcc/arm-linux-gnueabihf/6.3.0/../../../../include/c++/6.3.0/bits/stl_vector.h:656:66
	ldr	r1, [r5, r4, lsl #2]
.Ltmp96:
	.loc	8 656 40                @ /usr/bin/../lib/gcc/arm-linux-gnueabihf/6.3.0/../../../../include/c++/6.3.0/bits/stl_vector.h:656:40
	ldr	r5, [r3, #4]!
.Ltmp97:
	.loc	10 30 20 is_stmt 1      @ /root/Bela/projects/board_6/BelaMsg.cpp:30:20
	ldr	r2, [r7, #12]!
.Ltmp98:
	.loc	8 656 50                @ /usr/bin/../lib/gcc/arm-linux-gnueabihf/6.3.0/../../../../include/c++/6.3.0/bits/stl_vector.h:656:50
	sub	r4, r5, r1
.Ltmp99:
	.loc	10 37 44                @ /root/Bela/projects/board_6/BelaMsg.cpp:37:44
	add	r5, r0, #1
.Ltmp100:
	.loc	10 30 31                @ /root/Bela/projects/board_6/BelaMsg.cpp:30:31
	add	r0, r2, r5
.Ltmp101:
	@DEBUG_VALUE: resize:__new_size <- %R0
	.loc	8 676 6                 @ /usr/bin/../lib/gcc/arm-linux-gnueabihf/6.3.0/../../../../include/c++/6.3.0/bits/stl_vector.h:676:6
	cmp	r0, r4
	bls	.LBB3_2
.Ltmp102:
@ BB#1:
	@DEBUG_VALUE: resize:__new_size <- %R0
	@DEBUG_VALUE: msgPush:data <- %R8
	@DEBUG_VALUE: msgPush:s <- %R6
	@DEBUG_VALUE: msgAddFS:value <- %R8
	.loc	8 677 33                @ /usr/bin/../lib/gcc/arm-linux-gnueabihf/6.3.0/../../../../include/c++/6.3.0/bits/stl_vector.h:677:33
	sub	r1, r0, r4
	.loc	8 677 4 is_stmt 0 discriminator 1 @ /usr/bin/../lib/gcc/arm-linux-gnueabihf/6.3.0/../../../../include/c++/6.3.0/bits/stl_vector.h:677:4
	mov	r0, r6
.Ltmp103:
	bl	_ZNSt6vectorIhSaIhEE17_M_default_appendEj
.Ltmp104:
	.loc	10 31 29 is_stmt 1      @ /root/Bela/projects/board_6/BelaMsg.cpp:31:29
	ldr	r2, [r7]
.Ltmp105:
	.loc	8 892 42                @ /usr/bin/../lib/gcc/arm-linux-gnueabihf/6.3.0/../../../../include/c++/6.3.0/bits/stl_vector.h:892:42
	ldr	r1, [r6]
	b	.LBB3_3
.Ltmp106:
.LBB3_2:
	@DEBUG_VALUE: resize:__new_size <- %R0
	@DEBUG_VALUE: msgPush:data <- %R8
	@DEBUG_VALUE: msgPush:s <- %R6
	@DEBUG_VALUE: msgAddFS:value <- %R8
	.loc	8 679 43                @ /usr/bin/../lib/gcc/arm-linux-gnueabihf/6.3.0/../../../../include/c++/6.3.0/bits/stl_vector.h:679:43
	addlo	r0, r1, r0
.Ltmp107:
	@DEBUG_VALUE: _M_erase_at_end:__pos <- %R0
	.loc	8 1437 26               @ /usr/bin/../lib/gcc/arm-linux-gnueabihf/6.3.0/../../../../include/c++/6.3.0/bits/stl_vector.h:1437:26
	strlo	r0, [r3]
.Ltmp108:
.LBB3_3:                                @ %_Z7msgPush16BelaSourceThreadcPKvj.exit
	@DEBUG_VALUE: msgPush:data <- %R8
	@DEBUG_VALUE: msgPush:s <- %R6
	@DEBUG_VALUE: msgAddFS:value <- %R8
	.loc	10 31 25                @ /root/Bela/projects/board_6/BelaMsg.cpp:31:25
	add	r0, r1, r2
	.loc	10 31 2 is_stmt 0 discriminator 1 @ /root/Bela/projects/board_6/BelaMsg.cpp:31:2
	mov	r1, r8
	mov	r2, r5
	bl	memcpy
	.loc	10 32 15 is_stmt 1      @ /root/Bela/projects/board_6/BelaMsg.cpp:32:15
	ldr	r0, [r7]
	add	r0, r0, r5
	str	r0, [r7]
.Ltmp109:
	.loc	10 38 1                 @ /root/Bela/projects/board_6/BelaMsg.cpp:38:1
	pop	{r4, r5, r6, r7, r8, r10, r11, pc}
.Ltmp110:
.Lfunc_end3:
	.size	_Z8msgAddFS16BelaSourceThreadPKc, .Lfunc_end3-_Z8msgAddFS16BelaSourceThreadPKc
	.cfi_endproc
	.fnend

	.globl	_Z7msgSend16BelaSourceThread
	.p2align	2
	.type	_Z7msgSend16BelaSourceThread,%function
_Z7msgSend16BelaSourceThread:           @ @_Z7msgSend16BelaSourceThread
.Lfunc_begin4:
	.loc	10 41 0                 @ /root/Bela/projects/board_6/BelaMsg.cpp:41:0
	.fnstart
	.cfi_startproc
@ BB#0:
	.save	{r4, r5, r6, r7, r8, r10, r11, lr}
	push	{r4, r5, r6, r7, r8, r10, r11, lr}
.Ltmp111:
	.cfi_def_cfa_offset 32
.Ltmp112:
	.cfi_offset lr, -4
.Ltmp113:
	.cfi_offset r11, -8
.Ltmp114:
	.cfi_offset r10, -12
.Ltmp115:
	.cfi_offset r8, -16
.Ltmp116:
	.cfi_offset r7, -20
.Ltmp117:
	.cfi_offset r6, -24
.Ltmp118:
	.cfi_offset r5, -28
.Ltmp119:
	.cfi_offset r4, -32
	.setfp	r11, sp, #24
	add	r11, sp, #24
.Ltmp120:
	.cfi_def_cfa r11, 8
	.pad	#8
	sub	sp, sp, #8
	@DEBUG_VALUE: msgSend:thread <- %R0
	mov	r4, r0
.Ltmp121:
	@DEBUG_VALUE: msgSend:thread <- %R4
	.loc	10 43 7 prologue_end    @ /root/Bela/projects/board_6/BelaMsg.cpp:43:7
	movw	r7, :lower16:_ZL6states
	add	r0, r4, r4, lsl #2
	movt	r7, :upper16:_ZL6states
.Ltmp122:
	.loc	8 656 66                @ /usr/bin/../lib/gcc/arm-linux-gnueabihf/6.3.0/../../../../include/c++/6.3.0/bits/stl_vector.h:656:66
	ldr	r0, [r7, r0, lsl #2]!
	.loc	8 656 40 is_stmt 0      @ /usr/bin/../lib/gcc/arm-linux-gnueabihf/6.3.0/../../../../include/c++/6.3.0/bits/stl_vector.h:656:40
	mov	r5, r7
	ldr	r1, [r5, #4]!
.Ltmp123:
	.loc	10 43 7 is_stmt 1       @ /root/Bela/projects/board_6/BelaMsg.cpp:43:7
	ldr	r2, [r7, #12]
.Ltmp124:
	@DEBUG_VALUE: size:this <- %R7
	@DEBUG_VALUE: size:this <- %R7
	@DEBUG_VALUE: size:this <- %R7
	@DEBUG_VALUE: data:this <- %R7
	@DEBUG_VALUE: size:this <- %R7
	@DEBUG_VALUE: size:this <- %R7
	@DEBUG_VALUE: data:this <- %R7
	@DEBUG_VALUE: size:this <- %R7
	.loc	8 656 50                @ /usr/bin/../lib/gcc/arm-linux-gnueabihf/6.3.0/../../../../include/c++/6.3.0/bits/stl_vector.h:656:50
	sub	r3, r1, r0
.Ltmp125:
	.loc	10 43 5                 @ /root/Bela/projects/board_6/BelaMsg.cpp:43:5
	cmp	r2, r3
	bne	.LBB4_9
.Ltmp126:
.LBB4_1:
	@DEBUG_VALUE: size:this <- %R7
	@DEBUG_VALUE: data:this <- %R7
	@DEBUG_VALUE: size:this <- %R7
	@DEBUG_VALUE: size:this <- %R7
	@DEBUG_VALUE: data:this <- %R7
	@DEBUG_VALUE: size:this <- %R7
	@DEBUG_VALUE: size:this <- %R7
	@DEBUG_VALUE: size:this <- %R7
	@DEBUG_VALUE: msgSend:thread <- %R4
	.loc	10 50 2                 @ /root/Bela/projects/board_6/BelaMsg.cpp:50:2
	cmp	r4, #0
.Ltmp127:
	@DEBUG_VALUE: msgSend:rt <- 0
	@DEBUG_VALUE: msgSend:error <- 0
	beq	.LBB4_4
.Ltmp128:
@ BB#2:
	@DEBUG_VALUE: size:this <- %R7
	@DEBUG_VALUE: data:this <- %R7
	@DEBUG_VALUE: size:this <- %R7
	@DEBUG_VALUE: size:this <- %R7
	@DEBUG_VALUE: data:this <- %R7
	@DEBUG_VALUE: size:this <- %R7
	@DEBUG_VALUE: size:this <- %R7
	@DEBUG_VALUE: size:this <- %R7
	@DEBUG_VALUE: msgSend:thread <- %R4
	cmp	r4, #1
	bne	.LBB4_8
.Ltmp129:
@ BB#3:
	@DEBUG_VALUE: size:this <- %R7
	@DEBUG_VALUE: data:this <- %R7
	@DEBUG_VALUE: size:this <- %R7
	@DEBUG_VALUE: size:this <- %R7
	@DEBUG_VALUE: data:this <- %R7
	@DEBUG_VALUE: size:this <- %R7
	@DEBUG_VALUE: size:this <- %R7
	@DEBUG_VALUE: size:this <- %R7
	@DEBUG_VALUE: msgSend:thread <- %R4
	.loc	8 656 66                @ /usr/bin/../lib/gcc/arm-linux-gnueabihf/6.3.0/../../../../include/c++/6.3.0/bits/stl_vector.h:656:66
	ldr	r0, [r7]
.Ltmp130:
	.file	33 "./libraries/Pipe" "Pipe.h"
	.loc	33 113 9                @ ./libraries/Pipe/Pipe.h:113:9
	movw	r8, :lower16:belaArduinoPipe
.Ltmp131:
	.loc	8 656 40                @ /usr/bin/../lib/gcc/arm-linux-gnueabihf/6.3.0/../../../../include/c++/6.3.0/bits/stl_vector.h:656:40
	ldr	r1, [r5]
.Ltmp132:
	.loc	33 113 9                @ ./libraries/Pipe/Pipe.h:113:9
	movt	r8, :upper16:belaArduinoPipe
.Ltmp133:
	@DEBUG_VALUE: msgSend:pipe <- %R8
	@DEBUG_VALUE: msgSend:rt <- 1
	mov	r2, #4
.Ltmp134:
	.loc	8 656 50                @ /usr/bin/../lib/gcc/arm-linux-gnueabihf/6.3.0/../../../../include/c++/6.3.0/bits/stl_vector.h:656:50
	sub	r0, r1, r0
	add	r1, sp, #4
.Ltmp135:
	@DEBUG_VALUE: writeRt<const unsigned int>:ptr <- %R1
	@DEBUG_VALUE: writeRt<unsigned int>:data <- %R1
	.loc	10 68 27                @ /root/Bela/projects/board_6/BelaMsg.cpp:68:27
	str	r0, [sp, #4]
.Ltmp136:
	@DEBUG_VALUE: writeRt<const unsigned int>:size <- 4
	@DEBUG_VALUE: writeRt<const unsigned int>:count <- 1
	.loc	33 113 9                @ ./libraries/Pipe/Pipe.h:113:9
	mov	r0, r8
	bl	_ZN4Pipe8_writeRtEPvj
.Ltmp137:
	mov	r6, r0
.Ltmp138:
	.loc	8 892 42                @ /usr/bin/../lib/gcc/arm-linux-gnueabihf/6.3.0/../../../../include/c++/6.3.0/bits/stl_vector.h:892:42
	ldr	r1, [r7]
.Ltmp139:
	@DEBUG_VALUE: writeRt<unsigned char>:ptr <- %R1
	.loc	8 656 40                @ /usr/bin/../lib/gcc/arm-linux-gnueabihf/6.3.0/../../../../include/c++/6.3.0/bits/stl_vector.h:656:40
	ldr	r0, [r5]
	.loc	8 656 50 is_stmt 0      @ /usr/bin/../lib/gcc/arm-linux-gnueabihf/6.3.0/../../../../include/c++/6.3.0/bits/stl_vector.h:656:50
	sub	r2, r0, r1
.Ltmp140:
	@DEBUG_VALUE: writeRt<unsigned char>:size <- %R2
	@DEBUG_VALUE: writeRt<unsigned char>:count <- %R2
	.loc	33 113 9 is_stmt 1      @ ./libraries/Pipe/Pipe.h:113:9
	mov	r0, r8
	bl	_ZN4Pipe8_writeRtEPvj
.Ltmp141:
	b	.LBB4_5
.Ltmp142:
.LBB4_4:
	@DEBUG_VALUE: size:this <- %R7
	@DEBUG_VALUE: data:this <- %R7
	@DEBUG_VALUE: size:this <- %R7
	@DEBUG_VALUE: size:this <- %R7
	@DEBUG_VALUE: data:this <- %R7
	@DEBUG_VALUE: size:this <- %R7
	@DEBUG_VALUE: size:this <- %R7
	@DEBUG_VALUE: size:this <- %R7
	@DEBUG_VALUE: msgSend:thread <- %R4
	.loc	8 656 66                @ /usr/bin/../lib/gcc/arm-linux-gnueabihf/6.3.0/../../../../include/c++/6.3.0/bits/stl_vector.h:656:66
	ldr	r0, [r7]
.Ltmp143:
	.loc	33 102 9                @ ./libraries/Pipe/Pipe.h:102:9
	movw	r8, :lower16:belaArduinoPipe
.Ltmp144:
	.loc	8 656 40                @ /usr/bin/../lib/gcc/arm-linux-gnueabihf/6.3.0/../../../../include/c++/6.3.0/bits/stl_vector.h:656:40
	ldr	r1, [r5]
.Ltmp145:
	.loc	33 102 9                @ ./libraries/Pipe/Pipe.h:102:9
	movt	r8, :upper16:belaArduinoPipe
.Ltmp146:
	@DEBUG_VALUE: msgSend:pipe <- %R8
	@DEBUG_VALUE: msgSend:rt <- 0
	mov	r2, #4
.Ltmp147:
	.loc	8 656 50                @ /usr/bin/../lib/gcc/arm-linux-gnueabihf/6.3.0/../../../../include/c++/6.3.0/bits/stl_vector.h:656:50
	sub	r0, r1, r0
.Ltmp148:
	.loc	10 71 30                @ /root/Bela/projects/board_6/BelaMsg.cpp:71:30
	str	r0, [sp]
.Ltmp149:
	@DEBUG_VALUE: writeNonRt<const unsigned int>:size <- 4
	@DEBUG_VALUE: writeNonRt<const unsigned int>:count <- 1
	mov	r1, sp
.Ltmp150:
	@DEBUG_VALUE: writeNonRt<const unsigned int>:data <- %R1
	@DEBUG_VALUE: writeNonRt<unsigned int>:data <- %R1
	.loc	33 102 9                @ ./libraries/Pipe/Pipe.h:102:9
	mov	r0, r8
	bl	_ZN4Pipe11_writeNonRtEPvj
.Ltmp151:
	mov	r6, r0
.Ltmp152:
	.loc	8 892 42                @ /usr/bin/../lib/gcc/arm-linux-gnueabihf/6.3.0/../../../../include/c++/6.3.0/bits/stl_vector.h:892:42
	ldr	r1, [r7]
.Ltmp153:
	@DEBUG_VALUE: writeNonRt<unsigned char>:data <- %R1
	.loc	8 656 40                @ /usr/bin/../lib/gcc/arm-linux-gnueabihf/6.3.0/../../../../include/c++/6.3.0/bits/stl_vector.h:656:40
	ldr	r0, [r5]
	.loc	8 656 50 is_stmt 0      @ /usr/bin/../lib/gcc/arm-linux-gnueabihf/6.3.0/../../../../include/c++/6.3.0/bits/stl_vector.h:656:50
	sub	r2, r0, r1
.Ltmp154:
	@DEBUG_VALUE: writeNonRt<unsigned char>:size <- %R2
	@DEBUG_VALUE: writeNonRt<unsigned char>:count <- %R2
	.loc	33 102 9 is_stmt 1      @ ./libraries/Pipe/Pipe.h:102:9
	mov	r0, r8
	bl	_ZN4Pipe11_writeNonRtEPvj
.Ltmp155:
.LBB4_5:
	@DEBUG_VALUE: msgSend:pipe <- %R8
	@DEBUG_VALUE: size:this <- %R7
	@DEBUG_VALUE: data:this <- %R7
	@DEBUG_VALUE: size:this <- %R7
	@DEBUG_VALUE: size:this <- %R7
	@DEBUG_VALUE: data:this <- %R7
	@DEBUG_VALUE: size:this <- %R7
	@DEBUG_VALUE: size:this <- %R7
	@DEBUG_VALUE: size:this <- %R7
	@DEBUG_VALUE: msgSend:thread <- %R4
	.loc	10 76 5                 @ /root/Bela/projects/board_6/BelaMsg.cpp:76:5
	cmp	r6, #1
	bne	.LBB4_8
.Ltmp156:
@ BB#6:
	@DEBUG_VALUE: msgSend:pipe <- %R8
	@DEBUG_VALUE: size:this <- %R7
	@DEBUG_VALUE: data:this <- %R7
	@DEBUG_VALUE: size:this <- %R7
	@DEBUG_VALUE: size:this <- %R7
	@DEBUG_VALUE: data:this <- %R7
	@DEBUG_VALUE: size:this <- %R7
	@DEBUG_VALUE: size:this <- %R7
	@DEBUG_VALUE: size:this <- %R7
	@DEBUG_VALUE: msgSend:thread <- %R4
	cmp	r0, #0
	beq	.LBB4_8
.Ltmp157:
.LBB4_7:
	@DEBUG_VALUE: size:this <- %R7
	@DEBUG_VALUE: data:this <- %R7
	@DEBUG_VALUE: size:this <- %R7
	@DEBUG_VALUE: size:this <- %R7
	@DEBUG_VALUE: data:this <- %R7
	@DEBUG_VALUE: size:this <- %R7
	@DEBUG_VALUE: size:this <- %R7
	@DEBUG_VALUE: size:this <- %R7
	@DEBUG_VALUE: msgSend:thread <- %R4
	.loc	10 78 1                 @ /root/Bela/projects/board_6/BelaMsg.cpp:78:1
	sub	sp, r11, #24
	pop	{r4, r5, r6, r7, r8, r10, r11, pc}
.Ltmp158:
.LBB4_8:                                @ %.critedge
	@DEBUG_VALUE: size:this <- %R7
	@DEBUG_VALUE: data:this <- %R7
	@DEBUG_VALUE: size:this <- %R7
	@DEBUG_VALUE: size:this <- %R7
	@DEBUG_VALUE: data:this <- %R7
	@DEBUG_VALUE: size:this <- %R7
	@DEBUG_VALUE: size:this <- %R7
	@DEBUG_VALUE: size:this <- %R7
	@DEBUG_VALUE: msgSend:thread <- %R4
	.loc	10 77 11                @ /root/Bela/projects/board_6/BelaMsg.cpp:77:11
	movw	r0, :lower16:stderr
	.loc	10 77 3 is_stmt 0       @ /root/Bela/projects/board_6/BelaMsg.cpp:77:3
	movw	r1, :lower16:.L.str.1
	.loc	10 77 11                @ /root/Bela/projects/board_6/BelaMsg.cpp:77:11
	movt	r0, :upper16:stderr
	.loc	10 77 3                 @ /root/Bela/projects/board_6/BelaMsg.cpp:77:3
	movt	r1, :upper16:.L.str.1
	.loc	10 77 11                @ /root/Bela/projects/board_6/BelaMsg.cpp:77:11
	ldr	r0, [r0]
	.loc	10 77 3                 @ /root/Bela/projects/board_6/BelaMsg.cpp:77:3
	mov	r2, r4
	bl	fprintf
	b	.LBB4_7
.Ltmp159:
.LBB4_9:
	@DEBUG_VALUE: size:this <- %R7
	@DEBUG_VALUE: data:this <- %R7
	@DEBUG_VALUE: size:this <- %R7
	@DEBUG_VALUE: size:this <- %R7
	@DEBUG_VALUE: data:this <- %R7
	@DEBUG_VALUE: size:this <- %R7
	@DEBUG_VALUE: size:this <- %R7
	@DEBUG_VALUE: size:this <- %R7
	@DEBUG_VALUE: msgSend:thread <- %R4
	.loc	10 45 11 is_stmt 1      @ /root/Bela/projects/board_6/BelaMsg.cpp:45:11
	movw	r0, :lower16:stderr
	.loc	10 45 3 is_stmt 0 discriminator 1 @ /root/Bela/projects/board_6/BelaMsg.cpp:45:3
	movw	r1, :lower16:.L.str
	.loc	10 45 11                @ /root/Bela/projects/board_6/BelaMsg.cpp:45:11
	movt	r0, :upper16:stderr
	.loc	10 45 3 discriminator 1 @ /root/Bela/projects/board_6/BelaMsg.cpp:45:3
	movt	r1, :upper16:.L.str
	.loc	10 45 11                @ /root/Bela/projects/board_6/BelaMsg.cpp:45:11
	ldr	r0, [r0]
	.loc	10 45 3 discriminator 1 @ /root/Bela/projects/board_6/BelaMsg.cpp:45:3
	bl	fprintf
	b	.LBB4_1
.Ltmp160:
.Lfunc_end4:
	.size	_Z7msgSend16BelaSourceThread, .Lfunc_end4-_Z7msgSend16BelaSourceThread
	.cfi_endproc
	.file	34 "/usr/bin/../lib/gcc/arm-linux-gnueabihf/6.3.0/../../../../include/c++/6.3.0/bits" "stringfwd.h"
	.fnend

	.section	.text._ZNSt6vectorIhSaIhEE17_M_default_appendEj,"axG",%progbits,_ZNSt6vectorIhSaIhEE17_M_default_appendEj,comdat
	.weak	_ZNSt6vectorIhSaIhEE17_M_default_appendEj
	.p2align	2
	.type	_ZNSt6vectorIhSaIhEE17_M_default_appendEj,%function
_ZNSt6vectorIhSaIhEE17_M_default_appendEj: @ @_ZNSt6vectorIhSaIhEE17_M_default_appendEj
.Lfunc_begin5:
	.file	35 "/usr/bin/../lib/gcc/arm-linux-gnueabihf/6.3.0/../../../../include/c++/6.3.0/bits" "vector.tcc"
	.loc	35 542 0 is_stmt 1      @ /usr/bin/../lib/gcc/arm-linux-gnueabihf/6.3.0/../../../../include/c++/6.3.0/bits/vector.tcc:542:0
	.fnstart
	.cfi_startproc
@ BB#0:
	.save	{r4, r5, r6, r7, r8, r10, r11, lr}
	push	{r4, r5, r6, r7, r8, r10, r11, lr}
.Ltmp161:
	.cfi_def_cfa_offset 32
.Ltmp162:
	.cfi_offset lr, -4
.Ltmp163:
	.cfi_offset r11, -8
.Ltmp164:
	.cfi_offset r10, -12
.Ltmp165:
	.cfi_offset r8, -16
.Ltmp166:
	.cfi_offset r7, -20
.Ltmp167:
	.cfi_offset r6, -24
.Ltmp168:
	.cfi_offset r5, -28
.Ltmp169:
	.cfi_offset r4, -32
	.setfp	r11, sp, #24
	add	r11, sp, #24
.Ltmp170:
	.cfi_def_cfa r11, 8
	@DEBUG_VALUE: _M_default_append:this <- %R0
	@DEBUG_VALUE: _M_default_append:__n <- %R1
	mov	r5, r1
.Ltmp171:
	@DEBUG_VALUE: _M_default_append:__n <- %R5
	mov	r4, r0
.Ltmp172:
	@DEBUG_VALUE: _M_default_append:this <- %R4
	.loc	35 543 11 prologue_end  @ /usr/bin/../lib/gcc/arm-linux-gnueabihf/6.3.0/../../../../include/c++/6.3.0/bits/vector.tcc:543:11
	cmp	r5, #0
	beq	.LBB5_12
.Ltmp173:
@ BB#1:
	@DEBUG_VALUE: _M_default_append:this <- %R4
	@DEBUG_VALUE: _M_default_append:__n <- %R5
	@DEBUG_VALUE: __fill_a<unsigned char>:__first <- %R7
	@DEBUG_VALUE: __fill_n_a<unsigned int, unsigned char>:__first <- %R7
	@DEBUG_VALUE: fill_n<unsigned char *, unsigned int, unsigned char>:__first <- %R7
	@DEBUG_VALUE: __uninit_default_n<unsigned char *, unsigned int>:__first <- %R7
	@DEBUG_VALUE: __uninitialized_default_n<unsigned char *, unsigned int>:__first <- %R7
	@DEBUG_VALUE: __uninitialized_default_n_a<unsigned char *, unsigned int, unsigned char>:__first <- %R7
	.loc	35 546 20               @ /usr/bin/../lib/gcc/arm-linux-gnueabihf/6.3.0/../../../../include/c++/6.3.0/bits/vector.tcc:546:20
	ldr	r7, [r4, #4]
.Ltmp174:
	.loc	35 545 32               @ /usr/bin/../lib/gcc/arm-linux-gnueabihf/6.3.0/../../../../include/c++/6.3.0/bits/vector.tcc:545:32
	ldr	r0, [r4, #8]
	.loc	35 546 4                @ /usr/bin/../lib/gcc/arm-linux-gnueabihf/6.3.0/../../../../include/c++/6.3.0/bits/vector.tcc:546:4
	sub	r0, r0, r7
.Ltmp175:
	.loc	35 545 8                @ /usr/bin/../lib/gcc/arm-linux-gnueabihf/6.3.0/../../../../include/c++/6.3.0/bits/vector.tcc:545:8
	cmp	r0, r5
	bhs	.LBB5_5
.Ltmp176:
@ BB#2:
	@DEBUG_VALUE: _M_default_append:this <- %R4
	@DEBUG_VALUE: _M_default_append:__n <- %R5
	@DEBUG_VALUE: size:this <- %R4
	.loc	8 656 66                @ /usr/bin/../lib/gcc/arm-linux-gnueabihf/6.3.0/../../../../include/c++/6.3.0/bits/stl_vector.h:656:66
	ldr	r1, [r4]
	.loc	8 656 50 is_stmt 0      @ /usr/bin/../lib/gcc/arm-linux-gnueabihf/6.3.0/../../../../include/c++/6.3.0/bits/stl_vector.h:656:50
	sub	r0, r7, r1
.Ltmp177:
	@DEBUG_VALUE: _M_check_len:__n <- %R5
	.loc	8 1422 17 is_stmt 1     @ /usr/bin/../lib/gcc/arm-linux-gnueabihf/6.3.0/../../../../include/c++/6.3.0/bits/stl_vector.h:1422:17
	mvn	r2, r0
.Ltmp178:
	.loc	8 1422 6 is_stmt 0      @ /usr/bin/../lib/gcc/arm-linux-gnueabihf/6.3.0/../../../../include/c++/6.3.0/bits/stl_vector.h:1422:6
	cmp	r2, r5
	blo	.LBB5_13
.Ltmp179:
@ BB#3:                                 @ %_ZNKSt6vectorIhSaIhEE12_M_check_lenEjPKc.exit
	@DEBUG_VALUE: _M_check_len:__n <- %R5
	@DEBUG_VALUE: size:this <- %R4
	@DEBUG_VALUE: _M_default_append:this <- %R4
	@DEBUG_VALUE: _M_default_append:__n <- %R5
	.loc	8 1425 35 is_stmt 1     @ /usr/bin/../lib/gcc/arm-linux-gnueabihf/6.3.0/../../../../include/c++/6.3.0/bits/stl_vector.h:1425:35
	cmp	r0, r5
	mov	r2, r0
	movlo	r2, r5
	add	r6, r2, r0
	cmp	r6, r2
	.loc	8 1426 25               @ /usr/bin/../lib/gcc/arm-linux-gnueabihf/6.3.0/../../../../include/c++/6.3.0/bits/stl_vector.h:1426:25
	mvnlo	r6, #0
.Ltmp180:
	@DEBUG_VALUE: __len <- %R6
	@DEBUG_VALUE: allocate:__n <- %R6
	@DEBUG_VALUE: allocate:__n <- %R6
	.loc	8 170 9                 @ /usr/bin/../lib/gcc/arm-linux-gnueabihf/6.3.0/../../../../include/c++/6.3.0/bits/stl_vector.h:170:9
	cmp	r6, #0
.Ltmp181:
	@DEBUG_VALUE: _M_check_len:__len <- %R6
	@DEBUG_VALUE: _M_allocate:__n <- %R6
	beq	.LBB5_6
.Ltmp182:
@ BB#4:
	@DEBUG_VALUE: _M_allocate:__n <- %R6
	@DEBUG_VALUE: _M_check_len:__len <- %R6
	@DEBUG_VALUE: allocate:__n <- %R6
	@DEBUG_VALUE: allocate:__n <- %R6
	@DEBUG_VALUE: __len <- %R6
	@DEBUG_VALUE: _M_check_len:__n <- %R5
	@DEBUG_VALUE: size:this <- %R4
	@DEBUG_VALUE: _M_default_append:this <- %R4
	@DEBUG_VALUE: _M_default_append:__n <- %R5
	.loc	4 104 27                @ /usr/bin/../lib/gcc/arm-linux-gnueabihf/6.3.0/../../../../include/c++/6.3.0/ext/new_allocator.h:104:27
	mov	r0, r6
	bl	_Znwj
.Ltmp183:
	.loc	35 563 22               @ /usr/bin/../lib/gcc/arm-linux-gnueabihf/6.3.0/../../../../include/c++/6.3.0/bits/vector.tcc:563:22
	ldm	r4, {r1, r7}
.Ltmp184:
	@DEBUG_VALUE: size:this <- %R4
	.loc	4 104 27                @ /usr/bin/../lib/gcc/arm-linux-gnueabihf/6.3.0/../../../../include/c++/6.3.0/ext/new_allocator.h:104:27
	mov	r8, r0
	b	.LBB5_7
.Ltmp185:
.LBB5_5:                                @ %_ZSt27__uninitialized_default_n_aIPhjhET_S1_T0_RSaIT1_E.exit
	@DEBUG_VALUE: _M_default_append:this <- %R4
	@DEBUG_VALUE: _M_default_append:__n <- %R5
	@DEBUG_VALUE: __uninitialized_default_n<unsigned char *, unsigned int>:__assignable <- 1
	@DEBUG_VALUE: __len <- %R5
	@DEBUG_VALUE: __fill_n_a<unsigned int, unsigned char>:__n <- %R5
	.file	36 "/usr/bin/../lib/gcc/arm-linux-gnueabihf/6.3.0/../../../../include/c++/6.3.0/bits" "stl_algobase.h"
	.loc	36 707 2                @ /usr/bin/../lib/gcc/arm-linux-gnueabihf/6.3.0/../../../../include/c++/6.3.0/bits/stl_algobase.h:707:2
	mov	r0, r7
	mov	r1, #0
	mov	r2, r5
	bl	memset
.Ltmp186:
	.loc	36 763 38               @ /usr/bin/../lib/gcc/arm-linux-gnueabihf/6.3.0/../../../../include/c++/6.3.0/bits/stl_algobase.h:763:38
	add	r0, r7, r5
.Ltmp187:
	@DEBUG_VALUE: __fill_a<unsigned char>:__last <- %R0
	.loc	35 548 32               @ /usr/bin/../lib/gcc/arm-linux-gnueabihf/6.3.0/../../../../include/c++/6.3.0/bits/vector.tcc:548:32
	str	r0, [r4, #4]
.Ltmp188:
	.loc	35 586 5 discriminator 2 @ /usr/bin/../lib/gcc/arm-linux-gnueabihf/6.3.0/../../../../include/c++/6.3.0/bits/vector.tcc:586:5
	pop	{r4, r5, r6, r7, r8, r10, r11, pc}
.Ltmp189:
.LBB5_6:                                @ %_ZNKSt6vectorIhSaIhEE12_M_check_lenEjPKc.exit._ZNSt12_Vector_baseIhSaIhEE11_M_allocateEj.exit_crit_edge
	@DEBUG_VALUE: _M_allocate:__n <- %R6
	@DEBUG_VALUE: _M_check_len:__len <- %R6
	@DEBUG_VALUE: allocate:__n <- %R6
	@DEBUG_VALUE: allocate:__n <- %R6
	@DEBUG_VALUE: __len <- %R6
	@DEBUG_VALUE: _M_check_len:__n <- %R5
	@DEBUG_VALUE: size:this <- %R4
	@DEBUG_VALUE: _M_default_append:this <- %R4
	@DEBUG_VALUE: _M_default_append:__n <- %R5
	mov	r8, #0
.Ltmp190:
	@DEBUG_VALUE: allocate: <- %R8
.LBB5_7:                                @ %_ZNSt12_Vector_baseIhSaIhEE11_M_allocateEj.exit
	@DEBUG_VALUE: _M_allocate:__n <- %R6
	@DEBUG_VALUE: _M_check_len:__len <- %R6
	@DEBUG_VALUE: allocate:__n <- %R6
	@DEBUG_VALUE: allocate:__n <- %R6
	@DEBUG_VALUE: __len <- %R6
	@DEBUG_VALUE: _M_check_len:__n <- %R5
	@DEBUG_VALUE: size:this <- %R4
	@DEBUG_VALUE: _M_default_append:this <- %R4
	@DEBUG_VALUE: _M_default_append:__n <- %R5
	@DEBUG_VALUE: __uninitialized_move_if_noexcept_a<unsigned char *, unsigned char *, std::allocator<unsigned char> >:__first <- %R1
	@DEBUG_VALUE: uninitialized_copy<std::move_iterator<unsigned char *>, unsigned char *>:__assignable <- 1
	@DEBUG_VALUE: __copy_move_a<true, unsigned char *, unsigned char *>:__simple <- 1
	.loc	36 366 34               @ /usr/bin/../lib/gcc/arm-linux-gnueabihf/6.3.0/../../../../include/c++/6.3.0/bits/stl_algobase.h:366:34
	subs	r7, r7, r1
.Ltmp191:
	@DEBUG_VALUE: __copy_m<unsigned char>:_Num <- %R7
	beq	.LBB5_9
.Ltmp192:
@ BB#8:
	@DEBUG_VALUE: __copy_m<unsigned char>:_Num <- %R7
	@DEBUG_VALUE: __uninitialized_move_if_noexcept_a<unsigned char *, unsigned char *, std::allocator<unsigned char> >:__first <- %R1
	@DEBUG_VALUE: _M_allocate:__n <- %R6
	@DEBUG_VALUE: _M_check_len:__len <- %R6
	@DEBUG_VALUE: allocate:__n <- %R6
	@DEBUG_VALUE: allocate:__n <- %R6
	@DEBUG_VALUE: __len <- %R6
	@DEBUG_VALUE: _M_check_len:__n <- %R5
	@DEBUG_VALUE: size:this <- %R4
	@DEBUG_VALUE: _M_default_append:this <- %R4
	@DEBUG_VALUE: _M_default_append:__n <- %R5
	@DEBUG_VALUE: __uninitialized_move_if_noexcept_a<unsigned char *, unsigned char *, std::allocator<unsigned char> >:__result <- %R8
	.loc	36 368 6                @ /usr/bin/../lib/gcc/arm-linux-gnueabihf/6.3.0/../../../../include/c++/6.3.0/bits/stl_algobase.h:368:6
	mov	r0, r8
	mov	r2, r7
	bl	memmove
.Ltmp193:
.LBB5_9:
	@DEBUG_VALUE: __copy_m<unsigned char>:_Num <- %R7
	@DEBUG_VALUE: _M_allocate:__n <- %R6
	@DEBUG_VALUE: _M_check_len:__len <- %R6
	@DEBUG_VALUE: allocate:__n <- %R6
	@DEBUG_VALUE: allocate:__n <- %R6
	@DEBUG_VALUE: __len <- %R6
	@DEBUG_VALUE: _M_check_len:__n <- %R5
	@DEBUG_VALUE: size:this <- %R4
	@DEBUG_VALUE: _M_default_append:this <- %R4
	@DEBUG_VALUE: _M_default_append:__n <- %R5
	.loc	36 369 20               @ /usr/bin/../lib/gcc/arm-linux-gnueabihf/6.3.0/../../../../include/c++/6.3.0/bits/stl_algobase.h:369:20
	add	r7, r8, r7
.Ltmp194:
	@DEBUG_VALUE: __len <- %R5
	@DEBUG_VALUE: __fill_n_a<unsigned int, unsigned char>:__first <- %R7
	@DEBUG_VALUE: fill_n<unsigned char *, unsigned int, unsigned char>:__first <- %R7
	@DEBUG_VALUE: __uninit_default_n<unsigned char *, unsigned int>:__first <- %R7
	@DEBUG_VALUE: __uninitialized_default_n<unsigned char *, unsigned int>:__assignable <- 1
	@DEBUG_VALUE: __uninitialized_default_n<unsigned char *, unsigned int>:__first <- %R7
	@DEBUG_VALUE: __uninitialized_default_n_a<unsigned char *, unsigned int, unsigned char>:__first <- %R7
	@DEBUG_VALUE: __new_finish <- %R7
	@DEBUG_VALUE: __fill_a<unsigned char>:__first <- %R7
	@DEBUG_VALUE: __fill_n_a<unsigned int, unsigned char>:__n <- %R5
	.loc	36 707 2                @ /usr/bin/../lib/gcc/arm-linux-gnueabihf/6.3.0/../../../../include/c++/6.3.0/bits/stl_algobase.h:707:2
	mov	r1, #0
	mov	r2, r5
	mov	r0, r7
	bl	memset
.Ltmp195:
	.loc	35 578 36               @ /usr/bin/../lib/gcc/arm-linux-gnueabihf/6.3.0/../../../../include/c++/6.3.0/bits/vector.tcc:578:36
	ldr	r0, [r4]
.Ltmp196:
	@DEBUG_VALUE: _M_deallocate:__p <- %R0
	@DEBUG_VALUE: deallocate:__p <- %R0
	@DEBUG_VALUE: deallocate:__p <- %R0
	.loc	36 763 38               @ /usr/bin/../lib/gcc/arm-linux-gnueabihf/6.3.0/../../../../include/c++/6.3.0/bits/stl_algobase.h:763:38
	add	r5, r7, r5
.Ltmp197:
	@DEBUG_VALUE: __fill_a<unsigned char>:__last <- %R5
	@DEBUG_VALUE: __new_finish <- %R5
	.loc	8 177 6                 @ /usr/bin/../lib/gcc/arm-linux-gnueabihf/6.3.0/../../../../include/c++/6.3.0/bits/stl_vector.h:177:6
	cmp	r0, #0
	beq	.LBB5_11
.Ltmp198:
@ BB#10:
	@DEBUG_VALUE: __new_finish <- %R5
	@DEBUG_VALUE: __fill_a<unsigned char>:__last <- %R5
	@DEBUG_VALUE: deallocate:__p <- %R0
	@DEBUG_VALUE: deallocate:__p <- %R0
	@DEBUG_VALUE: _M_deallocate:__p <- %R0
	@DEBUG_VALUE: __fill_a<unsigned char>:__first <- %R7
	@DEBUG_VALUE: __uninitialized_default_n_a<unsigned char *, unsigned int, unsigned char>:__first <- %R7
	@DEBUG_VALUE: __uninitialized_default_n<unsigned char *, unsigned int>:__first <- %R7
	@DEBUG_VALUE: __uninit_default_n<unsigned char *, unsigned int>:__first <- %R7
	@DEBUG_VALUE: fill_n<unsigned char *, unsigned int, unsigned char>:__first <- %R7
	@DEBUG_VALUE: __fill_n_a<unsigned int, unsigned char>:__first <- %R7
	@DEBUG_VALUE: _M_allocate:__n <- %R6
	@DEBUG_VALUE: _M_check_len:__len <- %R6
	@DEBUG_VALUE: allocate:__n <- %R6
	@DEBUG_VALUE: allocate:__n <- %R6
	@DEBUG_VALUE: __len <- %R6
	@DEBUG_VALUE: size:this <- %R4
	@DEBUG_VALUE: _M_default_append:this <- %R4
	.loc	4 110 9                 @ /usr/bin/../lib/gcc/arm-linux-gnueabihf/6.3.0/../../../../include/c++/6.3.0/ext/new_allocator.h:110:9
	bl	_ZdlPv
.Ltmp199:
.LBB5_11:                               @ %_ZNSt12_Vector_baseIhSaIhEE13_M_deallocateEPhj.exit31
	@DEBUG_VALUE: __new_finish <- %R5
	@DEBUG_VALUE: __fill_a<unsigned char>:__last <- %R5
	@DEBUG_VALUE: __fill_a<unsigned char>:__first <- %R7
	@DEBUG_VALUE: __uninitialized_default_n_a<unsigned char *, unsigned int, unsigned char>:__first <- %R7
	@DEBUG_VALUE: __uninitialized_default_n<unsigned char *, unsigned int>:__first <- %R7
	@DEBUG_VALUE: __uninit_default_n<unsigned char *, unsigned int>:__first <- %R7
	@DEBUG_VALUE: fill_n<unsigned char *, unsigned int, unsigned char>:__first <- %R7
	@DEBUG_VALUE: __fill_n_a<unsigned int, unsigned char>:__first <- %R7
	@DEBUG_VALUE: _M_allocate:__n <- %R6
	@DEBUG_VALUE: _M_check_len:__len <- %R6
	@DEBUG_VALUE: allocate:__n <- %R6
	@DEBUG_VALUE: allocate:__n <- %R6
	@DEBUG_VALUE: __len <- %R6
	@DEBUG_VALUE: size:this <- %R4
	@DEBUG_VALUE: _M_default_append:this <- %R4
	.loc	35 581 31               @ /usr/bin/../lib/gcc/arm-linux-gnueabihf/6.3.0/../../../../include/c++/6.3.0/bits/vector.tcc:581:31
	str	r8, [r4]
	.loc	35 583 54               @ /usr/bin/../lib/gcc/arm-linux-gnueabihf/6.3.0/../../../../include/c++/6.3.0/bits/vector.tcc:583:54
	add	r0, r8, r6
	.loc	35 582 32               @ /usr/bin/../lib/gcc/arm-linux-gnueabihf/6.3.0/../../../../include/c++/6.3.0/bits/vector.tcc:582:32
	str	r5, [r4, #4]
	.loc	35 583 40               @ /usr/bin/../lib/gcc/arm-linux-gnueabihf/6.3.0/../../../../include/c++/6.3.0/bits/vector.tcc:583:40
	str	r0, [r4, #8]
.Ltmp200:
.LBB5_12:
	@DEBUG_VALUE: _M_default_append:this <- %R4
	.loc	35 586 5 discriminator 2 @ /usr/bin/../lib/gcc/arm-linux-gnueabihf/6.3.0/../../../../include/c++/6.3.0/bits/vector.tcc:586:5
	pop	{r4, r5, r6, r7, r8, r10, r11, pc}
.Ltmp201:
.LBB5_13:
	@DEBUG_VALUE: _M_check_len:__n <- %R5
	@DEBUG_VALUE: size:this <- %R4
	@DEBUG_VALUE: _M_default_append:this <- %R4
	@DEBUG_VALUE: _M_default_append:__n <- %R5
	.loc	8 1423 4                @ /usr/bin/../lib/gcc/arm-linux-gnueabihf/6.3.0/../../../../include/c++/6.3.0/bits/stl_vector.h:1423:4
	movw	r0, :lower16:.L.str.2
	movt	r0, :upper16:.L.str.2
.Ltmp202:
	@DEBUG_VALUE: _M_check_len:__s <- %R0
	mov	lr, pc
	b	_ZSt20__throw_length_errorPKc
.Ltmp203:
.Lfunc_end5:
	.size	_ZNSt6vectorIhSaIhEE17_M_default_appendEj, .Lfunc_end5-_ZNSt6vectorIhSaIhEE17_M_default_appendEj
	.cfi_endproc
	.file	37 "/usr/bin/../lib/gcc/arm-linux-gnueabihf/6.3.0/../../../../include/c++/6.3.0/ext" "type_traits.h"
	.file	38 "/usr/bin/../lib/gcc/arm-linux-gnueabihf/6.3.0/../../../../include/c++/6.3.0/bits" "stl_uninitialized.h"
	.fnend

	.section	.text.startup,"ax",%progbits
	.p2align	2
	.type	_GLOBAL__sub_I_BelaMsg.ii,%function
_GLOBAL__sub_I_BelaMsg.ii:              @ @_GLOBAL__sub_I_BelaMsg.ii
.Lfunc_begin6:
	.file	39 "/root/Bela/projects/board_6/build" "BelaMsg.cpp"
	.loc	39 0 0                  @ /root/Bela/projects/board_6/build/BelaMsg.cpp:0:0
	.fnstart
	.cfi_startproc
@ BB#0:
	.save	{r4, r5, r6, r10, r11, lr}
	push	{r4, r5, r6, r10, r11, lr}
.Ltmp207:
	.cfi_def_cfa_offset 24
.Ltmp208:
	.cfi_offset lr, -4
.Ltmp209:
	.cfi_offset r11, -8
.Ltmp210:
	.cfi_offset r10, -12
.Ltmp211:
	.cfi_offset r6, -16
.Ltmp212:
	.cfi_offset r5, -20
.Ltmp213:
	.cfi_offset r4, -24
	.setfp	r11, sp, #16
	add	r11, sp, #16
.Ltmp214:
	.cfi_def_cfa r11, 8
.Ltmp215:
	@DEBUG_VALUE: vector:__n <- 1000
	@DEBUG_VALUE: _Vector_base:__n <- 1000
	.loc	8 91 25 prologue_end    @ /usr/bin/../lib/gcc/arm-linux-gnueabihf/6.3.0/../../../../include/c++/6.3.0/bits/stl_vector.h:91:25
	movw	r4, :lower16:_ZL6states
.Ltmp216:
	.loc	4 104 27                @ /usr/bin/../lib/gcc/arm-linux-gnueabihf/6.3.0/../../../../include/c++/6.3.0/ext/new_allocator.h:104:27
	mov	r0, #1000
.Ltmp217:
	.loc	8 91 25                 @ /usr/bin/../lib/gcc/arm-linux-gnueabihf/6.3.0/../../../../include/c++/6.3.0/bits/stl_vector.h:91:25
	movt	r4, :upper16:_ZL6states
	mov	r5, #0
.Ltmp218:
	@DEBUG_VALUE: allocate: <- %R5
	@DEBUG_VALUE: allocate:__n <- 1000
	@DEBUG_VALUE: allocate:__n <- 1000
	@DEBUG_VALUE: _M_allocate:__n <- 1000
	@DEBUG_VALUE: _M_create_storage:__n <- 1000
	str	r5, [r4]
	.loc	8 91 37 is_stmt 0       @ /usr/bin/../lib/gcc/arm-linux-gnueabihf/6.3.0/../../../../include/c++/6.3.0/bits/stl_vector.h:91:37
	str	r5, [r4, #4]
	.loc	8 91 50                 @ /usr/bin/../lib/gcc/arm-linux-gnueabihf/6.3.0/../../../../include/c++/6.3.0/bits/stl_vector.h:91:50
	str	r5, [r4, #8]
.Ltmp219:
	.loc	4 104 27 is_stmt 1      @ /usr/bin/../lib/gcc/arm-linux-gnueabihf/6.3.0/../../../../include/c++/6.3.0/ext/new_allocator.h:104:27
	bl	_Znwj
.Ltmp220:
	@DEBUG_VALUE: __uninitialized_default_n_a<unsigned char *, unsigned int, unsigned char>:__first <- %R0
	@DEBUG_VALUE: __uninitialized_default_n<unsigned char *, unsigned int>:__first <- %R0
	@DEBUG_VALUE: __uninit_default_n<unsigned char *, unsigned int>:__first <- %R0
	@DEBUG_VALUE: fill_n<unsigned char *, unsigned int, unsigned char>:__first <- %R0
	@DEBUG_VALUE: __fill_n_a<unsigned int, unsigned char>:__first <- %R0
	@DEBUG_VALUE: __fill_a<unsigned char>:__first <- %R0
	.loc	36 707 2                @ /usr/bin/../lib/gcc/arm-linux-gnueabihf/6.3.0/../../../../include/c++/6.3.0/bits/stl_algobase.h:707:2
	mov	r1, #0
	mov	r2, #1000
.Ltmp221:
	.loc	8 185 25                @ /usr/bin/../lib/gcc/arm-linux-gnueabihf/6.3.0/../../../../include/c++/6.3.0/bits/stl_vector.h:185:25
	str	r0, [r4]
	.loc	8 187 59                @ /usr/bin/../lib/gcc/arm-linux-gnueabihf/6.3.0/../../../../include/c++/6.3.0/bits/stl_vector.h:187:59
	add	r6, r0, #1000
.Ltmp222:
	@DEBUG_VALUE: __fill_a<unsigned char>:__last <- %R6
	.loc	8 187 34 is_stmt 0      @ /usr/bin/../lib/gcc/arm-linux-gnueabihf/6.3.0/../../../../include/c++/6.3.0/bits/stl_vector.h:187:34
	str	r6, [r4, #8]
.Ltmp223:
	@DEBUG_VALUE: __len <- 1000
	@DEBUG_VALUE: __fill_n_a<unsigned int, unsigned char>:__n <- 1000
	@DEBUG_VALUE: fill_n<unsigned char *, unsigned int, unsigned char>:__n <- 1000
	@DEBUG_VALUE: __uninit_default_n<unsigned char *, unsigned int>:__n <- 1000
	@DEBUG_VALUE: __uninitialized_default_n<unsigned char *, unsigned int>:__assignable <- 1
	@DEBUG_VALUE: __uninitialized_default_n<unsigned char *, unsigned int>:__n <- 1000
	@DEBUG_VALUE: __uninitialized_default_n_a<unsigned char *, unsigned int, unsigned char>:__n <- 1000
	@DEBUG_VALUE: _M_default_initialize:__n <- 1000
	.loc	36 707 2 is_stmt 1      @ /usr/bin/../lib/gcc/arm-linux-gnueabihf/6.3.0/../../../../include/c++/6.3.0/bits/stl_algobase.h:707:2
	bl	memset
.Ltmp224:
	.loc	10 12 9                 @ /root/Bela/projects/board_6/BelaMsg.cpp:12:9
	vmov.i32	q8, #0x0
	add	r0, r4, #12
.Ltmp225:
	.loc	8 1308 26               @ /usr/bin/../lib/gcc/arm-linux-gnueabihf/6.3.0/../../../../include/c++/6.3.0/bits/stl_vector.h:1308:26
	str	r6, [r4, #4]
.Ltmp226:
	.loc	10 12 9                 @ /root/Bela/projects/board_6/BelaMsg.cpp:12:9
	vst1.32	{d16, d17}, [r0]
	str	r5, [r4, #28]
.Ltmp227:
	.loc	4 104 27                @ /usr/bin/../lib/gcc/arm-linux-gnueabihf/6.3.0/../../../../include/c++/6.3.0/ext/new_allocator.h:104:27
.Ltmp204:
	mov	r0, #1000
	bl	_Znwj
.Ltmp205:
.Ltmp228:
	@DEBUG_VALUE: array:this <- %R4
@ BB#1:                                 @ %__cxx_global_var_init.exit
	@DEBUG_VALUE: array:this <- %R4
	@DEBUG_VALUE: __fill_a<unsigned char>:__last <- %R6
	@DEBUG_VALUE: allocate: <- %R5
	.loc	36 707 2                @ /usr/bin/../lib/gcc/arm-linux-gnueabihf/6.3.0/../../../../include/c++/6.3.0/bits/stl_algobase.h:707:2
	mov	r1, #0
	mov	r2, #1000
.Ltmp229:
	.loc	8 185 25                @ /usr/bin/../lib/gcc/arm-linux-gnueabihf/6.3.0/../../../../include/c++/6.3.0/bits/stl_vector.h:185:25
	str	r0, [r4, #20]
	.loc	8 187 59                @ /usr/bin/../lib/gcc/arm-linux-gnueabihf/6.3.0/../../../../include/c++/6.3.0/bits/stl_vector.h:187:59
	add	r6, r0, #1000
.Ltmp230:
	.loc	8 187 34 is_stmt 0      @ /usr/bin/../lib/gcc/arm-linux-gnueabihf/6.3.0/../../../../include/c++/6.3.0/bits/stl_vector.h:187:34
	str	r6, [r4, #28]
.Ltmp231:
	@DEBUG_VALUE: __len <- 1000
	@DEBUG_VALUE: __fill_n_a<unsigned int, unsigned char>:__n <- 1000
	@DEBUG_VALUE: fill_n<unsigned char *, unsigned int, unsigned char>:__n <- 1000
	@DEBUG_VALUE: __uninit_default_n<unsigned char *, unsigned int>:__n <- 1000
	@DEBUG_VALUE: __uninitialized_default_n<unsigned char *, unsigned int>:__assignable <- 1
	@DEBUG_VALUE: __uninitialized_default_n<unsigned char *, unsigned int>:__n <- 1000
	@DEBUG_VALUE: __uninitialized_default_n_a<unsigned char *, unsigned int, unsigned char>:__n <- 1000
	@DEBUG_VALUE: _M_default_initialize:__n <- 1000
	.loc	36 707 2 is_stmt 1      @ /usr/bin/../lib/gcc/arm-linux-gnueabihf/6.3.0/../../../../include/c++/6.3.0/bits/stl_algobase.h:707:2
	bl	memset
.Ltmp232:
	.loc	10 14 48 discriminator 1 @ /root/Bela/projects/board_6/BelaMsg.cpp:14:48
	movw	r0, :lower16:_ZNSt5arrayI5StateLj2EED2Ev
	movw	r2, :lower16:__dso_handle
.Ltmp233:
	.loc	8 1308 26               @ /usr/bin/../lib/gcc/arm-linux-gnueabihf/6.3.0/../../../../include/c++/6.3.0/bits/stl_vector.h:1308:26
	str	r6, [r4, #24]
.Ltmp234:
	.loc	10 14 48 discriminator 1 @ /root/Bela/projects/board_6/BelaMsg.cpp:14:48
	movt	r0, :upper16:_ZNSt5arrayI5StateLj2EED2Ev
.Ltmp235:
	.loc	10 11 9                 @ /root/Bela/projects/board_6/BelaMsg.cpp:11:9
	str	r5, [r4, #32]
.Ltmp236:
	.loc	10 14 48 discriminator 1 @ /root/Bela/projects/board_6/BelaMsg.cpp:14:48
	movt	r2, :upper16:__dso_handle
.Ltmp237:
	.loc	10 12 9                 @ /root/Bela/projects/board_6/BelaMsg.cpp:12:9
	str	r5, [r4, #36]
.Ltmp238:
	.loc	10 14 48 discriminator 1 @ /root/Bela/projects/board_6/BelaMsg.cpp:14:48
	mov	r1, r4
	pop	{r4, r5, r6, r10, r11, lr}
.Ltmp239:
	b	__cxa_atexit
.LBB6_2:                                @ %.preheader.preheader.i.i
.Ltmp240:
	@DEBUG_VALUE: array:this <- %R4
	@DEBUG_VALUE: __fill_a<unsigned char>:__last <- %R6
	@DEBUG_VALUE: allocate: <- %R5
.Ltmp206:
	mov	r5, r0
.Ltmp241:
	.loc	8 160 37                @ /usr/bin/../lib/gcc/arm-linux-gnueabihf/6.3.0/../../../../include/c++/6.3.0/bits/stl_vector.h:160:37
	ldr	r0, [r4]
.Ltmp242:
	@DEBUG_VALUE: _M_deallocate:__p <- %R0
	@DEBUG_VALUE: deallocate:__p <- %R0
	@DEBUG_VALUE: deallocate:__p <- %R0
	.loc	8 177 6                 @ /usr/bin/../lib/gcc/arm-linux-gnueabihf/6.3.0/../../../../include/c++/6.3.0/bits/stl_vector.h:177:6
	cmp	r0, #0
	beq	.LBB6_4
.Ltmp243:
@ BB#3:
	@DEBUG_VALUE: deallocate:__p <- %R0
	@DEBUG_VALUE: deallocate:__p <- %R0
	@DEBUG_VALUE: _M_deallocate:__p <- %R0
	@DEBUG_VALUE: array:this <- %R4
	@DEBUG_VALUE: __fill_a<unsigned char>:__last <- %R6
	.loc	4 110 9                 @ /usr/bin/../lib/gcc/arm-linux-gnueabihf/6.3.0/../../../../include/c++/6.3.0/ext/new_allocator.h:110:9
	bl	_ZdlPv
.Ltmp244:
.LBB6_4:                                @ %_ZN5StateD2Ev.exit.i.i
	@DEBUG_VALUE: array:this <- %R4
	@DEBUG_VALUE: __fill_a<unsigned char>:__last <- %R6
	mov	r0, r5
	mov	lr, pc
	b	_Unwind_Resume
.Lfunc_end6:
	.size	_GLOBAL__sub_I_BelaMsg.ii, .Lfunc_end6-_GLOBAL__sub_I_BelaMsg.ii
	.cfi_endproc
	.globl	__gxx_personality_v0
	.personality __gxx_personality_v0
	.handlerdata
	.p2align	2
GCC_except_table6:
.Lexception0:
	.byte	255                     @ @LPStart Encoding = omit
	.byte	0                       @ @TType Encoding = absptr
	.byte	41                      @ @TType base offset
	.byte	3                       @ Call site Encoding = udata4
	.byte	39                      @ Call site table length
	.long	.Lfunc_begin6-.Lfunc_begin6 @ >> Call Site 1 <<
	.long	.Ltmp204-.Lfunc_begin6  @   Call between .Lfunc_begin6 and .Ltmp204
	.long	0                       @     has no landing pad
	.byte	0                       @   On action: cleanup
	.long	.Ltmp204-.Lfunc_begin6  @ >> Call Site 2 <<
	.long	.Ltmp205-.Ltmp204       @   Call between .Ltmp204 and .Ltmp205
	.long	.Ltmp206-.Lfunc_begin6  @     jumps to .Ltmp206
	.byte	0                       @   On action: cleanup
	.long	.Ltmp205-.Lfunc_begin6  @ >> Call Site 3 <<
	.long	.Lfunc_end6-.Ltmp205    @   Call between .Ltmp205 and .Lfunc_end6
	.long	0                       @     has no landing pad
	.byte	0                       @   On action: cleanup
	.p2align	2
	.fnend

	.type	_ZL6states,%object      @ @_ZL6states
	.local	_ZL6states
	.comm	_ZL6states,40,4
	.type	.L.str,%object          @ @.str
	.section	.rodata.str1.1,"aMS",%progbits,1
.L.str:
	.asciz	"ERROR: unexpected msgBuf size: %zu vs %zu\n"
	.size	.L.str, 43

	.type	.L.str.1,%object        @ @.str.1
.L.str.1:
	.asciz	"Error writing to pipe from thread %d\n"
	.size	.L.str.1, 38

	.type	.L.str.2,%object        @ @.str.2
.L.str.2:
	.asciz	"vector::_M_default_append"
	.size	.L.str.2, 26

	.section	.init_array,"aw",%init_array
	.p2align	2
	.long	_GLOBAL__sub_I_BelaMsg.ii(target1)
	.section	".note.GNU-stack","",%progbits
	.eabi_attribute	30, 2	@ Tag_ABI_optimization_goals