	.text
	.syntax unified
	.eabi_attribute	67, "2.09"	@ Tag_conformance
	.cpu	cortex-a8
	.eabi_attribute	6, 10	@ Tag_CPU_arch
	.eabi_attribute	7, 65	@ Tag_CPU_arch_profile
	.eabi_attribute	8, 1	@ Tag_ARM_ISA_use
	.eabi_attribute	9, 2	@ Tag_THUMB_ISA_use
	.fpu	neon
	.eabi_attribute	17, 1	@ Tag_ABI_PCS_GOT_use
	.eabi_attribute	20, 2	@ Tag_ABI_FP_denormal
	.eabi_attribute	23, 1	@ Tag_ABI_FP_number_model
	.eabi_attribute	34, 1	@ Tag_CPU_unaligned_access
	.eabi_attribute	24, 1	@ Tag_ABI_align_needed
	.eabi_attribute	25, 1	@ Tag_ABI_align_preserved
	.eabi_attribute	28, 1	@ Tag_ABI_VFP_args
	.eabi_attribute	38, 1	@ Tag_ABI_FP_16bit_format
	.eabi_attribute	18, 4	@ Tag_ABI_PCS_wchar_t
	.eabi_attribute	26, 2	@ Tag_ABI_enum_size
	.eabi_attribute	14, 0	@ Tag_ABI_PCS_R9_use
	.eabi_attribute	68, 1	@ Tag_Virtualization_use
	.file	"/root/Bela/projects/board_6/build/MonoFilePlayer.bc"
	.file	1 "/usr/bin/../lib/gcc/arm-linux-gnueabihf/6.3.0/../../../../include/arm-linux-gnueabihf/c++/6.3.0/bits" "c++config.h"
	.file	2 "/usr/bin/../lib/gcc/arm-linux-gnueabihf/6.3.0/../../../../include/c++/6.3.0/ext" "concurrence.h"
	.file	3 "/usr/bin/../lib/gcc/arm-linux-gnueabihf/6.3.0/../../../../include/c++/6.3.0/bits" "alloc_traits.h"
	.file	4 "/usr/bin/../lib/gcc/arm-linux-gnueabihf/6.3.0/../../../../include/c++/6.3.0/ext" "new_allocator.h"
	.file	5 "/usr/bin/../lib/gcc/arm-linux-gnueabihf/6.3.0/../../../../include/arm-linux-gnueabihf/c++/6.3.0/bits" "c++allocator.h"
	.file	6 "/usr/bin/../lib/gcc/arm-linux-gnueabihf/6.3.0/../../../../include/c++/6.3.0/bits" "allocator.h"
	.file	7 "/usr/bin/../lib/gcc/arm-linux-gnueabihf/6.3.0/../../../../include/c++/6.3.0/ext" "alloc_traits.h"
	.file	8 "/usr/bin/../lib/gcc/arm-linux-gnueabihf/6.3.0/../../../../include/c++/6.3.0/bits" "stl_vector.h"
	.file	9 "/usr/bin/../lib/gcc/arm-linux-gnueabihf/6.3.0/../../../../include/c++/6.3.0/bits" "stl_iterator.h"
	.file	10 "/usr/bin/../lib/gcc/arm-linux-gnueabihf/6.3.0/../../../../include/c++/6.3.0/bits" "stl_iterator_base_types.h"
	.file	11 "/usr/bin/../lib/gcc/arm-linux-gnueabihf/6.3.0/../../../../include/c++/6.3.0" "type_traits"
	.file	12 "/usr/bin/../lib/gcc/arm-linux-gnueabihf/6.3.0/../../../../include/c++/6.3.0/debug" "debug.h"
	.file	13 "/usr/include" "wchar.h"
	.file	14 "/usr/lib/llvm-3.9/bin/../lib/clang/3.9.1/include" "stddef.h"
	.file	15 "/usr/include" "libio.h"
	.file	16 "/usr/include/arm-linux-gnueabihf/bits" "types.h"
	.file	17 "/usr/include" "stdio.h"
	.file	18 "/usr/lib/llvm-3.9/bin/../lib/clang/3.9.1/include" "stdarg.h"
	.file	19 "/usr/include" "stdint.h"
	.file	20 "/usr/bin/../lib/gcc/arm-linux-gnueabihf/6.3.0/../../../../include/c++/6.3.0/bits" "exception_ptr.h"
	.file	21 "/usr/include" "locale.h"
	.file	22 "/usr/include" "ctype.h"
	.file	23 "/usr/include" "stdlib.h"
	.file	24 "/usr/include/arm-linux-gnueabihf/bits" "stdlib-float.h"
	.file	25 "/usr/include/arm-linux-gnueabihf/bits" "stdlib-bsearch.h"
	.file	26 "/usr/bin/../lib/gcc/arm-linux-gnueabihf/6.3.0/../../../../include/c++/6.3.0" "cstdlib"
	.file	27 "/usr/include" "_G_config.h"
	.file	28 "/usr/include/arm-linux-gnueabihf/bits" "stdio.h"
	.file	29 "/usr/include" "time.h"
	.globl	_ZN14MonoFilePlayerC2ERKNSt7__cxx1112basic_stringIcSt11char_traitsIcESaIcEEEbb
	.p2align	2
	.type	_ZN14MonoFilePlayerC2ERKNSt7__cxx1112basic_stringIcSt11char_traitsIcESaIcEEEbb,%function
_ZN14MonoFilePlayerC2ERKNSt7__cxx1112basic_stringIcSt11char_traitsIcESaIcEEEbb: @ @_ZN14MonoFilePlayerC2ERKNSt7__cxx1112basic_stringIcSt11char_traitsIcESaIcEEEbb
.Lfunc_begin0:
	.file	30 "/root/Bela/projects/board_6" "MonoFilePlayer.cpp"
	.loc	30 18 0                 @ /root/Bela/projects/board_6/MonoFilePlayer.cpp:18:0
	.fnstart
	.cfi_startproc
@ BB#0:
	.save	{r4, r5, r11, lr}
	push	{r4, r5, r11, lr}
.Ltmp3:
	.cfi_def_cfa_offset 16
.Ltmp4:
	.cfi_offset lr, -4
.Ltmp5:
	.cfi_offset r11, -8
.Ltmp6:
	.cfi_offset r5, -12
.Ltmp7:
	.cfi_offset r4, -16
	.setfp	r11, sp, #8
	add	r11, sp, #8
.Ltmp8:
	.cfi_def_cfa r11, 8
	.pad	#16
	sub	sp, sp, #16
	@DEBUG_VALUE: MonoFilePlayer:this <- %R0
	@DEBUG_VALUE: MonoFilePlayer:filename <- %R1
	@DEBUG_VALUE: MonoFilePlayer:loop [bit_piece offset=0 size=1] <- %R2
	@DEBUG_VALUE: MonoFilePlayer:autostart [bit_piece offset=0 size=1] <- %R3
.Ltmp9:
	.loc	8 87 34 prologue_end    @ /usr/bin/../lib/gcc/arm-linux-gnueabihf/6.3.0/../../../../include/c++/6.3.0/bits/stl_vector.h:87:34
	vmov.i32	q8, #0x0
	mov	r4, r0
.Ltmp10:
	@DEBUG_VALUE: MonoFilePlayer:this <- %R4
	mov	r5, #0
	vst1.32	{d16, d17}, [r0]!
	strh	r5, [r0]
.Ltmp11:
	.loc	30 26 13                @ /root/Bela/projects/board_6/MonoFilePlayer.cpp:26:13
	strb	r3, [r4, #17]
	.loc	30 27 8                 @ /root/Bela/projects/board_6/MonoFilePlayer.cpp:27:8
	strb	r2, [r0]
	.loc	30 30 18 discriminator 1 @ /root/Bela/projects/board_6/MonoFilePlayer.cpp:30:18
.Ltmp0:
	add	r0, sp, #4
.Ltmp12:
	@DEBUG_VALUE: setup:filename <- %R1
	@DEBUG_VALUE: setup:this <- %R4
	bl	_ZN18AudioFileUtilities8loadMonoERKNSt7__cxx1112basic_stringIcSt11char_traitsIcESaIcEEE
.Ltmp13:
.Ltmp1:
.Ltmp14:
@ BB#1:                                 @ %.noexc
	@DEBUG_VALUE: setup:this <- %R4
	@DEBUG_VALUE: MonoFilePlayer:this <- %R4
	.file	31 "/usr/bin/../lib/gcc/arm-linux-gnueabihf/6.3.0/../../../../include/c++/6.3.0/bits" "move.h"
	.loc	31 191 13               @ /usr/bin/../lib/gcc/arm-linux-gnueabihf/6.3.0/../../../../include/c++/6.3.0/bits/move.h:191:13
	ldr	r1, [sp, #4]
.Ltmp15:
	@DEBUG_VALUE: operator=:__move_storage <- 1
	.loc	31 190 19               @ /usr/bin/../lib/gcc/arm-linux-gnueabihf/6.3.0/../../../../include/c++/6.3.0/bits/move.h:190:19
	ldr	r0, [r4]
.Ltmp16:
	@DEBUG_VALUE: _M_deallocate:__p <- %R0
	@DEBUG_VALUE: deallocate:__p <- %R0
	@DEBUG_VALUE: deallocate:__p <- %R0
	.loc	31 191 11               @ /usr/bin/../lib/gcc/arm-linux-gnueabihf/6.3.0/../../../../include/c++/6.3.0/bits/move.h:191:11
	str	r1, [r4]
	.loc	31 192 11               @ /usr/bin/../lib/gcc/arm-linux-gnueabihf/6.3.0/../../../../include/c++/6.3.0/bits/move.h:192:11
	str	r5, [sp, #4]
.Ltmp17:
	.loc	8 177 6                 @ /usr/bin/../lib/gcc/arm-linux-gnueabihf/6.3.0/../../../../include/c++/6.3.0/bits/stl_vector.h:177:6
	cmp	r0, #0
.Ltmp18:
	.loc	31 191 13               @ /usr/bin/../lib/gcc/arm-linux-gnueabihf/6.3.0/../../../../include/c++/6.3.0/bits/move.h:191:13
	ldr	r1, [sp, #8]
	.loc	31 191 11 is_stmt 0     @ /usr/bin/../lib/gcc/arm-linux-gnueabihf/6.3.0/../../../../include/c++/6.3.0/bits/move.h:191:11
	str	r1, [r4, #4]
	.loc	31 192 11 is_stmt 1     @ /usr/bin/../lib/gcc/arm-linux-gnueabihf/6.3.0/../../../../include/c++/6.3.0/bits/move.h:192:11
	str	r5, [sp, #8]
.Ltmp19:
	.loc	31 191 13               @ /usr/bin/../lib/gcc/arm-linux-gnueabihf/6.3.0/../../../../include/c++/6.3.0/bits/move.h:191:13
	ldr	r1, [sp, #12]
	.loc	31 191 11 is_stmt 0     @ /usr/bin/../lib/gcc/arm-linux-gnueabihf/6.3.0/../../../../include/c++/6.3.0/bits/move.h:191:11
	str	r1, [r4, #8]
	.loc	31 192 11 is_stmt 1     @ /usr/bin/../lib/gcc/arm-linux-gnueabihf/6.3.0/../../../../include/c++/6.3.0/bits/move.h:192:11
	str	r5, [sp, #12]
	beq	.LBB0_4
.Ltmp20:
@ BB#2:                                 @ %_ZNSt6vectorIfSaIfEEaSEOS1_.exit.i
	@DEBUG_VALUE: deallocate:__p <- %R0
	@DEBUG_VALUE: deallocate:__p <- %R0
	@DEBUG_VALUE: _M_deallocate:__p <- %R0
	@DEBUG_VALUE: setup:this <- %R4
	@DEBUG_VALUE: MonoFilePlayer:this <- %R4
	.loc	4 110 9                 @ /usr/bin/../lib/gcc/arm-linux-gnueabihf/6.3.0/../../../../include/c++/6.3.0/ext/new_allocator.h:110:9
	bl	_ZdlPv
.Ltmp21:
	.loc	8 160 37                @ /usr/bin/../lib/gcc/arm-linux-gnueabihf/6.3.0/../../../../include/c++/6.3.0/bits/stl_vector.h:160:37
	ldr	r0, [sp, #4]
.Ltmp22:
	@DEBUG_VALUE: _M_deallocate:__p <- %R0
	@DEBUG_VALUE: deallocate:__p <- %R0
	@DEBUG_VALUE: deallocate:__p <- %R0
	.loc	8 177 6                 @ /usr/bin/../lib/gcc/arm-linux-gnueabihf/6.3.0/../../../../include/c++/6.3.0/bits/stl_vector.h:177:6
	cmp	r0, #0
	beq	.LBB0_4
.Ltmp23:
@ BB#3:
	@DEBUG_VALUE: deallocate:__p <- %R0
	@DEBUG_VALUE: deallocate:__p <- %R0
	@DEBUG_VALUE: _M_deallocate:__p <- %R0
	@DEBUG_VALUE: setup:this <- %R4
	@DEBUG_VALUE: MonoFilePlayer:this <- %R4
	.loc	4 110 9                 @ /usr/bin/../lib/gcc/arm-linux-gnueabihf/6.3.0/../../../../include/c++/6.3.0/ext/new_allocator.h:110:9
	bl	_ZdlPv
.Ltmp24:
.LBB0_4:                                @ %_ZNSt6vectorIfSaIfEED2Ev.exit.i
	@DEBUG_VALUE: setup:this <- %R4
	@DEBUG_VALUE: MonoFilePlayer:this <- %R4
	.loc	8 558 45                @ /usr/bin/../lib/gcc/arm-linux-gnueabihf/6.3.0/../../../../include/c++/6.3.0/bits/stl_vector.h:558:45
	ldm	r4, {r0, r1}
.Ltmp25:
	.loc	30 33 5                 @ /root/Bela/projects/board_6/MonoFilePlayer.cpp:33:5
	cmp	r0, r1
.Ltmp26:
	.loc	30 34 14                @ /root/Bela/projects/board_6/MonoFilePlayer.cpp:34:14
	moveq	r0, #0
	strbeq	r0, [r4, #17]
.Ltmp27:
	.loc	30 20 1                 @ /root/Bela/projects/board_6/MonoFilePlayer.cpp:20:1
	mov	r0, r4
	sub	sp, r11, #8
	pop	{r4, r5, r11, pc}
.Ltmp28:
.LBB0_5:
	@DEBUG_VALUE: setup:this <- %R4
	@DEBUG_VALUE: MonoFilePlayer:this <- %R4
.Ltmp2:
	mov	r5, r0
.Ltmp29:
	.loc	8 160 37                @ /usr/bin/../lib/gcc/arm-linux-gnueabihf/6.3.0/../../../../include/c++/6.3.0/bits/stl_vector.h:160:37
	ldr	r0, [r4]
.Ltmp30:
	@DEBUG_VALUE: _M_deallocate:__p <- %R0
	@DEBUG_VALUE: deallocate:__p <- %R0
	@DEBUG_VALUE: deallocate:__p <- %R0
	.loc	8 177 6                 @ /usr/bin/../lib/gcc/arm-linux-gnueabihf/6.3.0/../../../../include/c++/6.3.0/bits/stl_vector.h:177:6
	cmp	r0, #0
	beq	.LBB0_7
.Ltmp31:
@ BB#6:
	@DEBUG_VALUE: deallocate:__p <- %R0
	@DEBUG_VALUE: deallocate:__p <- %R0
	@DEBUG_VALUE: _M_deallocate:__p <- %R0
	@DEBUG_VALUE: setup:this <- %R4
	@DEBUG_VALUE: MonoFilePlayer:this <- %R4
	.loc	4 110 9                 @ /usr/bin/../lib/gcc/arm-linux-gnueabihf/6.3.0/../../../../include/c++/6.3.0/ext/new_allocator.h:110:9
	bl	_ZdlPv
.Ltmp32:
.LBB0_7:                                @ %_ZNSt6vectorIfSaIfEED2Ev.exit
	@DEBUG_VALUE: setup:this <- %R4
	@DEBUG_VALUE: MonoFilePlayer:this <- %R4
	mov	r0, r5
	mov	lr, pc
	b	_Unwind_Resume
.Lfunc_end0:
	.size	_ZN14MonoFilePlayerC2ERKNSt7__cxx1112basic_stringIcSt11char_traitsIcESaIcEEEbb, .Lfunc_end0-_ZN14MonoFilePlayerC2ERKNSt7__cxx1112basic_stringIcSt11char_traitsIcESaIcEEEbb
	.cfi_endproc
	.file	32 "/root/Bela/projects/board_6" "MonoFilePlayer.h"
	.file	33 "/usr/bin/../lib/gcc/arm-linux-gnueabihf/6.3.0/../../../../include/c++/6.3.0/bits" "stringfwd.h"
	.globl	__gxx_personality_v0
	.personality __gxx_personality_v0
	.handlerdata
	.p2align	2
GCC_except_table0:
.Lexception0:
	.byte	255                     @ @LPStart Encoding = omit
	.byte	0                       @ @TType Encoding = absptr
	.asciz	"\234"                  @ @TType base offset
	.byte	3                       @ Call site Encoding = udata4
	.byte	26                      @ Call site table length
	.long	.Ltmp0-.Lfunc_begin0    @ >> Call Site 1 <<
	.long	.Ltmp1-.Ltmp0           @   Call between .Ltmp0 and .Ltmp1
	.long	.Ltmp2-.Lfunc_begin0    @     jumps to .Ltmp2
	.byte	0                       @   On action: cleanup
	.long	.Ltmp1-.Lfunc_begin0    @ >> Call Site 2 <<
	.long	.Lfunc_end0-.Ltmp1      @   Call between .Ltmp1 and .Lfunc_end0
	.long	0                       @     has no landing pad
	.byte	0                       @   On action: cleanup
	.p2align	2
	.fnend

	.globl	_ZN14MonoFilePlayer5setupERKNSt7__cxx1112basic_stringIcSt11char_traitsIcESaIcEEEbb
	.p2align	2
	.type	_ZN14MonoFilePlayer5setupERKNSt7__cxx1112basic_stringIcSt11char_traitsIcESaIcEEEbb,%function
_ZN14MonoFilePlayer5setupERKNSt7__cxx1112basic_stringIcSt11char_traitsIcESaIcEEEbb: @ @_ZN14MonoFilePlayer5setupERKNSt7__cxx1112basic_stringIcSt11char_traitsIcESaIcEEEbb
.Lfunc_begin1:
	.loc	30 24 0                 @ /root/Bela/projects/board_6/MonoFilePlayer.cpp:24:0
	.fnstart
	.cfi_startproc
@ BB#0:
	.save	{r4, r5, r11, lr}
	push	{r4, r5, r11, lr}
.Ltmp33:
	.cfi_def_cfa_offset 16
.Ltmp34:
	.cfi_offset lr, -4
.Ltmp35:
	.cfi_offset r11, -8
.Ltmp36:
	.cfi_offset r5, -12
.Ltmp37:
	.cfi_offset r4, -16
	.setfp	r11, sp, #8
	add	r11, sp, #8
.Ltmp38:
	.cfi_def_cfa r11, 8
	.pad	#16
	sub	sp, sp, #16
	@DEBUG_VALUE: setup:this <- %R0
	@DEBUG_VALUE: setup:filename <- %R1
	@DEBUG_VALUE: setup:loop [bit_piece offset=0 size=1] <- %R2
	@DEBUG_VALUE: setup:autostart [bit_piece offset=0 size=1] <- %R3
	mov	r4, r0
.Ltmp39:
	@DEBUG_VALUE: setup:this <- %R4
	add	r0, sp, #4
.Ltmp40:
	@DEBUG_VALUE: _M_move_assign:__x <- %R0
	@DEBUG_VALUE: operator=:__move_storage <- 1
	@DEBUG_VALUE: operator=:__x <- %R0
	mov	r5, #0
.Ltmp41:
	.loc	30 25 15 prologue_end   @ /root/Bela/projects/board_6/MonoFilePlayer.cpp:25:15
	str	r5, [r4, #12]
	.loc	30 26 13                @ /root/Bela/projects/board_6/MonoFilePlayer.cpp:26:13
	strb	r3, [r4, #17]
	.loc	30 27 8                 @ /root/Bela/projects/board_6/MonoFilePlayer.cpp:27:8
	strb	r2, [r4, #16]
	.loc	30 30 18 discriminator 1 @ /root/Bela/projects/board_6/MonoFilePlayer.cpp:30:18
	bl	_ZN18AudioFileUtilities8loadMonoERKNSt7__cxx1112basic_stringIcSt11char_traitsIcESaIcEEE
.Ltmp42:
	.loc	31 191 13               @ /usr/bin/../lib/gcc/arm-linux-gnueabihf/6.3.0/../../../../include/c++/6.3.0/bits/move.h:191:13
	ldr	r1, [sp, #4]
.Ltmp43:
	.loc	31 190 19               @ /usr/bin/../lib/gcc/arm-linux-gnueabihf/6.3.0/../../../../include/c++/6.3.0/bits/move.h:190:19
	ldr	r0, [r4]
.Ltmp44:
	@DEBUG_VALUE: _M_deallocate:__p <- %R0
	@DEBUG_VALUE: deallocate:__p <- %R0
	@DEBUG_VALUE: deallocate:__p <- %R0
	.loc	31 191 11               @ /usr/bin/../lib/gcc/arm-linux-gnueabihf/6.3.0/../../../../include/c++/6.3.0/bits/move.h:191:11
	str	r1, [r4]
	.loc	31 192 11               @ /usr/bin/../lib/gcc/arm-linux-gnueabihf/6.3.0/../../../../include/c++/6.3.0/bits/move.h:192:11
	str	r5, [sp, #4]
.Ltmp45:
	.loc	8 177 6                 @ /usr/bin/../lib/gcc/arm-linux-gnueabihf/6.3.0/../../../../include/c++/6.3.0/bits/stl_vector.h:177:6
	cmp	r0, #0
.Ltmp46:
	.loc	31 191 13               @ /usr/bin/../lib/gcc/arm-linux-gnueabihf/6.3.0/../../../../include/c++/6.3.0/bits/move.h:191:13
	ldr	r1, [sp, #8]
	.loc	31 191 11 is_stmt 0     @ /usr/bin/../lib/gcc/arm-linux-gnueabihf/6.3.0/../../../../include/c++/6.3.0/bits/move.h:191:11
	str	r1, [r4, #4]
	.loc	31 192 11 is_stmt 1     @ /usr/bin/../lib/gcc/arm-linux-gnueabihf/6.3.0/../../../../include/c++/6.3.0/bits/move.h:192:11
	str	r5, [sp, #8]
.Ltmp47:
	.loc	31 191 13               @ /usr/bin/../lib/gcc/arm-linux-gnueabihf/6.3.0/../../../../include/c++/6.3.0/bits/move.h:191:13
	ldr	r1, [sp, #12]
	.loc	31 191 11 is_stmt 0     @ /usr/bin/../lib/gcc/arm-linux-gnueabihf/6.3.0/../../../../include/c++/6.3.0/bits/move.h:191:11
	str	r1, [r4, #8]
	.loc	31 192 11 is_stmt 1     @ /usr/bin/../lib/gcc/arm-linux-gnueabihf/6.3.0/../../../../include/c++/6.3.0/bits/move.h:192:11
	str	r5, [sp, #12]
	beq	.LBB1_3
.Ltmp48:
@ BB#1:                                 @ %_ZNSt6vectorIfSaIfEEaSEOS1_.exit
	@DEBUG_VALUE: deallocate:__p <- %R0
	@DEBUG_VALUE: deallocate:__p <- %R0
	@DEBUG_VALUE: _M_deallocate:__p <- %R0
	@DEBUG_VALUE: setup:this <- %R4
	.loc	4 110 9                 @ /usr/bin/../lib/gcc/arm-linux-gnueabihf/6.3.0/../../../../include/c++/6.3.0/ext/new_allocator.h:110:9
	bl	_ZdlPv
.Ltmp49:
	.loc	8 160 37                @ /usr/bin/../lib/gcc/arm-linux-gnueabihf/6.3.0/../../../../include/c++/6.3.0/bits/stl_vector.h:160:37
	ldr	r0, [sp, #4]
.Ltmp50:
	@DEBUG_VALUE: _M_deallocate:__p <- %R0
	@DEBUG_VALUE: deallocate:__p <- %R0
	@DEBUG_VALUE: deallocate:__p <- %R0
	.loc	8 177 6                 @ /usr/bin/../lib/gcc/arm-linux-gnueabihf/6.3.0/../../../../include/c++/6.3.0/bits/stl_vector.h:177:6
	cmp	r0, #0
	beq	.LBB1_3
.Ltmp51:
@ BB#2:
	@DEBUG_VALUE: deallocate:__p <- %R0
	@DEBUG_VALUE: deallocate:__p <- %R0
	@DEBUG_VALUE: _M_deallocate:__p <- %R0
	@DEBUG_VALUE: setup:this <- %R4
	.loc	4 110 9                 @ /usr/bin/../lib/gcc/arm-linux-gnueabihf/6.3.0/../../../../include/c++/6.3.0/ext/new_allocator.h:110:9
	bl	_ZdlPv
.Ltmp52:
.LBB1_3:                                @ %_ZNSt6vectorIfSaIfEED2Ev.exit
	@DEBUG_VALUE: setup:this <- %R4
	.loc	8 558 45                @ /usr/bin/../lib/gcc/arm-linux-gnueabihf/6.3.0/../../../../include/c++/6.3.0/bits/stl_vector.h:558:45
	ldm	r4, {r1, r2}
	mov	r0, #1
.Ltmp53:
	.loc	30 33 5                 @ /root/Bela/projects/board_6/MonoFilePlayer.cpp:33:5
	cmp	r1, r2
	moveq	r0, #0
.Ltmp54:
	.loc	30 34 14                @ /root/Bela/projects/board_6/MonoFilePlayer.cpp:34:14
	strbeq	r0, [r4, #17]
.Ltmp55:
	.loc	30 39 1                 @ /root/Bela/projects/board_6/MonoFilePlayer.cpp:39:1
	sub	sp, r11, #8
	pop	{r4, r5, r11, pc}
.Ltmp56:
.Lfunc_end1:
	.size	_ZN14MonoFilePlayer5setupERKNSt7__cxx1112basic_stringIcSt11char_traitsIcESaIcEEEbb, .Lfunc_end1-_ZN14MonoFilePlayer5setupERKNSt7__cxx1112basic_stringIcSt11char_traitsIcESaIcEEEbb
	.cfi_endproc
	.fnend

	.globl	_ZN14MonoFilePlayer7triggerEv
	.p2align	2
	.type	_ZN14MonoFilePlayer7triggerEv,%function
_ZN14MonoFilePlayer7triggerEv:          @ @_ZN14MonoFilePlayer7triggerEv
.Lfunc_begin2:
	.loc	30 43 0                 @ /root/Bela/projects/board_6/MonoFilePlayer.cpp:43:0
	.fnstart
	.cfi_startproc
@ BB#0:
	@DEBUG_VALUE: trigger:this <- %R0
	.loc	8 558 45 prologue_end   @ /usr/bin/../lib/gcc/arm-linux-gnueabihf/6.3.0/../../../../include/c++/6.3.0/bits/stl_vector.h:558:45
	ldm	r0, {r1, r2}
.Ltmp57:
	.loc	30 44 5                 @ /root/Bela/projects/board_6/MonoFilePlayer.cpp:44:5
	cmp	r1, r2
	movne	r1, #0
	.loc	30 46 15                @ /root/Bela/projects/board_6/MonoFilePlayer.cpp:46:15
	strne	r1, [r0, #12]
	.loc	30 47 13                @ /root/Bela/projects/board_6/MonoFilePlayer.cpp:47:13
	movne	r1, #1
	strbne	r1, [r0, #17]
	.loc	30 48 1 discriminator 1 @ /root/Bela/projects/board_6/MonoFilePlayer.cpp:48:1
	bx	lr
.Ltmp58:
.Lfunc_end2:
	.size	_ZN14MonoFilePlayer7triggerEv, .Lfunc_end2-_ZN14MonoFilePlayer7triggerEv
	.cfi_endproc
	.fnend

	.globl	_ZN14MonoFilePlayer7processEv
	.p2align	2
	.type	_ZN14MonoFilePlayer7processEv,%function
_ZN14MonoFilePlayer7processEv:          @ @_ZN14MonoFilePlayer7processEv
.Lfunc_begin3:
	.loc	30 52 0                 @ /root/Bela/projects/board_6/MonoFilePlayer.cpp:52:0
	.fnstart
	.cfi_startproc
@ BB#0:
	@DEBUG_VALUE: process:this <- %R0
	.loc	30 53 6 prologue_end    @ /root/Bela/projects/board_6/MonoFilePlayer.cpp:53:6
	ldrb	r1, [r0, #17]
.Ltmp59:
	.loc	30 53 5 is_stmt 0       @ /root/Bela/projects/board_6/MonoFilePlayer.cpp:53:5
	cmp	r1, #0
	beq	.LBB3_4
@ BB#1:
	@DEBUG_VALUE: process:this <- %R0
	.loc	30 57 28 is_stmt 1      @ /root/Bela/projects/board_6/MonoFilePlayer.cpp:57:28
	ldr	r2, [r0, #12]
.Ltmp60:
	@DEBUG_VALUE: operator[]:__n <- %R2
	.loc	8 781 32                @ /usr/bin/../lib/gcc/arm-linux-gnueabihf/6.3.0/../../../../include/c++/6.3.0/bits/stl_vector.h:781:32
	ldr	r1, [r0]
	.loc	8 781 41 is_stmt 0      @ /usr/bin/../lib/gcc/arm-linux-gnueabihf/6.3.0/../../../../include/c++/6.3.0/bits/stl_vector.h:781:41
	add	r3, r1, r2, lsl #2
.Ltmp61:
	.loc	30 60 17 is_stmt 1      @ /root/Bela/projects/board_6/MonoFilePlayer.cpp:60:17
	add	r2, r2, #1
.Ltmp62:
	.loc	30 57 14                @ /root/Bela/projects/board_6/MonoFilePlayer.cpp:57:14
	vldr	s0, [r3]
.Ltmp63:
	@DEBUG_VALUE: process:out <- %S0
	.loc	30 60 17                @ /root/Bela/projects/board_6/MonoFilePlayer.cpp:60:17
	str	r2, [r0, #12]
.Ltmp64:
	.loc	8 656 40                @ /usr/bin/../lib/gcc/arm-linux-gnueabihf/6.3.0/../../../../include/c++/6.3.0/bits/stl_vector.h:656:40
	ldr	r3, [r0, #4]
	.loc	8 656 50 is_stmt 0      @ /usr/bin/../lib/gcc/arm-linux-gnueabihf/6.3.0/../../../../include/c++/6.3.0/bits/stl_vector.h:656:50
	sub	r1, r3, r1
.Ltmp65:
	.loc	30 63 8 is_stmt 1       @ /root/Bela/projects/board_6/MonoFilePlayer.cpp:63:8
	cmp	r2, r1, asr #2
	blo	.LBB3_3
.Ltmp66:
@ BB#2:
	@DEBUG_VALUE: process:out <- %S0
	@DEBUG_VALUE: process:this <- %R0
	mov	r1, #0
.Ltmp67:
	.loc	30 64 20                @ /root/Bela/projects/board_6/MonoFilePlayer.cpp:64:20
	str	r1, [r0, #12]
.Ltmp68:
	.loc	30 65 11                @ /root/Bela/projects/board_6/MonoFilePlayer.cpp:65:11
	ldrb	r2, [r0, #16]
.Ltmp69:
	.loc	30 65 10 is_stmt 0      @ /root/Bela/projects/board_6/MonoFilePlayer.cpp:65:10
	cmp	r2, #0
.Ltmp70:
	.loc	30 66 19 is_stmt 1      @ /root/Bela/projects/board_6/MonoFilePlayer.cpp:66:19
	strbeq	r1, [r0, #17]
.Ltmp71:
.LBB3_3:
	@DEBUG_VALUE: process:out <- %S0
	@DEBUG_VALUE: process:this <- %R0
	.loc	30 70 1 discriminator 1 @ /root/Bela/projects/board_6/MonoFilePlayer.cpp:70:1
                                        @ kill: %S0<def> %S0<kill> %D0<kill>
.Ltmp72:
	bx	lr
.LBB3_4:
	@DEBUG_VALUE: process:this <- %R0
	vmov.i32	d0, #0x0
                                        @ kill: %S0<def> %S0<kill> %D0<kill>
	bx	lr
.Ltmp73:
.Lfunc_end3:
	.size	_ZN14MonoFilePlayer7processEv, .Lfunc_end3-_ZN14MonoFilePlayer7processEv
	.cfi_endproc
	.fnend

	.section	".note.GNU-stack","",%progbits
	.eabi_attribute	30, 2	@ Tag_ABI_optimization_goals