	.text
	.syntax unified
	.eabi_attribute	67, "2.09"	@ Tag_conformance
	.cpu	cortex-a8
	.eabi_attribute	6, 10	@ Tag_CPU_arch
	.eabi_attribute	7, 65	@ Tag_CPU_arch_profile
	.eabi_attribute	8, 1	@ Tag_ARM_ISA_use
	.eabi_attribute	9, 2	@ Tag_THUMB_ISA_use
	.fpu	neon
	.eabi_attribute	17, 1	@ Tag_ABI_PCS_GOT_use
	.eabi_attribute	20, 2	@ Tag_ABI_FP_denormal
	.eabi_attribute	23, 1	@ Tag_ABI_FP_number_model
	.eabi_attribute	34, 1	@ Tag_CPU_unaligned_access
	.eabi_attribute	24, 1	@ Tag_ABI_align_needed
	.eabi_attribute	25, 1	@ Tag_ABI_align_preserved
	.eabi_attribute	28, 1	@ Tag_ABI_VFP_args
	.eabi_attribute	38, 1	@ Tag_ABI_FP_16bit_format
	.eabi_attribute	18, 4	@ Tag_ABI_PCS_wchar_t
	.eabi_attribute	26, 2	@ Tag_ABI_enum_size
	.eabi_attribute	14, 0	@ Tag_ABI_PCS_R9_use
	.eabi_attribute	68, 1	@ Tag_Virtualization_use
	.file	"/root/Bela/projects/board_6/build/WriteFile.bc"
	.file	1 "/root/Bela/projects/board_6" "WriteFile.h"
	.file	2 "/usr/bin/../lib/gcc/arm-linux-gnueabihf/6.3.0/../../../../include/arm-linux-gnueabihf/c++/6.3.0/bits" "c++config.h"
	.file	3 "/usr/bin/../lib/gcc/arm-linux-gnueabihf/6.3.0/../../../../include/c++/6.3.0/bits" "stringfwd.h"
	.file	4 "/usr/bin/../lib/gcc/arm-linux-gnueabihf/6.3.0/../../../../include/c++/6.3.0/bits" "alloc_traits.h"
	.file	5 "/usr/bin/../lib/gcc/arm-linux-gnueabihf/6.3.0/../../../../include/c++/6.3.0/ext" "alloc_traits.h"
	.file	6 "/usr/bin/../lib/gcc/arm-linux-gnueabihf/6.3.0/../../../../include/c++/6.3.0/bits" "stl_vector.h"
	.file	7 "/usr/bin/../lib/gcc/arm-linux-gnueabihf/6.3.0/../../../../include/c++/6.3.0/bits" "stl_iterator.h"
	.file	8 "/usr/bin/../lib/gcc/arm-linux-gnueabihf/6.3.0/../../../../include/c++/6.3.0/bits" "stl_iterator_base_types.h"
	.file	9 "/usr/bin/../lib/gcc/arm-linux-gnueabihf/6.3.0/../../../../include/c++/6.3.0" "type_traits"
	.file	10 "/usr/bin/../lib/gcc/arm-linux-gnueabihf/6.3.0/../../../../include/c++/6.3.0/ext" "new_allocator.h"
	.file	11 "/usr/bin/../lib/gcc/arm-linux-gnueabihf/6.3.0/../../../../include/arm-linux-gnueabihf/c++/6.3.0/bits" "c++allocator.h"
	.file	12 "/usr/bin/../lib/gcc/arm-linux-gnueabihf/6.3.0/../../../../include/c++/6.3.0/bits" "allocator.h"
	.file	13 "/usr/include" "libio.h"
	.file	14 "/usr/include/arm-linux-gnueabihf/bits" "types.h"
	.file	15 "/usr/lib/llvm-3.9/bin/../lib/clang/3.9.1/include" "stddef.h"
	.file	16 "/usr/include" "stdio.h"
	.file	17 "/usr/include/arm-linux-gnueabihf/bits" "pthreadtypes.h"
	.file	18 "/usr/bin/../lib/gcc/arm-linux-gnueabihf/6.3.0/../../../../include/arm-linux-gnueabihf/c++/6.3.0/bits" "gthr-default.h"
	.file	19 "/usr/bin/../lib/gcc/arm-linux-gnueabihf/6.3.0/../../../../include/c++/6.3.0" "thread"
	.file	20 "/usr/bin/../lib/gcc/arm-linux-gnueabihf/6.3.0/../../../../include/c++/6.3.0/bits" "unique_ptr.h"
	.file	21 "/usr/bin/../lib/gcc/arm-linux-gnueabihf/6.3.0/../../../../include/c++/6.3.0" "tuple"
	.file	22 "/usr/bin/../lib/gcc/arm-linux-gnueabihf/6.3.0/../../../../include/c++/6.3.0/bits" "uses_allocator.h"
	.file	23 "/root/Bela/projects/board_6" "WriteFile.cpp"
	.file	24 "/usr/bin/../lib/gcc/arm-linux-gnueabihf/6.3.0/../../../../include/c++/6.3.0" "functional"
	.file	25 "/usr/bin/../lib/gcc/arm-linux-gnueabihf/6.3.0/../../../../include/c++/6.3.0/bits" "std_mutex.h"
	.file	26 "/usr/bin/../lib/gcc/arm-linux-gnueabihf/6.3.0/../../../../include/c++/6.3.0/ext" "concurrence.h"
	.file	27 "/usr/bin/../lib/gcc/arm-linux-gnueabihf/6.3.0/../../../../include/c++/6.3.0/bits" "basic_string.h"
	.file	28 "/usr/bin/../lib/gcc/arm-linux-gnueabihf/6.3.0/../../../../include/arm-linux-gnueabihf/c++/6.3.0/bits" "error_constants.h"
	.file	29 "/usr/bin/../lib/gcc/arm-linux-gnueabihf/6.3.0/../../../../include/c++/6.3.0/bits" "cpp_type_traits.h"
	.file	30 "/usr/bin/../lib/gcc/arm-linux-gnueabihf/6.3.0/../../../../include/c++/6.3.0/bits" "char_traits.h"
	.file	31 "/usr/bin/../lib/gcc/arm-linux-gnueabihf/6.3.0/../../../../include/c++/6.3.0/bits" "predefined_ops.h"
	.file	32 "/usr/bin/../lib/gcc/arm-linux-gnueabihf/6.3.0/../../../../include/c++/6.3.0/debug" "debug.h"
	.file	33 "/usr/bin/../lib/gcc/arm-linux-gnueabihf/6.3.0/../../../../include/c++/6.3.0/bits" "exception_ptr.h"
	.file	34 "/usr/include" "wchar.h"
	.file	35 "/usr/lib/llvm-3.9/bin/../lib/clang/3.9.1/include" "stdarg.h"
	.file	36 "/usr/include" "stdint.h"
	.file	37 "/usr/include" "locale.h"
	.file	38 "/usr/include" "ctype.h"
	.file	39 "/usr/include" "stdlib.h"
	.file	40 "/usr/include/arm-linux-gnueabihf/bits" "stdlib-float.h"
	.file	41 "/usr/include/arm-linux-gnueabihf/bits" "stdlib-bsearch.h"
	.file	42 "/usr/bin/../lib/gcc/arm-linux-gnueabihf/6.3.0/../../../../include/c++/6.3.0" "cstdlib"
	.file	43 "/usr/include" "_G_config.h"
	.file	44 "/usr/include/arm-linux-gnueabihf/bits" "stdio.h"
	.file	45 "/root/Bela/projects/board_6/build" "WriteFile.cpp"
	.file	46 "/usr/include" "time.h"
	.section	.text._ZNSt6vectorIP9WriteFileSaIS1_EED2Ev,"axG",%progbits,_ZNSt6vectorIP9WriteFileSaIS1_EED2Ev,comdat
	.weak	_ZNSt6vectorIP9WriteFileSaIS1_EED2Ev
	.p2align	2
	.type	_ZNSt6vectorIP9WriteFileSaIS1_EED2Ev,%function
_ZNSt6vectorIP9WriteFileSaIS1_EED2Ev:   @ @_ZNSt6vectorIP9WriteFileSaIS1_EED2Ev
.Lfunc_begin0:
	.loc	6 426 0                 @ /usr/bin/../lib/gcc/arm-linux-gnueabihf/6.3.0/../../../../include/c++/6.3.0/bits/stl_vector.h:426:0
	.fnstart
	.cfi_startproc
@ BB#0:
	.save	{r4, r10, r11, lr}
	push	{r4, r10, r11, lr}
.Ltmp0:
	.cfi_def_cfa_offset 16
.Ltmp1:
	.cfi_offset lr, -4
.Ltmp2:
	.cfi_offset r11, -8
.Ltmp3:
	.cfi_offset r10, -12
.Ltmp4:
	.cfi_offset r4, -16
	.setfp	r11, sp, #8
	add	r11, sp, #8
.Ltmp5:
	.cfi_def_cfa r11, 8
	@DEBUG_VALUE: ~vector:this <- %R0
	mov	r4, r0
.Ltmp6:
	@DEBUG_VALUE: ~vector:this <- %R4
	.loc	6 160 37 prologue_end   @ /usr/bin/../lib/gcc/arm-linux-gnueabihf/6.3.0/../../../../include/c++/6.3.0/bits/stl_vector.h:160:37
	ldr	r0, [r4]
.Ltmp7:
	@DEBUG_VALUE: _M_deallocate:__p <- %R0
	@DEBUG_VALUE: deallocate:__p <- %R0
	@DEBUG_VALUE: deallocate:__p <- %R0
	.loc	6 177 6                 @ /usr/bin/../lib/gcc/arm-linux-gnueabihf/6.3.0/../../../../include/c++/6.3.0/bits/stl_vector.h:177:6
	cmp	r0, #0
	beq	.LBB0_2
.Ltmp8:
@ BB#1:
	@DEBUG_VALUE: deallocate:__p <- %R0
	@DEBUG_VALUE: deallocate:__p <- %R0
	@DEBUG_VALUE: _M_deallocate:__p <- %R0
	@DEBUG_VALUE: ~vector:this <- %R4
	.loc	10 110 9                @ /usr/bin/../lib/gcc/arm-linux-gnueabihf/6.3.0/../../../../include/c++/6.3.0/ext/new_allocator.h:110:9
	bl	_ZdlPv
.Ltmp9:
.LBB0_2:                                @ %_ZNSt12_Vector_baseIP9WriteFileSaIS1_EED2Ev.exit
	@DEBUG_VALUE: ~vector:this <- %R4
	.loc	6 427 33 discriminator 1 @ /usr/bin/../lib/gcc/arm-linux-gnueabihf/6.3.0/../../../../include/c++/6.3.0/bits/stl_vector.h:427:33
	mov	r0, r4
	pop	{r4, r10, r11, pc}
.Ltmp10:
.Lfunc_end0:
	.size	_ZNSt6vectorIP9WriteFileSaIS1_EED2Ev, .Lfunc_end0-_ZNSt6vectorIP9WriteFileSaIS1_EED2Ev
	.cfi_endproc
	.fnend

	.section	.text._ZN14autojointhreadD2Ev,"axG",%progbits,_ZN14autojointhreadD2Ev,comdat
	.weak	_ZN14autojointhreadD2Ev
	.p2align	2
	.type	_ZN14autojointhreadD2Ev,%function
_ZN14autojointhreadD2Ev:                @ @_ZN14autojointhreadD2Ev
.Lfunc_begin1:
	.loc	23 33 0                 @ /root/Bela/projects/board_6/WriteFile.cpp:33:0
	.fnstart
	.cfi_startproc
@ BB#0:
	.save	{r4, r5, r11, lr}
	push	{r4, r5, r11, lr}
.Ltmp14:
	.cfi_def_cfa_offset 16
.Ltmp15:
	.cfi_offset lr, -4
.Ltmp16:
	.cfi_offset r11, -8
.Ltmp17:
	.cfi_offset r5, -12
.Ltmp18:
	.cfi_offset r4, -16
	.setfp	r11, sp, #8
	add	r11, sp, #8
.Ltmp19:
	.cfi_def_cfa r11, 8
	@DEBUG_VALUE: ~autojointhread:this <- %R0
	mov	r4, r0
.Ltmp20:
	@DEBUG_VALUE: ~autojointhread:this <- %R4
	.loc	19 165 16 prologue_end  @ /usr/bin/../lib/gcc/arm-linux-gnueabihf/6.3.0/../../../../include/c++/6.3.0/thread:165:16
	ldr	r0, [r4]
.Ltmp21:
	.loc	23 34 6                 @ /root/Bela/projects/board_6/WriteFile.cpp:34:6
	cmp	r0, #0
	beq	.LBB1_3
.Ltmp22:
@ BB#1:
	@DEBUG_VALUE: ~autojointhread:this <- %R4
	.loc	23 36 11                @ /root/Bela/projects/board_6/WriteFile.cpp:36:11
.Ltmp11:
	mov	r0, r4
	bl	_ZNSt6thread4joinEv
.Ltmp12:
.Ltmp23:
@ BB#2:
	@DEBUG_VALUE: ~autojointhread:this <- %R4
	.loc	19 165 16               @ /usr/bin/../lib/gcc/arm-linux-gnueabihf/6.3.0/../../../../include/c++/6.3.0/thread:165:16
	ldr	r0, [r4]
.Ltmp24:
	.loc	19 145 11               @ /usr/bin/../lib/gcc/arm-linux-gnueabihf/6.3.0/../../../../include/c++/6.3.0/thread:145:11
	cmp	r0, #0
	bne	.LBB1_4
.Ltmp25:
.LBB1_3:                                @ %_ZNSt6threadD2Ev.exit
	@DEBUG_VALUE: ~autojointhread:this <- %R4
	.loc	23 38 2 discriminator 1 @ /root/Bela/projects/board_6/WriteFile.cpp:38:2
	mov	r0, r4
	pop	{r4, r5, r11, pc}
.Ltmp26:
.LBB1_4:
	@DEBUG_VALUE: ~autojointhread:this <- %R4
	.loc	19 146 2                @ /usr/bin/../lib/gcc/arm-linux-gnueabihf/6.3.0/../../../../include/c++/6.3.0/thread:146:2
	mov	lr, pc
	b	_ZSt9terminatev
.Ltmp27:
.LBB1_5:
	@DEBUG_VALUE: ~autojointhread:this <- %R4
.Ltmp13:
	mov	r5, r0
	.loc	23 38 2                 @ /root/Bela/projects/board_6/WriteFile.cpp:38:2
	mov	r0, r4
	bl	_ZNSt6threadD2Ev
	.loc	23 38 2 is_stmt 0 discriminator 2 @ /root/Bela/projects/board_6/WriteFile.cpp:38:2
	mov	r0, r5
	mov	lr, pc
	b	__clang_call_terminate
.Ltmp28:
.Lfunc_end1:
	.size	_ZN14autojointhreadD2Ev, .Lfunc_end1-_ZN14autojointhreadD2Ev
	.cfi_endproc
	.globl	__gxx_personality_v0
	.personality __gxx_personality_v0
	.handlerdata
	.p2align	2
GCC_except_table1:
.Lexception0:
	.byte	255                     @ @LPStart Encoding = omit
	.byte	0                       @ @TType Encoding = absptr
	.asciz	"\242\200\200"          @ @TType base offset
	.byte	3                       @ Call site Encoding = udata4
	.byte	26                      @ Call site table length
	.long	.Ltmp11-.Lfunc_begin1   @ >> Call Site 1 <<
	.long	.Ltmp12-.Ltmp11         @   Call between .Ltmp11 and .Ltmp12
	.long	.Ltmp13-.Lfunc_begin1   @     jumps to .Ltmp13
	.byte	1                       @   On action: 1
	.long	.Ltmp12-.Lfunc_begin1   @ >> Call Site 2 <<
	.long	.Lfunc_end1-.Ltmp12     @   Call between .Ltmp12 and .Lfunc_end1
	.long	0                       @     has no landing pad
	.byte	0                       @   On action: cleanup
	.byte	1                       @ >> Action Record 1 <<
                                        @   Catch TypeInfo 1
	.byte	0                       @   No further actions
                                        @ >> Catch TypeInfos <<
	.long	0                       @ TypeInfo 1
	.p2align	2
	.fnend

	.text
	.globl	_ZN9WriteFile17staticConstructorEv
	.p2align	2
	.type	_ZN9WriteFile17staticConstructorEv,%function
_ZN9WriteFile17staticConstructorEv:     @ @_ZN9WriteFile17staticConstructorEv
.Lfunc_begin2:
	.loc	23 54 0 is_stmt 1       @ /root/Bela/projects/board_6/WriteFile.cpp:54:0
	.fnstart
	.cfi_startproc
@ BB#0:
	.save	{r4, r5, r6, r7, r8, r10, r11, lr}
	push	{r4, r5, r6, r7, r8, r10, r11, lr}
.Ltmp44:
	.cfi_def_cfa_offset 32
.Ltmp45:
	.cfi_offset lr, -4
.Ltmp46:
	.cfi_offset r11, -8
.Ltmp47:
	.cfi_offset r10, -12
.Ltmp48:
	.cfi_offset r8, -16
.Ltmp49:
	.cfi_offset r7, -20
.Ltmp50:
	.cfi_offset r6, -24
.Ltmp51:
	.cfi_offset r5, -28
.Ltmp52:
	.cfi_offset r4, -32
	.setfp	r11, sp, #24
	add	r11, sp, #24
.Ltmp53:
	.cfi_def_cfa r11, 8
	.pad	#24
	sub	sp, sp, #24
.Ltmp54:
	.loc	18 747 7 prologue_end   @ /usr/bin/../lib/gcc/arm-linux-gnueabihf/6.3.0/../../../../include/arm-linux-gnueabihf/c++/6.3.0/bits/gthr-default.h:747:7
	movw	r6, :lower16:__pthread_key_create
	movt	r6, :upper16:__pthread_key_create
	cmp	r6, #0
	beq	.LBB2_2
@ BB#1:                                 @ %_ZL20__gthread_mutex_lockP15pthread_mutex_t.exit.i.i.i
.Ltmp55:
	.loc	18 748 12               @ /usr/bin/../lib/gcc/arm-linux-gnueabihf/6.3.0/../../../../include/arm-linux-gnueabihf/c++/6.3.0/bits/gthr-default.h:748:12
	movw	r0, :lower16:.L_MergedGlobals.1
	movt	r0, :upper16:.L_MergedGlobals.1
	add	r0, r0, #4
	bl	pthread_mutex_lock
.Ltmp56:
	@DEBUG_VALUE: lock:__e <- %R0
	.loc	25 106 11               @ /usr/bin/../lib/gcc/arm-linux-gnueabihf/6.3.0/../../../../include/c++/6.3.0/bits/std_mutex.h:106:11
	cmp	r0, #0
	bne	.LBB2_22
.Ltmp57:
.LBB2_2:                                @ %_ZNSt11unique_lockISt5mutexEC2ERS0_.exit
	.loc	23 56 5                 @ /root/Bela/projects/board_6/WriteFile.cpp:56:5
	movw	r8, :lower16:.L_MergedGlobals
	movt	r8, :upper16:.L_MergedGlobals
	ldrb	r0, [r8]
.Ltmp58:
	.loc	23 56 5 is_stmt 0       @ /root/Bela/projects/board_6/WriteFile.cpp:56:5
	cmp	r0, #0
	bne	.LBB2_17
@ BB#3:                                 @ %_ZNSt11unique_lockISt5mutexE4lockEv.exit.preheader
.Ltmp59:
	.loc	19 165 16 is_stmt 1     @ /usr/bin/../lib/gcc/arm-linux-gnueabihf/6.3.0/../../../../include/c++/6.3.0/thread:165:16
	movw	r7, :lower16:.L_MergedGlobals.1
	movt	r7, :upper16:.L_MergedGlobals.1
	ldr	r0, [r7]
.Ltmp60:
	.loc	23 59 2 discriminator 2 @ /root/Bela/projects/board_6/WriteFile.cpp:59:2
	cmp	r0, #0
	beq	.LBB2_11
@ BB#4:                                 @ %.lr.ph.preheader
.Ltmp61:
	.loc	23 61 3                 @ /root/Bela/projects/board_6/WriteFile.cpp:61:3
	movw	r5, #34464
.Ltmp62:
	.loc	18 778 12               @ /usr/bin/../lib/gcc/arm-linux-gnueabihf/6.3.0/../../../../include/arm-linux-gnueabihf/c++/6.3.0/bits/gthr-default.h:778:12
	add	r4, r7, #4
.Ltmp63:
	.loc	23 61 3                 @ /root/Bela/projects/board_6/WriteFile.cpp:61:3
	movt	r5, #1
.LBB2_5:                                @ %.lr.ph
                                        @ =>This Inner Loop Header: Depth=1
.Ltmp64:
	.loc	18 777 7                @ /usr/bin/../lib/gcc/arm-linux-gnueabihf/6.3.0/../../../../include/arm-linux-gnueabihf/c++/6.3.0/bits/gthr-default.h:777:7
	cmp	r6, #0
	beq	.LBB2_7
@ BB#6:                                 @   in Loop: Header=BB2_5 Depth=1
.Ltmp65:
	.loc	18 778 12               @ /usr/bin/../lib/gcc/arm-linux-gnueabihf/6.3.0/../../../../include/arm-linux-gnueabihf/c++/6.3.0/bits/gthr-default.h:778:12
	mov	r0, r4
	bl	pthread_mutex_unlock
.Ltmp66:
.LBB2_7:                                @ %_ZNSt11unique_lockISt5mutexE6unlockEv.exit
                                        @   in Loop: Header=BB2_5 Depth=1
	.loc	23 61 3                 @ /root/Bela/projects/board_6/WriteFile.cpp:61:3
.Ltmp29:
	mov	r0, r5
	bl	usleep
.Ltmp30:
@ BB#8:                                 @   in Loop: Header=BB2_5 Depth=1
.Ltmp67:
	.loc	18 747 7                @ /usr/bin/../lib/gcc/arm-linux-gnueabihf/6.3.0/../../../../include/arm-linux-gnueabihf/c++/6.3.0/bits/gthr-default.h:747:7
	cmp	r6, #0
	beq	.LBB2_10
@ BB#9:                                 @ %_ZL20__gthread_mutex_lockP15pthread_mutex_t.exit.i.i
                                        @   in Loop: Header=BB2_5 Depth=1
.Ltmp68:
	.loc	18 748 12               @ /usr/bin/../lib/gcc/arm-linux-gnueabihf/6.3.0/../../../../include/arm-linux-gnueabihf/c++/6.3.0/bits/gthr-default.h:748:12
	mov	r0, r4
	bl	pthread_mutex_lock
.Ltmp69:
	@DEBUG_VALUE: lock:__e <- %R0
	.loc	25 106 11               @ /usr/bin/../lib/gcc/arm-linux-gnueabihf/6.3.0/../../../../include/c++/6.3.0/bits/std_mutex.h:106:11
	cmp	r0, #0
	bne	.LBB2_20
.Ltmp70:
.LBB2_10:                               @ %_ZNSt11unique_lockISt5mutexE4lockEv.exit.backedge
                                        @   in Loop: Header=BB2_5 Depth=1
	.loc	19 165 16               @ /usr/bin/../lib/gcc/arm-linux-gnueabihf/6.3.0/../../../../include/c++/6.3.0/thread:165:16
	ldr	r0, [r7]
.Ltmp71:
	.loc	23 59 2 discriminator 2 @ /root/Bela/projects/board_6/WriteFile.cpp:59:2
	cmp	r0, #0
	bne	.LBB2_5
.LBB2_11:                               @ %_ZNSt11unique_lockISt5mutexE4lockEv.exit._crit_edge
	mov	r0, #1
	.loc	23 64 19                @ /root/Bela/projects/board_6/WriteFile.cpp:64:19
	strb	r0, [r8]
	.loc	23 65 17                @ /root/Bela/projects/board_6/WriteFile.cpp:65:17
	mov	r0, #0
	strb	r0, [r8, #3]
	.loc	23 66 15                @ /root/Bela/projects/board_6/WriteFile.cpp:66:15
	strb	r0, [r8, #1]
	.loc	23 67 18                @ /root/Bela/projects/board_6/WriteFile.cpp:67:18
	strb	r0, [r8, #2]
.Ltmp72:
	@DEBUG_VALUE: function<void (*)(), void, void>:__f <- %R0
	.loc	24 1643 4               @ /usr/bin/../lib/gcc/arm-linux-gnueabihf/6.3.0/../../../../include/c++/6.3.0/functional:1643:4
	movw	r0, :lower16:_ZN9WriteFile3runEv
.Ltmp73:
	movt	r0, :upper16:_ZN9WriteFile3runEv
	str	r0, [sp, #4]
.Ltmp74:
	.loc	24 2115 17              @ /usr/bin/../lib/gcc/arm-linux-gnueabihf/6.3.0/../../../../include/c++/6.3.0/functional:2115:17
	movw	r0, :lower16:_ZNSt17_Function_handlerIFvvEPS0_E9_M_invokeERKSt9_Any_data
	movt	r0, :upper16:_ZNSt17_Function_handlerIFvvEPS0_E9_M_invokeERKSt9_Any_data
	str	r0, [sp, #16]
	.loc	24 2116 17              @ /usr/bin/../lib/gcc/arm-linux-gnueabihf/6.3.0/../../../../include/c++/6.3.0/functional:2116:17
	movw	r0, :lower16:_ZNSt14_Function_base13_Base_managerIPFvvEE10_M_managerERSt9_Any_dataRKS4_St18_Manager_operation
	movt	r0, :upper16:_ZNSt14_Function_base13_Base_managerIPFvvEE10_M_managerERSt9_Any_dataRKS4_St18_Manager_operation
	str	r0, [sp, #12]
.Ltmp75:
	.loc	23 31 12 discriminator 1 @ /root/Bela/projects/board_6/WriteFile.cpp:31:12
.Ltmp35:
	add	r0, sp, #20
	add	r1, sp, #4
.Ltmp76:
	@DEBUG_VALUE: function<void (*)(), void, void>:this <- %R1
	bl	_ZNSt6threadC2IRSt8functionIFvvEEJEEEOT_DpOT0_
.Ltmp77:
.Ltmp36:
@ BB#12:                                @ %.noexc5
.Ltmp78:
	.loc	19 165 16               @ /usr/bin/../lib/gcc/arm-linux-gnueabihf/6.3.0/../../../../include/c++/6.3.0/thread:165:16
	ldr	r0, [r7]
.Ltmp79:
	.loc	19 153 11               @ /usr/bin/../lib/gcc/arm-linux-gnueabihf/6.3.0/../../../../include/c++/6.3.0/thread:153:11
	cmp	r0, #0
	bne	.LBB2_23
@ BB#13:
.Ltmp80:
	.file	47 "/usr/bin/../lib/gcc/arm-linux-gnueabihf/6.3.0/../../../../include/c++/6.3.0/bits" "move.h"
	.loc	47 191 11 discriminator 1 @ /usr/bin/../lib/gcc/arm-linux-gnueabihf/6.3.0/../../../../include/c++/6.3.0/bits/move.h:191:11
	ldr	r0, [sp, #20]
.Ltmp81:
	.loc	24 1689 11              @ /usr/bin/../lib/gcc/arm-linux-gnueabihf/6.3.0/../../../../include/c++/6.3.0/functional:1689:11
	ldr	r3, [sp, #12]
.Ltmp82:
	.loc	47 191 11 discriminator 1 @ /usr/bin/../lib/gcc/arm-linux-gnueabihf/6.3.0/../../../../include/c++/6.3.0/bits/move.h:191:11
	str	r0, [r7]
.Ltmp83:
	.loc	24 1689 11              @ /usr/bin/../lib/gcc/arm-linux-gnueabihf/6.3.0/../../../../include/c++/6.3.0/functional:1689:11
	cmp	r3, #0
	beq	.LBB2_16
@ BB#14:
.Ltmp84:
	.loc	24 1690 2               @ /usr/bin/../lib/gcc/arm-linux-gnueabihf/6.3.0/../../../../include/c++/6.3.0/functional:1690:2
.Ltmp41:
	add	r0, sp, #4
	mov	r2, #3
	mov	r1, r0
	blx	r3
.Ltmp42:
.Ltmp85:
@ BB#15:                                @ %._crit_edge
	.loc	19 181 20               @ /usr/bin/../lib/gcc/arm-linux-gnueabihf/6.3.0/../../../../include/c++/6.3.0/thread:181:20
	ldr	r0, [r7]
.Ltmp86:
.LBB2_16:
	.loc	23 70 23                @ /root/Bela/projects/board_6/WriteFile.cpp:70:23
	mov	r1, #60
	add	r2, sp, #20
.Ltmp87:
	@DEBUG_VALUE: staticConstructor:sch <- [%R2+0]
	str	r1, [sp, #20]
	.loc	23 71 2 discriminator 1 @ /root/Bela/projects/board_6/WriteFile.cpp:71:2
	mov	r1, #1
	bl	pthread_setschedparam
.Ltmp88:
.LBB2_17:
	.loc	18 777 7                @ /usr/bin/../lib/gcc/arm-linux-gnueabihf/6.3.0/../../../../include/arm-linux-gnueabihf/c++/6.3.0/bits/gthr-default.h:777:7
	cmp	r6, #0
	beq	.LBB2_19
@ BB#18:
.Ltmp89:
	.loc	18 778 12               @ /usr/bin/../lib/gcc/arm-linux-gnueabihf/6.3.0/../../../../include/arm-linux-gnueabihf/c++/6.3.0/bits/gthr-default.h:778:12
	movw	r0, :lower16:.L_MergedGlobals.1
	movt	r0, :upper16:.L_MergedGlobals.1
	add	r0, r0, #4
	bl	pthread_mutex_unlock
.Ltmp90:
.LBB2_19:                               @ %_ZNSt11unique_lockISt5mutexED2Ev.exit
	.loc	23 72 1 discriminator 3 @ /root/Bela/projects/board_6/WriteFile.cpp:72:1
	sub	sp, r11, #24
	pop	{r4, r5, r6, r7, r8, r10, r11, pc}
.LBB2_20:
.Ltmp91:
	@DEBUG_VALUE: lock:__e <- %R0
	.loc	25 107 2                @ /usr/bin/../lib/gcc/arm-linux-gnueabihf/6.3.0/../../../../include/c++/6.3.0/bits/std_mutex.h:107:2
.Ltmp32:
	mov	lr, pc
	b	_ZSt20__throw_system_errori
.Ltmp92:
.Ltmp33:
.Ltmp93:
@ BB#21:                                @ %.noexc4
.LBB2_22:
	@DEBUG_VALUE: lock:__e <- %R0
	.loc	25 107 2 is_stmt 0      @ /usr/bin/../lib/gcc/arm-linux-gnueabihf/6.3.0/../../../../include/c++/6.3.0/bits/std_mutex.h:107:2
	mov	lr, pc
	b	_ZSt20__throw_system_errori
.Ltmp94:
.LBB2_23:
	.loc	19 154 2 is_stmt 1      @ /usr/bin/../lib/gcc/arm-linux-gnueabihf/6.3.0/../../../../include/c++/6.3.0/thread:154:2
	mov	lr, pc
	b	_ZSt9terminatev
.Ltmp95:
.LBB2_24:                               @ %_ZNSt14_Function_baseD2Ev.exit6.loopexit.split-lp
.Ltmp34:
	b	.LBB2_32
.LBB2_25:
.Ltmp43:
.Ltmp96:
	.loc	24 1690 2 discriminator 2 @ /usr/bin/../lib/gcc/arm-linux-gnueabihf/6.3.0/../../../../include/c++/6.3.0/functional:1690:2
	mov	lr, pc
	b	__clang_call_terminate
.Ltmp97:
.LBB2_26:
.Ltmp37:
.Ltmp98:
	.loc	24 1689 11              @ /usr/bin/../lib/gcc/arm-linux-gnueabihf/6.3.0/../../../../include/c++/6.3.0/functional:1689:11
	ldr	r3, [sp, #12]
	mov	r4, r0
.Ltmp99:
	.loc	24 1689 11 is_stmt 0    @ /usr/bin/../lib/gcc/arm-linux-gnueabihf/6.3.0/../../../../include/c++/6.3.0/functional:1689:11
	cmp	r3, #0
	beq	.LBB2_28
@ BB#27:
.Ltmp100:
	.loc	24 1690 2 is_stmt 1     @ /usr/bin/../lib/gcc/arm-linux-gnueabihf/6.3.0/../../../../include/c++/6.3.0/functional:1690:2
.Ltmp38:
	add	r0, sp, #4
	mov	r2, #3
	mov	r1, r0
	blx	r3
.Ltmp39:
.Ltmp101:
.LBB2_28:
	.loc	18 777 7                @ /usr/bin/../lib/gcc/arm-linux-gnueabihf/6.3.0/../../../../include/arm-linux-gnueabihf/c++/6.3.0/bits/gthr-default.h:777:7
	cmp	r6, #0
	beq	.LBB2_33
@ BB#29:
.Ltmp102:
	.loc	18 778 12               @ /usr/bin/../lib/gcc/arm-linux-gnueabihf/6.3.0/../../../../include/arm-linux-gnueabihf/c++/6.3.0/bits/gthr-default.h:778:12
	add	r0, r7, #4
	bl	pthread_mutex_unlock
	mov	r0, r4
	mov	lr, pc
	b	_Unwind_Resume
.Ltmp103:
.LBB2_30:
.Ltmp40:
.Ltmp104:
	.loc	24 1690 2 discriminator 2 @ /usr/bin/../lib/gcc/arm-linux-gnueabihf/6.3.0/../../../../include/c++/6.3.0/functional:1690:2
	mov	lr, pc
	b	__clang_call_terminate
.Ltmp105:
.LBB2_31:                               @ %_ZNSt14_Function_baseD2Ev.exit6.loopexit
.Ltmp31:
.LBB2_32:                               @ %_ZNSt14_Function_baseD2Ev.exit6
	mov	r4, r0
.LBB2_33:                               @ %_ZNSt11unique_lockISt5mutexED2Ev.exit8
	mov	r0, r4
	mov	lr, pc
	b	_Unwind_Resume
.Lfunc_end2:
	.size	_ZN9WriteFile17staticConstructorEv, .Lfunc_end2-_ZN9WriteFile17staticConstructorEv
	.cfi_endproc
	.globl	__gxx_personality_v0
	.personality __gxx_personality_v0
	.handlerdata
	.p2align	2
GCC_except_table2:
.Lexception1:
	.byte	255                     @ @LPStart Encoding = omit
	.byte	0                       @ @TType Encoding = absptr
	.asciz	"\343\200"              @ @TType base offset
	.byte	3                       @ Call site Encoding = udata4
	.byte	91                      @ Call site table length
	.long	.Ltmp29-.Lfunc_begin2   @ >> Call Site 1 <<
	.long	.Ltmp30-.Ltmp29         @   Call between .Ltmp29 and .Ltmp30
	.long	.Ltmp31-.Lfunc_begin2   @     jumps to .Ltmp31
	.byte	0                       @   On action: cleanup
	.long	.Ltmp35-.Lfunc_begin2   @ >> Call Site 2 <<
	.long	.Ltmp36-.Ltmp35         @   Call between .Ltmp35 and .Ltmp36
	.long	.Ltmp37-.Lfunc_begin2   @     jumps to .Ltmp37
	.byte	0                       @   On action: cleanup
	.long	.Ltmp41-.Lfunc_begin2   @ >> Call Site 3 <<
	.long	.Ltmp42-.Ltmp41         @   Call between .Ltmp41 and .Ltmp42
	.long	.Ltmp43-.Lfunc_begin2   @     jumps to .Ltmp43
	.byte	1                       @   On action: 1
	.long	.Ltmp32-.Lfunc_begin2   @ >> Call Site 4 <<
	.long	.Ltmp33-.Ltmp32         @   Call between .Ltmp32 and .Ltmp33
	.long	.Ltmp34-.Lfunc_begin2   @     jumps to .Ltmp34
	.byte	0                       @   On action: cleanup
	.long	.Ltmp33-.Lfunc_begin2   @ >> Call Site 5 <<
	.long	.Ltmp38-.Ltmp33         @   Call between .Ltmp33 and .Ltmp38
	.long	0                       @     has no landing pad
	.byte	0                       @   On action: cleanup
	.long	.Ltmp38-.Lfunc_begin2   @ >> Call Site 6 <<
	.long	.Ltmp39-.Ltmp38         @   Call between .Ltmp38 and .Ltmp39
	.long	.Ltmp40-.Lfunc_begin2   @     jumps to .Ltmp40
	.byte	1                       @   On action: 1
	.long	.Ltmp39-.Lfunc_begin2   @ >> Call Site 7 <<
	.long	.Lfunc_end2-.Ltmp39     @   Call between .Ltmp39 and .Lfunc_end2
	.long	0                       @     has no landing pad
	.byte	0                       @   On action: cleanup
	.byte	1                       @ >> Action Record 1 <<
                                        @   Catch TypeInfo 1
	.byte	0                       @   No further actions
                                        @ >> Catch TypeInfos <<
	.long	0                       @ TypeInfo 1
	.p2align	2
	.fnend

	.globl	_ZN9WriteFile3runEv
	.p2align	2
	.type	_ZN9WriteFile3runEv,%function
_ZN9WriteFile3runEv:                    @ @_ZN9WriteFile3runEv
.Lfunc_begin3:
	.loc	23 416 0                @ /root/Bela/projects/board_6/WriteFile.cpp:416:0
	.fnstart
	.cfi_startproc
@ BB#0:
	.save	{r4, r10, r11, lr}
	push	{r4, r10, r11, lr}
.Ltmp106:
	.cfi_def_cfa_offset 16
.Ltmp107:
	.cfi_offset lr, -4
.Ltmp108:
	.cfi_offset r11, -8
.Ltmp109:
	.cfi_offset r10, -12
.Ltmp110:
	.cfi_offset r4, -16
	.setfp	r11, sp, #8
	add	r11, sp, #8
.Ltmp111:
	.cfi_def_cfa r11, 8
.Ltmp112:
	.loc	23 417 16 prologue_end  @ /root/Bela/projects/board_6/WriteFile.cpp:417:16
	movw	r4, :lower16:.L_MergedGlobals
	mov	r0, #1
	movt	r4, :upper16:.L_MergedGlobals
	strb	r0, [r4, #1]
	b	.LBB3_2
.LBB3_1:                                @ %.lr.ph
                                        @   in Loop: Header=BB3_2 Depth=1
.Ltmp113:
	.loc	23 419 3                @ /root/Bela/projects/board_6/WriteFile.cpp:419:3
	mov	r0, #0
	bl	_ZN9WriteFile15writeAllOutputsEb
	.loc	23 420 3                @ /root/Bela/projects/board_6/WriteFile.cpp:420:3
	movw	r0, #5000
	bl	usleep
.Ltmp114:
.LBB3_2:                                @ %.lr.ph
                                        @ =>This Inner Loop Header: Depth=1
	.loc	23 322 9                @ /root/Bela/projects/board_6/WriteFile.cpp:322:9
	ldrb	r0, [r4, #3]
.Ltmp115:
	.loc	23 418 2 discriminator 1 @ /root/Bela/projects/board_6/WriteFile.cpp:418:2
	cmp	r0, #0
	beq	.LBB3_1
@ BB#3:                                 @ %._crit_edge
	.loc	23 422 16               @ /root/Bela/projects/board_6/WriteFile.cpp:422:16
	mov	r0, #0
	strb	r0, [r4, #1]
	.loc	23 423 1                @ /root/Bela/projects/board_6/WriteFile.cpp:423:1
	pop	{r4, r10, r11, pc}
.Ltmp116:
.Lfunc_end3:
	.size	_ZN9WriteFile3runEv, .Lfunc_end3-_ZN9WriteFile3runEv
	.cfi_endproc
	.fnend

	.globl	_ZN9WriteFileC2Ev
	.p2align	2
	.type	_ZN9WriteFileC2Ev,%function
_ZN9WriteFileC2Ev:                      @ @_ZN9WriteFileC2Ev
.Lfunc_begin4:
	.loc	23 74 0                 @ /root/Bela/projects/board_6/WriteFile.cpp:74:0
	.fnstart
	.cfi_startproc
@ BB#0:
	@DEBUG_VALUE: WriteFile:this <- %R0
	.loc	27 142 51 prologue_end  @ /usr/bin/../lib/gcc/arm-linux-gnueabihf/6.3.0/../../../../include/c++/6.3.0/bits/basic_string.h:142:51
	add	r1, r0, #16
.Ltmp117:
	.loc	27 110 25               @ /usr/bin/../lib/gcc/arm-linux-gnueabihf/6.3.0/../../../../include/c++/6.3.0/bits/basic_string.h:110:25
	str	r1, [r0, #8]
	mov	r1, #0
.Ltmp118:
	@DEBUG_VALUE: _M_length:__length <- 0
	@DEBUG_VALUE: _M_set_length:__n <- 0
	.loc	6 87 22                 @ /usr/bin/../lib/gcc/arm-linux-gnueabihf/6.3.0/../../../../include/c++/6.3.0/bits/stl_vector.h:87:22
	vmov.i32	q8, #0x0
.Ltmp119:
	.loc	27 142 51               @ /usr/bin/../lib/gcc/arm-linux-gnueabihf/6.3.0/../../../../include/c++/6.3.0/bits/basic_string.h:142:51
	add	r2, r0, #40
.Ltmp120:
	.loc	27 132 26               @ /usr/bin/../lib/gcc/arm-linux-gnueabihf/6.3.0/../../../../include/c++/6.3.0/bits/basic_string.h:132:26
	str	r1, [r0, #12]
.Ltmp121:
	.loc	30 243 14               @ /usr/bin/../lib/gcc/arm-linux-gnueabihf/6.3.0/../../../../include/c++/6.3.0/bits/char_traits.h:243:14
	strb	r1, [r0, #16]
.Ltmp122:
	.loc	27 110 25               @ /usr/bin/../lib/gcc/arm-linux-gnueabihf/6.3.0/../../../../include/c++/6.3.0/bits/basic_string.h:110:25
	str	r2, [r0, #32]
.Ltmp123:
	@DEBUG_VALUE: _M_length:__length <- 0
	@DEBUG_VALUE: _M_set_length:__n <- 0
	.loc	6 87 22                 @ /usr/bin/../lib/gcc/arm-linux-gnueabihf/6.3.0/../../../../include/c++/6.3.0/bits/stl_vector.h:87:22
	add	r2, r0, #56
.Ltmp124:
	.loc	27 132 26               @ /usr/bin/../lib/gcc/arm-linux-gnueabihf/6.3.0/../../../../include/c++/6.3.0/bits/basic_string.h:132:26
	str	r1, [r0, #36]
.Ltmp125:
	.loc	30 243 14               @ /usr/bin/../lib/gcc/arm-linux-gnueabihf/6.3.0/../../../../include/c++/6.3.0/bits/char_traits.h:243:14
	strb	r1, [r0, #40]
.Ltmp126:
	.loc	6 87 22                 @ /usr/bin/../lib/gcc/arm-linux-gnueabihf/6.3.0/../../../../include/c++/6.3.0/bits/stl_vector.h:87:22
	vst1.32	{d16, d17}, [r2]
.Ltmp127:
	.loc	27 142 51               @ /usr/bin/../lib/gcc/arm-linux-gnueabihf/6.3.0/../../../../include/c++/6.3.0/bits/basic_string.h:142:51
	add	r2, r0, #100
.Ltmp128:
	.loc	6 87 22                 @ /usr/bin/../lib/gcc/arm-linux-gnueabihf/6.3.0/../../../../include/c++/6.3.0/bits/stl_vector.h:87:22
	str	r1, [r0, #76]
	str	r1, [r0, #72]
.Ltmp129:
	.loc	27 110 25               @ /usr/bin/../lib/gcc/arm-linux-gnueabihf/6.3.0/../../../../include/c++/6.3.0/bits/basic_string.h:110:25
	str	r2, [r0, #92]
.Ltmp130:
	@DEBUG_VALUE: _M_length:__length <- 0
	@DEBUG_VALUE: _M_set_length:__n <- 0
	.loc	27 142 51               @ /usr/bin/../lib/gcc/arm-linux-gnueabihf/6.3.0/../../../../include/c++/6.3.0/bits/basic_string.h:142:51
	add	r2, r0, #136
.Ltmp131:
	.loc	27 132 26               @ /usr/bin/../lib/gcc/arm-linux-gnueabihf/6.3.0/../../../../include/c++/6.3.0/bits/basic_string.h:132:26
	str	r1, [r0, #96]
.Ltmp132:
	.loc	30 243 14               @ /usr/bin/../lib/gcc/arm-linux-gnueabihf/6.3.0/../../../../include/c++/6.3.0/bits/char_traits.h:243:14
	strb	r1, [r0, #100]
.Ltmp133:
	.loc	27 110 25               @ /usr/bin/../lib/gcc/arm-linux-gnueabihf/6.3.0/../../../../include/c++/6.3.0/bits/basic_string.h:110:25
	str	r2, [r0, #128]
.Ltmp134:
	@DEBUG_VALUE: _M_length:__length <- 0
	@DEBUG_VALUE: _M_set_length:__n <- 0
	.loc	27 132 26               @ /usr/bin/../lib/gcc/arm-linux-gnueabihf/6.3.0/../../../../include/c++/6.3.0/bits/basic_string.h:132:26
	str	r1, [r0, #132]
.Ltmp135:
	@DEBUG_VALUE: assign:__c1 <- %R2
	.loc	30 243 14               @ /usr/bin/../lib/gcc/arm-linux-gnueabihf/6.3.0/../../../../include/c++/6.3.0/bits/char_traits.h:243:14
	strb	r1, [r0, #136]
.Ltmp136:
	.loc	6 87 22                 @ /usr/bin/../lib/gcc/arm-linux-gnueabihf/6.3.0/../../../../include/c++/6.3.0/bits/stl_vector.h:87:22
	str	r1, [r0, #152]
	.loc	6 87 34 is_stmt 0       @ /usr/bin/../lib/gcc/arm-linux-gnueabihf/6.3.0/../../../../include/c++/6.3.0/bits/stl_vector.h:87:34
	str	r1, [r0, #156]
	.loc	6 87 47                 @ /usr/bin/../lib/gcc/arm-linux-gnueabihf/6.3.0/../../../../include/c++/6.3.0/bits/stl_vector.h:87:47
	str	r1, [r0, #160]
.Ltmp137:
	.loc	1 37 7 is_stmt 1        @ /root/Bela/projects/board_6/WriteFile.h:37:7
	strb	r1, [r0, #165]
	.loc	1 38 16                 @ /root/Bela/projects/board_6/WriteFile.h:38:16
	strb	r1, [r0, #166]
.Ltmp138:
	@DEBUG_VALUE: assign:__c1 <- %R1
	@DEBUG_VALUE: assign:__c1 <- %R2
	@DEBUG_VALUE: assign:__c1 <- %R2
	.loc	23 75 1                 @ /root/Bela/projects/board_6/WriteFile.cpp:75:1
	bx	lr
.Ltmp139:
.Lfunc_end4:
	.size	_ZN9WriteFileC2Ev, .Lfunc_end4-_ZN9WriteFileC2Ev
	.cfi_endproc
	.fnend

	.globl	_ZN9WriteFileC2ERKNSt7__cxx1112basic_stringIcSt11char_traitsIcESaIcEEEbb
	.p2align	2
	.type	_ZN9WriteFileC2ERKNSt7__cxx1112basic_stringIcSt11char_traitsIcESaIcEEEbb,%function
_ZN9WriteFileC2ERKNSt7__cxx1112basic_stringIcSt11char_traitsIcESaIcEEEbb: @ @_ZN9WriteFileC2ERKNSt7__cxx1112basic_stringIcSt11char_traitsIcESaIcEEEbb
.Lfunc_begin5:
	.loc	23 77 0                 @ /root/Bela/projects/board_6/WriteFile.cpp:77:0
	.fnstart
	.cfi_startproc
@ BB#0:
	.save	{r4, r5, r6, r7, r8, r9, r10, r11, lr}
	push	{r4, r5, r6, r7, r8, r9, r10, r11, lr}
.Ltmp143:
	.cfi_def_cfa_offset 36
.Ltmp144:
	.cfi_offset lr, -4
.Ltmp145:
	.cfi_offset r11, -8
.Ltmp146:
	.cfi_offset r10, -12
.Ltmp147:
	.cfi_offset r9, -16
.Ltmp148:
	.cfi_offset r8, -20
.Ltmp149:
	.cfi_offset r7, -24
.Ltmp150:
	.cfi_offset r6, -28
.Ltmp151:
	.cfi_offset r5, -32
.Ltmp152:
	.cfi_offset r4, -36
	.setfp	r11, sp, #28
	add	r11, sp, #28
.Ltmp153:
	.cfi_def_cfa r11, 8
	.pad	#12
	sub	sp, sp, #12
	@DEBUG_VALUE: WriteFile:this <- %R0
	@DEBUG_VALUE: WriteFile:filename <- %R1
	@DEBUG_VALUE: WriteFile:overwrite [bit_piece offset=0 size=1] <- %R2
	@DEBUG_VALUE: WriteFile:append [bit_piece offset=0 size=1] <- %R3
.Ltmp154:
	.loc	6 87 22 prologue_end    @ /usr/bin/../lib/gcc/arm-linux-gnueabihf/6.3.0/../../../../include/c++/6.3.0/bits/stl_vector.h:87:22
	vmov.i32	q8, #0x0
	mov	r4, r0
.Ltmp155:
	@DEBUG_VALUE: WriteFile:this <- %R4
	.loc	27 142 51               @ /usr/bin/../lib/gcc/arm-linux-gnueabihf/6.3.0/../../../../include/c++/6.3.0/bits/basic_string.h:142:51
	add	r6, r4, #16
.Ltmp156:
	.loc	27 142 51 is_stmt 0     @ /usr/bin/../lib/gcc/arm-linux-gnueabihf/6.3.0/../../../../include/c++/6.3.0/bits/basic_string.h:142:51
	add	r10, r4, #40
.Ltmp157:
	.loc	6 87 22 is_stmt 1       @ /usr/bin/../lib/gcc/arm-linux-gnueabihf/6.3.0/../../../../include/c++/6.3.0/bits/stl_vector.h:87:22
	add	r7, r4, #56
.Ltmp158:
	.loc	27 142 51               @ /usr/bin/../lib/gcc/arm-linux-gnueabihf/6.3.0/../../../../include/c++/6.3.0/bits/basic_string.h:142:51
	add	r5, r4, #100
.Ltmp159:
	.loc	27 142 51 is_stmt 0     @ /usr/bin/../lib/gcc/arm-linux-gnueabihf/6.3.0/../../../../include/c++/6.3.0/bits/basic_string.h:142:51
	add	r8, r4, #136
	mov	r0, #0
.Ltmp160:
	@DEBUG_VALUE: _M_length:__length <- 0
	@DEBUG_VALUE: _M_set_length:__n <- 0
	.loc	27 110 25 is_stmt 1     @ /usr/bin/../lib/gcc/arm-linux-gnueabihf/6.3.0/../../../../include/c++/6.3.0/bits/basic_string.h:110:25
	str	r6, [r4, #8]
.Ltmp161:
	.loc	27 132 26               @ /usr/bin/../lib/gcc/arm-linux-gnueabihf/6.3.0/../../../../include/c++/6.3.0/bits/basic_string.h:132:26
	str	r0, [r4, #12]
.Ltmp162:
	.loc	30 243 14               @ /usr/bin/../lib/gcc/arm-linux-gnueabihf/6.3.0/../../../../include/c++/6.3.0/bits/char_traits.h:243:14
	strb	r0, [r4, #16]
.Ltmp163:
	.loc	27 110 25               @ /usr/bin/../lib/gcc/arm-linux-gnueabihf/6.3.0/../../../../include/c++/6.3.0/bits/basic_string.h:110:25
	str	r10, [r4, #32]
.Ltmp164:
	@DEBUG_VALUE: _M_length:__length <- 0
	@DEBUG_VALUE: _M_set_length:__n <- 0
	.loc	27 132 26               @ /usr/bin/../lib/gcc/arm-linux-gnueabihf/6.3.0/../../../../include/c++/6.3.0/bits/basic_string.h:132:26
	str	r0, [r4, #36]
.Ltmp165:
	.loc	30 243 14               @ /usr/bin/../lib/gcc/arm-linux-gnueabihf/6.3.0/../../../../include/c++/6.3.0/bits/char_traits.h:243:14
	strb	r0, [r4, #40]
.Ltmp166:
	.loc	6 87 22                 @ /usr/bin/../lib/gcc/arm-linux-gnueabihf/6.3.0/../../../../include/c++/6.3.0/bits/stl_vector.h:87:22
	vst1.32	{d16, d17}, [r7]
	str	r0, [r4, #76]
	str	r0, [r4, #72]
.Ltmp167:
	.loc	27 110 25               @ /usr/bin/../lib/gcc/arm-linux-gnueabihf/6.3.0/../../../../include/c++/6.3.0/bits/basic_string.h:110:25
	str	r5, [r4, #92]
.Ltmp168:
	@DEBUG_VALUE: _M_length:__length <- 0
	@DEBUG_VALUE: _M_set_length:__n <- 0
	.loc	27 132 26               @ /usr/bin/../lib/gcc/arm-linux-gnueabihf/6.3.0/../../../../include/c++/6.3.0/bits/basic_string.h:132:26
	str	r0, [r4, #96]
.Ltmp169:
	.loc	30 243 14               @ /usr/bin/../lib/gcc/arm-linux-gnueabihf/6.3.0/../../../../include/c++/6.3.0/bits/char_traits.h:243:14
	strb	r0, [r4, #100]
.Ltmp170:
	.loc	27 110 25               @ /usr/bin/../lib/gcc/arm-linux-gnueabihf/6.3.0/../../../../include/c++/6.3.0/bits/basic_string.h:110:25
	str	r8, [r4, #128]
.Ltmp171:
	@DEBUG_VALUE: _M_length:__length <- 0
	@DEBUG_VALUE: _M_set_length:__n <- 0
	.loc	27 132 26               @ /usr/bin/../lib/gcc/arm-linux-gnueabihf/6.3.0/../../../../include/c++/6.3.0/bits/basic_string.h:132:26
	str	r0, [r4, #132]
.Ltmp172:
	@DEBUG_VALUE: assign:__c1 <- %R8
	.loc	30 243 14               @ /usr/bin/../lib/gcc/arm-linux-gnueabihf/6.3.0/../../../../include/c++/6.3.0/bits/char_traits.h:243:14
	strb	r0, [r4, #136]
.Ltmp173:
	.loc	6 87 22                 @ /usr/bin/../lib/gcc/arm-linux-gnueabihf/6.3.0/../../../../include/c++/6.3.0/bits/stl_vector.h:87:22
	str	r0, [r4, #152]
	.loc	6 87 34 is_stmt 0       @ /usr/bin/../lib/gcc/arm-linux-gnueabihf/6.3.0/../../../../include/c++/6.3.0/bits/stl_vector.h:87:34
	str	r0, [r4, #156]
	.loc	6 87 47                 @ /usr/bin/../lib/gcc/arm-linux-gnueabihf/6.3.0/../../../../include/c++/6.3.0/bits/stl_vector.h:87:47
	str	r0, [r4, #160]
.Ltmp174:
	.loc	1 37 7 is_stmt 1        @ /root/Bela/projects/board_6/WriteFile.h:37:7
	strb	r0, [r4, #165]
	.loc	1 38 16                 @ /root/Bela/projects/board_6/WriteFile.h:38:16
	strb	r0, [r4, #166]
.Ltmp175:
	.loc	23 78 2                 @ /root/Bela/projects/board_6/WriteFile.cpp:78:2
.Ltmp140:
	mov	r0, r4
	bl	_ZN9WriteFile5setupERKNSt7__cxx1112basic_stringIcSt11char_traitsIcESaIcEEEbb
.Ltmp176:
.Ltmp141:
.Ltmp177:
	@DEBUG_VALUE: assign:__c1 <- %R6
	@DEBUG_VALUE: assign:__c1 <- %R10
	@DEBUG_VALUE: assign:__c1 <- %R5
@ BB#1:
	@DEBUG_VALUE: assign:__c1 <- %R5
	@DEBUG_VALUE: assign:__c1 <- %R10
	@DEBUG_VALUE: assign:__c1 <- %R6
	@DEBUG_VALUE: assign:__c1 <- %R8
	@DEBUG_VALUE: WriteFile:this <- %R4
	.loc	23 79 1                 @ /root/Bela/projects/board_6/WriteFile.cpp:79:1
	mov	r0, r4
	sub	sp, r11, #28
	pop	{r4, r5, r6, r7, r8, r9, r10, r11, pc}
.Ltmp178:
.LBB5_2:
	@DEBUG_VALUE: assign:__c1 <- %R5
	@DEBUG_VALUE: assign:__c1 <- %R10
	@DEBUG_VALUE: assign:__c1 <- %R6
	@DEBUG_VALUE: assign:__c1 <- %R8
	@DEBUG_VALUE: WriteFile:this <- %R4
.Ltmp142:
	stmib	sp, {r0, r6}
.Ltmp179:
	@DEBUG_VALUE: __destroy<std::__cxx11::basic_string<char> *>:__last <- %R9
	@DEBUG_VALUE: _Destroy<std::__cxx11::basic_string<char> *>:__last <- %R9
	@DEBUG_VALUE: _Destroy<std::__cxx11::basic_string<char> *, std::__cxx11::basic_string<char> >:__last <- %R9
	@DEBUG_VALUE: _Destroy<std::__cxx11::basic_string<char> *, std::__cxx11::basic_string<char> >:__first <- %R6
	@DEBUG_VALUE: _Destroy<std::__cxx11::basic_string<char> *>:__first <- %R6
	@DEBUG_VALUE: __destroy<std::__cxx11::basic_string<char> *>:__first <- %R6
	.loc	6 426 37                @ /usr/bin/../lib/gcc/arm-linux-gnueabihf/6.3.0/../../../../include/c++/6.3.0/bits/stl_vector.h:426:37
	ldr	r6, [r4, #152]
.Ltmp180:
	.loc	6 426 61 is_stmt 0      @ /usr/bin/../lib/gcc/arm-linux-gnueabihf/6.3.0/../../../../include/c++/6.3.0/bits/stl_vector.h:426:61
	ldr	r9, [r4, #156]
.Ltmp181:
	.file	48 "/usr/bin/../lib/gcc/arm-linux-gnueabihf/6.3.0/../../../../include/c++/6.3.0/bits" "stl_construct.h"
	.loc	48 102 4 is_stmt 1 discriminator 1 @ /usr/bin/../lib/gcc/arm-linux-gnueabihf/6.3.0/../../../../include/c++/6.3.0/bits/stl_construct.h:102:4
	cmp	r6, r9
	beq	.LBB5_7
.Ltmp182:
.LBB5_3:                                @ %.lr.ph.i.i.i.i
                                        @ =>This Inner Loop Header: Depth=1
	@DEBUG_VALUE: __addressof<std::__cxx11::basic_string<char> >:__r <- %R6
	.loc	27 136 28               @ /usr/bin/../lib/gcc/arm-linux-gnueabihf/6.3.0/../../../../include/c++/6.3.0/bits/basic_string.h:136:28
	ldr	r0, [r6], #8
.Ltmp183:
	@DEBUG_VALUE: deallocate:__p <- %R0
	@DEBUG_VALUE: deallocate:__p <- %R0
	.loc	27 180 6                @ /usr/bin/../lib/gcc/arm-linux-gnueabihf/6.3.0/../../../../include/c++/6.3.0/bits/basic_string.h:180:6
	cmp	r0, r6
	beq	.LBB5_5
.Ltmp184:
@ BB#4:                                 @   in Loop: Header=BB5_3 Depth=1
	@DEBUG_VALUE: deallocate:__p <- %R0
	@DEBUG_VALUE: deallocate:__p <- %R0
	.loc	10 110 9                @ /usr/bin/../lib/gcc/arm-linux-gnueabihf/6.3.0/../../../../include/c++/6.3.0/ext/new_allocator.h:110:9
	bl	_ZdlPv
.Ltmp185:
.LBB5_5:                                @ %_ZSt8_DestroyINSt7__cxx1112basic_stringIcSt11char_traitsIcESaIcEEEEvPT_.exit.i.i.i.i
                                        @   in Loop: Header=BB5_3 Depth=1
	.loc	48 102 19 discriminator 1 @ /usr/bin/../lib/gcc/arm-linux-gnueabihf/6.3.0/../../../../include/c++/6.3.0/bits/stl_construct.h:102:19
	add	r6, r6, #16
	.loc	48 102 4 is_stmt 0 discriminator 1 @ /usr/bin/../lib/gcc/arm-linux-gnueabihf/6.3.0/../../../../include/c++/6.3.0/bits/stl_construct.h:102:4
	cmp	r6, r9
	bne	.LBB5_3
.Ltmp186:
@ BB#6:                                 @ %_ZSt8_DestroyIPNSt7__cxx1112basic_stringIcSt11char_traitsIcESaIcEEES5_EvT_S7_RSaIT0_E.exit.loopexit.i
	.loc	6 160 37 is_stmt 1      @ /usr/bin/../lib/gcc/arm-linux-gnueabihf/6.3.0/../../../../include/c++/6.3.0/bits/stl_vector.h:160:37
	ldr	r6, [r4, #152]
.LBB5_7:                                @ %_ZSt8_DestroyIPNSt7__cxx1112basic_stringIcSt11char_traitsIcESaIcEEES5_EvT_S7_RSaIT0_E.exit.i
.Ltmp187:
	@DEBUG_VALUE: _M_deallocate:__p <- %R6
	.loc	6 177 6                 @ /usr/bin/../lib/gcc/arm-linux-gnueabihf/6.3.0/../../../../include/c++/6.3.0/bits/stl_vector.h:177:6
	cmp	r6, #0
	beq	.LBB5_9
.Ltmp188:
@ BB#8:
	@DEBUG_VALUE: _M_deallocate:__p <- %R6
	.loc	10 110 9                @ /usr/bin/../lib/gcc/arm-linux-gnueabihf/6.3.0/../../../../include/c++/6.3.0/ext/new_allocator.h:110:9
	mov	r0, r6
	bl	_ZdlPv
.Ltmp189:
.LBB5_9:                                @ %_ZNSt6vectorINSt7__cxx1112basic_stringIcSt11char_traitsIcESaIcEEESaIS5_EED2Ev.exit
	@DEBUG_VALUE: _M_deallocate:__p <- %R6
	.loc	27 136 28               @ /usr/bin/../lib/gcc/arm-linux-gnueabihf/6.3.0/../../../../include/c++/6.3.0/bits/basic_string.h:136:28
	ldr	r0, [r4, #128]
.Ltmp190:
	@DEBUG_VALUE: deallocate:__p <- %R0
	@DEBUG_VALUE: deallocate:__p <- %R0
	.loc	27 180 6                @ /usr/bin/../lib/gcc/arm-linux-gnueabihf/6.3.0/../../../../include/c++/6.3.0/bits/basic_string.h:180:6
	cmp	r0, r8
	beq	.LBB5_11
.Ltmp191:
@ BB#10:
	@DEBUG_VALUE: deallocate:__p <- %R0
	@DEBUG_VALUE: deallocate:__p <- %R0
	@DEBUG_VALUE: _M_deallocate:__p <- %R6
	.loc	10 110 9                @ /usr/bin/../lib/gcc/arm-linux-gnueabihf/6.3.0/../../../../include/c++/6.3.0/ext/new_allocator.h:110:9
	bl	_ZdlPv
.Ltmp192:
.LBB5_11:                               @ %_ZNSt7__cxx1112basic_stringIcSt11char_traitsIcESaIcEED2Ev.exit10
	@DEBUG_VALUE: _M_deallocate:__p <- %R6
	.loc	27 136 28               @ /usr/bin/../lib/gcc/arm-linux-gnueabihf/6.3.0/../../../../include/c++/6.3.0/bits/basic_string.h:136:28
	ldr	r0, [r4, #92]
.Ltmp193:
	@DEBUG_VALUE: deallocate:__p <- %R0
	@DEBUG_VALUE: deallocate:__p <- %R0
	.loc	27 180 6                @ /usr/bin/../lib/gcc/arm-linux-gnueabihf/6.3.0/../../../../include/c++/6.3.0/bits/basic_string.h:180:6
	cmp	r0, r5
	beq	.LBB5_13
.Ltmp194:
@ BB#12:
	@DEBUG_VALUE: deallocate:__p <- %R0
	@DEBUG_VALUE: deallocate:__p <- %R0
	@DEBUG_VALUE: _M_deallocate:__p <- %R6
	.loc	10 110 9                @ /usr/bin/../lib/gcc/arm-linux-gnueabihf/6.3.0/../../../../include/c++/6.3.0/ext/new_allocator.h:110:9
	bl	_ZdlPv
.Ltmp195:
.LBB5_13:                               @ %_ZNSt7__cxx1112basic_stringIcSt11char_traitsIcESaIcEED2Ev.exit8
	@DEBUG_VALUE: _M_deallocate:__p <- %R6
	.loc	6 160 37                @ /usr/bin/../lib/gcc/arm-linux-gnueabihf/6.3.0/../../../../include/c++/6.3.0/bits/stl_vector.h:160:37
	ldr	r0, [r4, #68]
.Ltmp196:
	@DEBUG_VALUE: _M_deallocate:__p <- %R0
	@DEBUG_VALUE: deallocate:__p <- %R0
	@DEBUG_VALUE: deallocate:__p <- %R0
	.loc	6 177 6                 @ /usr/bin/../lib/gcc/arm-linux-gnueabihf/6.3.0/../../../../include/c++/6.3.0/bits/stl_vector.h:177:6
	cmp	r0, #0
	beq	.LBB5_15
.Ltmp197:
@ BB#14:
	@DEBUG_VALUE: deallocate:__p <- %R0
	@DEBUG_VALUE: deallocate:__p <- %R0
	@DEBUG_VALUE: _M_deallocate:__p <- %R0
	@DEBUG_VALUE: _M_deallocate:__p <- %R6
	.loc	10 110 9                @ /usr/bin/../lib/gcc/arm-linux-gnueabihf/6.3.0/../../../../include/c++/6.3.0/ext/new_allocator.h:110:9
	bl	_ZdlPv
.Ltmp198:
.LBB5_15:                               @ %_ZNSt6vectorIfSaIfEED2Ev.exit
	@DEBUG_VALUE: _M_deallocate:__p <- %R6
	.loc	6 160 37                @ /usr/bin/../lib/gcc/arm-linux-gnueabihf/6.3.0/../../../../include/c++/6.3.0/bits/stl_vector.h:160:37
	ldr	r0, [r7]
.Ltmp199:
	@DEBUG_VALUE: _M_deallocate:__p <- %R0
	@DEBUG_VALUE: deallocate:__p <- %R0
	@DEBUG_VALUE: deallocate:__p <- %R0
	.loc	6 177 6                 @ /usr/bin/../lib/gcc/arm-linux-gnueabihf/6.3.0/../../../../include/c++/6.3.0/bits/stl_vector.h:177:6
	cmp	r0, #0
	beq	.LBB5_17
.Ltmp200:
@ BB#16:
	@DEBUG_VALUE: deallocate:__p <- %R0
	@DEBUG_VALUE: deallocate:__p <- %R0
	@DEBUG_VALUE: _M_deallocate:__p <- %R0
	@DEBUG_VALUE: _M_deallocate:__p <- %R6
	.loc	10 110 9                @ /usr/bin/../lib/gcc/arm-linux-gnueabihf/6.3.0/../../../../include/c++/6.3.0/ext/new_allocator.h:110:9
	bl	_ZdlPv
.Ltmp201:
.LBB5_17:                               @ %_ZNSt6vectorIcSaIcEED2Ev.exit
	@DEBUG_VALUE: _M_deallocate:__p <- %R6
	.loc	27 136 28               @ /usr/bin/../lib/gcc/arm-linux-gnueabihf/6.3.0/../../../../include/c++/6.3.0/bits/basic_string.h:136:28
	ldr	r0, [r4, #32]
.Ltmp202:
	@DEBUG_VALUE: deallocate:__p <- %R0
	@DEBUG_VALUE: deallocate:__p <- %R0
	.loc	27 180 6                @ /usr/bin/../lib/gcc/arm-linux-gnueabihf/6.3.0/../../../../include/c++/6.3.0/bits/basic_string.h:180:6
	cmp	r0, r10
	beq	.LBB5_19
.Ltmp203:
@ BB#18:
	@DEBUG_VALUE: deallocate:__p <- %R0
	@DEBUG_VALUE: deallocate:__p <- %R0
	@DEBUG_VALUE: _M_deallocate:__p <- %R6
	.loc	10 110 9                @ /usr/bin/../lib/gcc/arm-linux-gnueabihf/6.3.0/../../../../include/c++/6.3.0/ext/new_allocator.h:110:9
	bl	_ZdlPv
.Ltmp204:
.LBB5_19:                               @ %_ZNSt7__cxx1112basic_stringIcSt11char_traitsIcESaIcEED2Ev.exit6
	@DEBUG_VALUE: _M_deallocate:__p <- %R6
	.loc	27 136 28               @ /usr/bin/../lib/gcc/arm-linux-gnueabihf/6.3.0/../../../../include/c++/6.3.0/bits/basic_string.h:136:28
	ldr	r0, [r4, #8]
.Ltmp205:
	@DEBUG_VALUE: deallocate:__p <- %R0
	@DEBUG_VALUE: deallocate:__p <- %R0
	.loc	27 180 6                @ /usr/bin/../lib/gcc/arm-linux-gnueabihf/6.3.0/../../../../include/c++/6.3.0/bits/basic_string.h:180:6
	ldr	r1, [sp, #8]            @ 4-byte Reload
	cmp	r0, r1
	beq	.LBB5_21
.Ltmp206:
@ BB#20:
	@DEBUG_VALUE: deallocate:__p <- %R0
	@DEBUG_VALUE: deallocate:__p <- %R0
	@DEBUG_VALUE: _M_deallocate:__p <- %R6
	.loc	10 110 9                @ /usr/bin/../lib/gcc/arm-linux-gnueabihf/6.3.0/../../../../include/c++/6.3.0/ext/new_allocator.h:110:9
	bl	_ZdlPv
.Ltmp207:
.LBB5_21:                               @ %_ZNSt7__cxx1112basic_stringIcSt11char_traitsIcESaIcEED2Ev.exit
	@DEBUG_VALUE: _M_deallocate:__p <- %R6
	ldr	r0, [sp, #4]            @ 4-byte Reload
	mov	lr, pc
	b	_Unwind_Resume
.Lfunc_end5:
	.size	_ZN9WriteFileC2ERKNSt7__cxx1112basic_stringIcSt11char_traitsIcESaIcEEEbb, .Lfunc_end5-_ZN9WriteFileC2ERKNSt7__cxx1112basic_stringIcSt11char_traitsIcESaIcEEEbb
	.cfi_endproc
	.globl	__gxx_personality_v0
	.personality __gxx_personality_v0
	.handlerdata
	.p2align	2
GCC_except_table5:
.Lexception2:
	.byte	255                     @ @LPStart Encoding = omit
	.byte	0                       @ @TType Encoding = absptr
	.asciz	"\234"                  @ @TType base offset
	.byte	3                       @ Call site Encoding = udata4
	.byte	26                      @ Call site table length
	.long	.Ltmp140-.Lfunc_begin5  @ >> Call Site 1 <<
	.long	.Ltmp141-.Ltmp140       @   Call between .Ltmp140 and .Ltmp141
	.long	.Ltmp142-.Lfunc_begin5  @     jumps to .Ltmp142
	.byte	0                       @   On action: cleanup
	.long	.Ltmp141-.Lfunc_begin5  @ >> Call Site 2 <<
	.long	.Lfunc_end5-.Ltmp141    @   Call between .Ltmp141 and .Lfunc_end5
	.long	0                       @     has no landing pad
	.byte	0                       @   On action: cleanup
	.p2align	2
	.fnend

	.globl	_ZN9WriteFile5setupERKNSt7__cxx1112basic_stringIcSt11char_traitsIcESaIcEEEbb
	.p2align	2
	.type	_ZN9WriteFile5setupERKNSt7__cxx1112basic_stringIcSt11char_traitsIcESaIcEEEbb,%function
_ZN9WriteFile5setupERKNSt7__cxx1112basic_stringIcSt11char_traitsIcESaIcEEEbb: @ @_ZN9WriteFile5setupERKNSt7__cxx1112basic_stringIcSt11char_traitsIcESaIcEEEbb
.Lfunc_begin6:
	.loc	23 174 0                @ /root/Bela/projects/board_6/WriteFile.cpp:174:0
	.fnstart
	.cfi_startproc
@ BB#0:
	.save	{r4, r5, r6, r7, r8, r9, r10, r11, lr}
	push	{r4, r5, r6, r7, r8, r9, r10, r11, lr}
.Ltmp217:
	.cfi_def_cfa_offset 36
.Ltmp218:
	.cfi_offset lr, -4
.Ltmp219:
	.cfi_offset r11, -8
.Ltmp220:
	.cfi_offset r10, -12
.Ltmp221:
	.cfi_offset r9, -16
.Ltmp222:
	.cfi_offset r8, -20
.Ltmp223:
	.cfi_offset r7, -24
.Ltmp224:
	.cfi_offset r6, -28
.Ltmp225:
	.cfi_offset r5, -32
.Ltmp226:
	.cfi_offset r4, -36
	.setfp	r11, sp, #28
	add	r11, sp, #28
.Ltmp227:
	.cfi_def_cfa r11, 8
	.pad	#28
	sub	sp, sp, #28
	@DEBUG_VALUE: setup:this <- %R0
	@DEBUG_VALUE: setup:newFilename <- %R1
	@DEBUG_VALUE: setup:overwrite [bit_piece offset=0 size=1] <- %R2
	@DEBUG_VALUE: setup:append [bit_piece offset=0 size=1] <- %R3
	mov	r4, r0
.Ltmp228:
	@DEBUG_VALUE: setup:this <- %R4
	.loc	23 175 2 prologue_end   @ /root/Bela/projects/board_6/WriteFile.cpp:175:2
	add	r5, r4, #128
.Ltmp229:
	@DEBUG_VALUE: assign:__str <- %R1
	@DEBUG_VALUE: assign:this <- %R5
	@DEBUG_VALUE: operator=:__str <- %R1
	@DEBUG_VALUE: operator=:this <- %R5
	@DEBUG_VALUE: operator=:this <- %R5
	@DEBUG_VALUE: _M_is_local:this <- %R5
	@DEBUG_VALUE: _M_data:this <- %R5
	@DEBUG_VALUE: _M_local_data:this <- %R5
	@DEBUG_VALUE: _M_is_local:this <- %R5
	@DEBUG_VALUE: _M_data:this <- %R5
	@DEBUG_VALUE: _M_local_data:this <- %R5
	@DEBUG_VALUE: _M_data:this <- %R5
	@DEBUG_VALUE: _M_data:this <- %R5
	@DEBUG_VALUE: _M_length:this <- %R5
	@DEBUG_VALUE: _M_capacity:this <- %R5
	@DEBUG_VALUE: assign:this <- %R5
	@DEBUG_VALUE: c_str:this <- %R5
	@DEBUG_VALUE: _M_data:this <- %R5
	@DEBUG_VALUE: c_str:this <- %R5
	@DEBUG_VALUE: _M_data:this <- %R5
	@DEBUG_VALUE: c_str:this <- %R5
	@DEBUG_VALUE: _M_data:this <- %R5
	mov	r6, r3
.Ltmp230:
	@DEBUG_VALUE: setup:append [bit_piece offset=0 size=1] <- %R6
	mov	r7, r2
.Ltmp231:
	@DEBUG_VALUE: setup:overwrite [bit_piece offset=0 size=1] <- %R7
	.loc	27 1196 8               @ /usr/bin/../lib/gcc/arm-linux-gnueabihf/6.3.0/../../../../include/c++/6.3.0/bits/basic_string.h:1196:8
	mov	r0, r5
	bl	_ZNSt7__cxx1112basic_stringIcSt11char_traitsIcESaIcEE9_M_assignERKS4_
.Ltmp232:
	@DEBUG_VALUE: setup:append [bit_piece offset=0 size=1] <- undef
	.loc	23 176 5                @ /root/Bela/projects/board_6/WriteFile.cpp:176:5
	cmp	r7, #0
	beq	.LBB6_3
.Ltmp233:
@ BB#1:
	@DEBUG_VALUE: setup:overwrite [bit_piece offset=0 size=1] <- %R7
	@DEBUG_VALUE: _M_data:this <- %R5
	@DEBUG_VALUE: c_str:this <- %R5
	@DEBUG_VALUE: _M_data:this <- %R5
	@DEBUG_VALUE: c_str:this <- %R5
	@DEBUG_VALUE: _M_data:this <- %R5
	@DEBUG_VALUE: c_str:this <- %R5
	@DEBUG_VALUE: assign:this <- %R5
	@DEBUG_VALUE: _M_capacity:this <- %R5
	@DEBUG_VALUE: _M_length:this <- %R5
	@DEBUG_VALUE: _M_data:this <- %R5
	@DEBUG_VALUE: _M_data:this <- %R5
	@DEBUG_VALUE: _M_local_data:this <- %R5
	@DEBUG_VALUE: _M_data:this <- %R5
	@DEBUG_VALUE: _M_is_local:this <- %R5
	@DEBUG_VALUE: _M_local_data:this <- %R5
	@DEBUG_VALUE: _M_data:this <- %R5
	@DEBUG_VALUE: _M_is_local:this <- %R5
	@DEBUG_VALUE: operator=:this <- %R5
	@DEBUG_VALUE: operator=:this <- %R5
	@DEBUG_VALUE: assign:this <- %R5
	@DEBUG_VALUE: setup:this <- %R4
	.loc	27 136 28               @ /usr/bin/../lib/gcc/arm-linux-gnueabihf/6.3.0/../../../../include/c++/6.3.0/bits/basic_string.h:136:28
	ldr	r1, [r5]
.Ltmp234:
	.loc	23 181 3 discriminator 1 @ /root/Bela/projects/board_6/WriteFile.cpp:181:3
	movw	r0, :lower16:.L.str.4
	movt	r0, :upper16:.L.str.4
	bl	printf
.Ltmp235:
	.loc	27 136 28               @ /usr/bin/../lib/gcc/arm-linux-gnueabihf/6.3.0/../../../../include/c++/6.3.0/bits/basic_string.h:136:28
	ldr	r0, [r5]
.Ltmp236:
	.loc	23 182 6                @ /root/Bela/projects/board_6/WriteFile.cpp:182:6
	cmp	r6, #0
	beq	.LBB6_15
.Ltmp237:
@ BB#2:
	@DEBUG_VALUE: setup:overwrite [bit_piece offset=0 size=1] <- %R7
	@DEBUG_VALUE: _M_data:this <- %R5
	@DEBUG_VALUE: c_str:this <- %R5
	@DEBUG_VALUE: _M_data:this <- %R5
	@DEBUG_VALUE: c_str:this <- %R5
	@DEBUG_VALUE: _M_data:this <- %R5
	@DEBUG_VALUE: c_str:this <- %R5
	@DEBUG_VALUE: assign:this <- %R5
	@DEBUG_VALUE: _M_capacity:this <- %R5
	@DEBUG_VALUE: _M_length:this <- %R5
	@DEBUG_VALUE: _M_data:this <- %R5
	@DEBUG_VALUE: _M_data:this <- %R5
	@DEBUG_VALUE: _M_local_data:this <- %R5
	@DEBUG_VALUE: _M_data:this <- %R5
	@DEBUG_VALUE: _M_is_local:this <- %R5
	@DEBUG_VALUE: _M_local_data:this <- %R5
	@DEBUG_VALUE: _M_data:this <- %R5
	@DEBUG_VALUE: _M_is_local:this <- %R5
	@DEBUG_VALUE: operator=:this <- %R5
	@DEBUG_VALUE: operator=:this <- %R5
	@DEBUG_VALUE: assign:this <- %R5
	@DEBUG_VALUE: setup:this <- %R4
	.loc	23 186 11 discriminator 1 @ /root/Bela/projects/board_6/WriteFile.cpp:186:11
	movw	r1, :lower16:.L.str.5
	movt	r1, :upper16:.L.str.5
	b	.LBB6_16
.Ltmp238:
.LBB6_3:
	@DEBUG_VALUE: setup:overwrite [bit_piece offset=0 size=1] <- %R7
	@DEBUG_VALUE: _M_data:this <- %R5
	@DEBUG_VALUE: c_str:this <- %R5
	@DEBUG_VALUE: _M_data:this <- %R5
	@DEBUG_VALUE: c_str:this <- %R5
	@DEBUG_VALUE: _M_data:this <- %R5
	@DEBUG_VALUE: c_str:this <- %R5
	@DEBUG_VALUE: assign:this <- %R5
	@DEBUG_VALUE: _M_capacity:this <- %R5
	@DEBUG_VALUE: _M_length:this <- %R5
	@DEBUG_VALUE: _M_data:this <- %R5
	@DEBUG_VALUE: _M_data:this <- %R5
	@DEBUG_VALUE: _M_local_data:this <- %R5
	@DEBUG_VALUE: _M_data:this <- %R5
	@DEBUG_VALUE: _M_is_local:this <- %R5
	@DEBUG_VALUE: _M_local_data:this <- %R5
	@DEBUG_VALUE: _M_data:this <- %R5
	@DEBUG_VALUE: _M_is_local:this <- %R5
	@DEBUG_VALUE: operator=:this <- %R5
	@DEBUG_VALUE: operator=:this <- %R5
	@DEBUG_VALUE: assign:this <- %R5
	@DEBUG_VALUE: setup:this <- %R4
	mov	r6, sp
.Ltmp239:
	@DEBUG_VALUE: _M_local_data:this <- %R6
	@DEBUG_VALUE: _M_data:this <- %R6
	@DEBUG_VALUE: _M_is_local:this <- %R6
	@DEBUG_VALUE: operator=:__str <- %R6
	.loc	23 178 14 discriminator 1 @ /root/Bela/projects/board_6/WriteFile.cpp:178:14
	mov	r1, r5
	mov	r0, r6
	bl	_ZN9WriteFile22generateUniqueFilenameERKNSt7__cxx1112basic_stringIcSt11char_traitsIcESaIcEEE
.Ltmp240:
	.loc	27 136 28               @ /usr/bin/../lib/gcc/arm-linux-gnueabihf/6.3.0/../../../../include/c++/6.3.0/bits/basic_string.h:136:28
	ldr	r1, [sp]
.Ltmp241:
	@DEBUG_VALUE: _M_data:__p <- %R7
	.loc	27 152 57               @ /usr/bin/../lib/gcc/arm-linux-gnueabihf/6.3.0/../../../../include/c++/6.3.0/bits/basic_string.h:152:57
	add	r7, r6, #8
.Ltmp242:
	.loc	27 648 6 discriminator 1 @ /usr/bin/../lib/gcc/arm-linux-gnueabihf/6.3.0/../../../../include/c++/6.3.0/bits/basic_string.h:648:6
	cmp	r1, r7
	beq	.LBB6_6
.Ltmp243:
@ BB#4:
	@DEBUG_VALUE: operator=:__str <- %R6
	@DEBUG_VALUE: _M_is_local:this <- %R6
	@DEBUG_VALUE: _M_data:this <- %R6
	@DEBUG_VALUE: _M_local_data:this <- %R6
	@DEBUG_VALUE: _M_data:this <- %R5
	@DEBUG_VALUE: c_str:this <- %R5
	@DEBUG_VALUE: _M_data:this <- %R5
	@DEBUG_VALUE: c_str:this <- %R5
	@DEBUG_VALUE: _M_data:this <- %R5
	@DEBUG_VALUE: c_str:this <- %R5
	@DEBUG_VALUE: assign:this <- %R5
	@DEBUG_VALUE: _M_capacity:this <- %R5
	@DEBUG_VALUE: _M_length:this <- %R5
	@DEBUG_VALUE: _M_data:this <- %R5
	@DEBUG_VALUE: _M_data:this <- %R5
	@DEBUG_VALUE: _M_local_data:this <- %R5
	@DEBUG_VALUE: _M_data:this <- %R5
	@DEBUG_VALUE: _M_is_local:this <- %R5
	@DEBUG_VALUE: _M_local_data:this <- %R5
	@DEBUG_VALUE: _M_data:this <- %R5
	@DEBUG_VALUE: _M_is_local:this <- %R5
	@DEBUG_VALUE: operator=:this <- %R5
	@DEBUG_VALUE: operator=:this <- %R5
	@DEBUG_VALUE: assign:this <- %R5
	@DEBUG_VALUE: setup:this <- %R4
	.loc	27 136 28               @ /usr/bin/../lib/gcc/arm-linux-gnueabihf/6.3.0/../../../../include/c++/6.3.0/bits/basic_string.h:136:28
	ldr	r0, [r4, #128]
.Ltmp244:
	@DEBUG_VALUE: __data <- %R0
	.loc	27 152 57               @ /usr/bin/../lib/gcc/arm-linux-gnueabihf/6.3.0/../../../../include/c++/6.3.0/bits/basic_string.h:152:57
	add	r2, r4, #136
.Ltmp245:
	.loc	27 654 10 discriminator 1 @ /usr/bin/../lib/gcc/arm-linux-gnueabihf/6.3.0/../../../../include/c++/6.3.0/bits/basic_string.h:654:10
	cmp	r0, r2
	beq	.LBB6_8
.Ltmp246:
@ BB#5:
	@DEBUG_VALUE: __data <- %R0
	@DEBUG_VALUE: operator=:__str <- %R6
	@DEBUG_VALUE: _M_is_local:this <- %R6
	@DEBUG_VALUE: _M_data:this <- %R6
	@DEBUG_VALUE: _M_local_data:this <- %R6
	@DEBUG_VALUE: _M_data:this <- %R5
	@DEBUG_VALUE: c_str:this <- %R5
	@DEBUG_VALUE: _M_data:this <- %R5
	@DEBUG_VALUE: c_str:this <- %R5
	@DEBUG_VALUE: _M_data:this <- %R5
	@DEBUG_VALUE: c_str:this <- %R5
	@DEBUG_VALUE: assign:this <- %R5
	@DEBUG_VALUE: _M_capacity:this <- %R5
	@DEBUG_VALUE: _M_length:this <- %R5
	@DEBUG_VALUE: _M_data:this <- %R5
	@DEBUG_VALUE: _M_data:this <- %R5
	@DEBUG_VALUE: _M_local_data:this <- %R5
	@DEBUG_VALUE: _M_data:this <- %R5
	@DEBUG_VALUE: _M_is_local:this <- %R5
	@DEBUG_VALUE: _M_local_data:this <- %R5
	@DEBUG_VALUE: _M_data:this <- %R5
	@DEBUG_VALUE: _M_is_local:this <- %R5
	@DEBUG_VALUE: operator=:this <- %R5
	@DEBUG_VALUE: operator=:this <- %R5
	@DEBUG_VALUE: assign:this <- %R5
	@DEBUG_VALUE: setup:this <- %R4
	.loc	27 659 20               @ /usr/bin/../lib/gcc/arm-linux-gnueabihf/6.3.0/../../../../include/c++/6.3.0/bits/basic_string.h:659:20
	ldr	r2, [r4, #136]
.Ltmp247:
	@DEBUG_VALUE: __capacity <- %R2
	b	.LBB6_9
.Ltmp248:
.LBB6_6:
	@DEBUG_VALUE: operator=:__str <- %R6
	@DEBUG_VALUE: _M_is_local:this <- %R6
	@DEBUG_VALUE: _M_data:this <- %R6
	@DEBUG_VALUE: _M_local_data:this <- %R6
	@DEBUG_VALUE: _M_data:this <- %R5
	@DEBUG_VALUE: c_str:this <- %R5
	@DEBUG_VALUE: _M_data:this <- %R5
	@DEBUG_VALUE: c_str:this <- %R5
	@DEBUG_VALUE: _M_data:this <- %R5
	@DEBUG_VALUE: c_str:this <- %R5
	@DEBUG_VALUE: assign:this <- %R5
	@DEBUG_VALUE: _M_capacity:this <- %R5
	@DEBUG_VALUE: _M_length:this <- %R5
	@DEBUG_VALUE: _M_data:this <- %R5
	@DEBUG_VALUE: _M_data:this <- %R5
	@DEBUG_VALUE: _M_local_data:this <- %R5
	@DEBUG_VALUE: _M_data:this <- %R5
	@DEBUG_VALUE: _M_is_local:this <- %R5
	@DEBUG_VALUE: _M_local_data:this <- %R5
	@DEBUG_VALUE: _M_data:this <- %R5
	@DEBUG_VALUE: _M_is_local:this <- %R5
	@DEBUG_VALUE: operator=:this <- %R5
	@DEBUG_VALUE: operator=:this <- %R5
	@DEBUG_VALUE: assign:this <- %R5
	@DEBUG_VALUE: setup:this <- %R4
	.loc	27 1196 8               @ /usr/bin/../lib/gcc/arm-linux-gnueabihf/6.3.0/../../../../include/c++/6.3.0/bits/basic_string.h:1196:8
.Ltmp208:
	mov	r6, sp
.Ltmp249:
	@DEBUG_VALUE: assign:__str <- %R6
	mov	r0, r5
	mov	r1, r6
	bl	_ZNSt7__cxx1112basic_stringIcSt11char_traitsIcESaIcEE9_M_assignERKS4_
.Ltmp209:
.Ltmp250:
@ BB#7:                                 @ %._ZNSt7__cxx1112basic_stringIcSt11char_traitsIcESaIcEE6assignERKS4_.exit_crit_edge.i
	@DEBUG_VALUE: assign:__str <- %R6
	@DEBUG_VALUE: _M_data:this <- %R5
	@DEBUG_VALUE: c_str:this <- %R5
	@DEBUG_VALUE: _M_data:this <- %R5
	@DEBUG_VALUE: c_str:this <- %R5
	@DEBUG_VALUE: _M_data:this <- %R5
	@DEBUG_VALUE: c_str:this <- %R5
	@DEBUG_VALUE: assign:this <- %R5
	@DEBUG_VALUE: _M_capacity:this <- %R5
	@DEBUG_VALUE: _M_length:this <- %R5
	@DEBUG_VALUE: _M_data:this <- %R5
	@DEBUG_VALUE: _M_data:this <- %R5
	@DEBUG_VALUE: _M_local_data:this <- %R5
	@DEBUG_VALUE: _M_data:this <- %R5
	@DEBUG_VALUE: _M_is_local:this <- %R5
	@DEBUG_VALUE: _M_local_data:this <- %R5
	@DEBUG_VALUE: _M_data:this <- %R5
	@DEBUG_VALUE: _M_is_local:this <- %R5
	@DEBUG_VALUE: operator=:this <- %R5
	@DEBUG_VALUE: operator=:this <- %R5
	@DEBUG_VALUE: assign:this <- %R5
	@DEBUG_VALUE: setup:this <- %R4
	.loc	27 136 28               @ /usr/bin/../lib/gcc/arm-linux-gnueabihf/6.3.0/../../../../include/c++/6.3.0/bits/basic_string.h:136:28
	ldr	r0, [sp]
.Ltmp251:
	.loc	27 132 9                @ /usr/bin/../lib/gcc/arm-linux-gnueabihf/6.3.0/../../../../include/c++/6.3.0/bits/basic_string.h:132:9
	add	r1, r6, #4
	b	.LBB6_12
.Ltmp252:
.LBB6_8:
	@DEBUG_VALUE: __data <- %R0
	@DEBUG_VALUE: operator=:__str <- %R6
	@DEBUG_VALUE: _M_is_local:this <- %R6
	@DEBUG_VALUE: _M_data:this <- %R6
	@DEBUG_VALUE: _M_local_data:this <- %R6
	@DEBUG_VALUE: _M_data:this <- %R5
	@DEBUG_VALUE: c_str:this <- %R5
	@DEBUG_VALUE: _M_data:this <- %R5
	@DEBUG_VALUE: c_str:this <- %R5
	@DEBUG_VALUE: _M_data:this <- %R5
	@DEBUG_VALUE: c_str:this <- %R5
	@DEBUG_VALUE: assign:this <- %R5
	@DEBUG_VALUE: _M_capacity:this <- %R5
	@DEBUG_VALUE: _M_length:this <- %R5
	@DEBUG_VALUE: _M_data:this <- %R5
	@DEBUG_VALUE: _M_data:this <- %R5
	@DEBUG_VALUE: _M_local_data:this <- %R5
	@DEBUG_VALUE: _M_data:this <- %R5
	@DEBUG_VALUE: _M_is_local:this <- %R5
	@DEBUG_VALUE: _M_local_data:this <- %R5
	@DEBUG_VALUE: _M_data:this <- %R5
	@DEBUG_VALUE: _M_is_local:this <- %R5
	@DEBUG_VALUE: operator=:this <- %R5
	@DEBUG_VALUE: operator=:this <- %R5
	@DEBUG_VALUE: assign:this <- %R5
	@DEBUG_VALUE: setup:this <- %R4
	mov	r0, #0
.Ltmp253:
	@DEBUG_VALUE: __data <- %R0
	.loc	23 178 12 discriminator 2 @ /root/Bela/projects/board_6/WriteFile.cpp:178:12
                                        @ implicit-def: %R2
.Ltmp254:
.LBB6_9:                                @ %._crit_edge.i
	@DEBUG_VALUE: __data <- %R0
	@DEBUG_VALUE: operator=:__str <- %R6
	@DEBUG_VALUE: _M_is_local:this <- %R6
	@DEBUG_VALUE: _M_data:this <- %R6
	@DEBUG_VALUE: _M_local_data:this <- %R6
	@DEBUG_VALUE: _M_data:this <- %R5
	@DEBUG_VALUE: c_str:this <- %R5
	@DEBUG_VALUE: _M_data:this <- %R5
	@DEBUG_VALUE: c_str:this <- %R5
	@DEBUG_VALUE: _M_data:this <- %R5
	@DEBUG_VALUE: c_str:this <- %R5
	@DEBUG_VALUE: assign:this <- %R5
	@DEBUG_VALUE: _M_capacity:this <- %R5
	@DEBUG_VALUE: _M_length:this <- %R5
	@DEBUG_VALUE: _M_data:this <- %R5
	@DEBUG_VALUE: _M_data:this <- %R5
	@DEBUG_VALUE: _M_local_data:this <- %R5
	@DEBUG_VALUE: _M_data:this <- %R5
	@DEBUG_VALUE: _M_is_local:this <- %R5
	@DEBUG_VALUE: _M_local_data:this <- %R5
	@DEBUG_VALUE: _M_data:this <- %R5
	@DEBUG_VALUE: _M_is_local:this <- %R5
	@DEBUG_VALUE: operator=:this <- %R5
	@DEBUG_VALUE: operator=:this <- %R5
	@DEBUG_VALUE: assign:this <- %R5
	@DEBUG_VALUE: setup:this <- %R4
	.loc	27 128 26               @ /usr/bin/../lib/gcc/arm-linux-gnueabihf/6.3.0/../../../../include/c++/6.3.0/bits/basic_string.h:128:26
	str	r1, [r4, #128]
.Ltmp255:
	.loc	27 668 10               @ /usr/bin/../lib/gcc/arm-linux-gnueabihf/6.3.0/../../../../include/c++/6.3.0/bits/basic_string.h:668:10
	cmp	r0, #0
.Ltmp256:
	@DEBUG_VALUE: _M_data:__p <- %R0
	.loc	27 811 16               @ /usr/bin/../lib/gcc/arm-linux-gnueabihf/6.3.0/../../../../include/c++/6.3.0/bits/basic_string.h:811:16
	ldr	r1, [sp, #4]
.Ltmp257:
	@DEBUG_VALUE: _M_length:__length <- %R1
	.loc	27 132 26               @ /usr/bin/../lib/gcc/arm-linux-gnueabihf/6.3.0/../../../../include/c++/6.3.0/bits/basic_string.h:132:26
	str	r1, [r4, #132]
.Ltmp258:
	.loc	27 667 24               @ /usr/bin/../lib/gcc/arm-linux-gnueabihf/6.3.0/../../../../include/c++/6.3.0/bits/basic_string.h:667:24
	ldr	r1, [sp, #8]
.Ltmp259:
	@DEBUG_VALUE: _M_capacity:__capacity <- %R1
	.loc	27 160 31               @ /usr/bin/../lib/gcc/arm-linux-gnueabihf/6.3.0/../../../../include/c++/6.3.0/bits/basic_string.h:160:31
	str	r1, [r4, #136]
.Ltmp260:
	@DEBUG_VALUE: _M_data:this <- %R6
	@DEBUG_VALUE: length:this <- %R6
	.loc	27 811 16               @ /usr/bin/../lib/gcc/arm-linux-gnueabihf/6.3.0/../../../../include/c++/6.3.0/bits/basic_string.h:811:16
	add	r1, r6, #4
.Ltmp261:
	.loc	27 668 10               @ /usr/bin/../lib/gcc/arm-linux-gnueabihf/6.3.0/../../../../include/c++/6.3.0/bits/basic_string.h:668:10
	beq	.LBB6_11
.Ltmp262:
@ BB#10:
	@DEBUG_VALUE: length:this <- %R6
	@DEBUG_VALUE: _M_data:this <- %R6
	@DEBUG_VALUE: _M_data:__p <- %R0
	@DEBUG_VALUE: __data <- %R0
	@DEBUG_VALUE: operator=:__str <- %R6
	@DEBUG_VALUE: _M_is_local:this <- %R6
	@DEBUG_VALUE: _M_data:this <- %R6
	@DEBUG_VALUE: _M_local_data:this <- %R6
	@DEBUG_VALUE: _M_data:this <- %R5
	@DEBUG_VALUE: c_str:this <- %R5
	@DEBUG_VALUE: _M_data:this <- %R5
	@DEBUG_VALUE: c_str:this <- %R5
	@DEBUG_VALUE: _M_data:this <- %R5
	@DEBUG_VALUE: c_str:this <- %R5
	@DEBUG_VALUE: assign:this <- %R5
	@DEBUG_VALUE: _M_capacity:this <- %R5
	@DEBUG_VALUE: _M_length:this <- %R5
	@DEBUG_VALUE: _M_data:this <- %R5
	@DEBUG_VALUE: _M_data:this <- %R5
	@DEBUG_VALUE: _M_local_data:this <- %R5
	@DEBUG_VALUE: _M_data:this <- %R5
	@DEBUG_VALUE: _M_is_local:this <- %R5
	@DEBUG_VALUE: _M_local_data:this <- %R5
	@DEBUG_VALUE: _M_data:this <- %R5
	@DEBUG_VALUE: _M_is_local:this <- %R5
	@DEBUG_VALUE: operator=:this <- %R5
	@DEBUG_VALUE: operator=:this <- %R5
	@DEBUG_VALUE: assign:this <- %R5
	@DEBUG_VALUE: setup:this <- %R4
	@DEBUG_VALUE: _M_capacity:__capacity <- %R2
	.loc	27 128 26               @ /usr/bin/../lib/gcc/arm-linux-gnueabihf/6.3.0/../../../../include/c++/6.3.0/bits/basic_string.h:128:26
	str	r0, [sp]
.Ltmp263:
	.loc	27 160 31               @ /usr/bin/../lib/gcc/arm-linux-gnueabihf/6.3.0/../../../../include/c++/6.3.0/bits/basic_string.h:160:31
	str	r2, [sp, #8]
	b	.LBB6_12
.Ltmp264:
.LBB6_11:
	@DEBUG_VALUE: length:this <- %R6
	@DEBUG_VALUE: _M_data:this <- %R6
	@DEBUG_VALUE: _M_data:__p <- %R0
	@DEBUG_VALUE: __data <- %R0
	@DEBUG_VALUE: operator=:__str <- %R6
	@DEBUG_VALUE: _M_is_local:this <- %R6
	@DEBUG_VALUE: _M_data:this <- %R6
	@DEBUG_VALUE: _M_local_data:this <- %R6
	@DEBUG_VALUE: _M_data:this <- %R5
	@DEBUG_VALUE: c_str:this <- %R5
	@DEBUG_VALUE: _M_data:this <- %R5
	@DEBUG_VALUE: c_str:this <- %R5
	@DEBUG_VALUE: _M_data:this <- %R5
	@DEBUG_VALUE: c_str:this <- %R5
	@DEBUG_VALUE: assign:this <- %R5
	@DEBUG_VALUE: _M_capacity:this <- %R5
	@DEBUG_VALUE: _M_length:this <- %R5
	@DEBUG_VALUE: _M_data:this <- %R5
	@DEBUG_VALUE: _M_data:this <- %R5
	@DEBUG_VALUE: _M_local_data:this <- %R5
	@DEBUG_VALUE: _M_data:this <- %R5
	@DEBUG_VALUE: _M_is_local:this <- %R5
	@DEBUG_VALUE: _M_local_data:this <- %R5
	@DEBUG_VALUE: _M_data:this <- %R5
	@DEBUG_VALUE: _M_is_local:this <- %R5
	@DEBUG_VALUE: operator=:this <- %R5
	@DEBUG_VALUE: operator=:this <- %R5
	@DEBUG_VALUE: assign:this <- %R5
	@DEBUG_VALUE: setup:this <- %R4
	.loc	27 136 28               @ /usr/bin/../lib/gcc/arm-linux-gnueabihf/6.3.0/../../../../include/c++/6.3.0/bits/basic_string.h:136:28
	mov	r0, r7
.Ltmp265:
	.loc	27 128 26               @ /usr/bin/../lib/gcc/arm-linux-gnueabihf/6.3.0/../../../../include/c++/6.3.0/bits/basic_string.h:128:26
	str	r7, [sp]
.Ltmp266:
.LBB6_12:                               @ %_ZNSt7__cxx1112basic_stringIcSt11char_traitsIcESaIcEEaSEOS4_.exit
	@DEBUG_VALUE: _M_data:this <- %R5
	@DEBUG_VALUE: c_str:this <- %R5
	@DEBUG_VALUE: _M_data:this <- %R5
	@DEBUG_VALUE: c_str:this <- %R5
	@DEBUG_VALUE: _M_data:this <- %R5
	@DEBUG_VALUE: c_str:this <- %R5
	@DEBUG_VALUE: assign:this <- %R5
	@DEBUG_VALUE: _M_capacity:this <- %R5
	@DEBUG_VALUE: _M_length:this <- %R5
	@DEBUG_VALUE: _M_data:this <- %R5
	@DEBUG_VALUE: _M_data:this <- %R5
	@DEBUG_VALUE: _M_local_data:this <- %R5
	@DEBUG_VALUE: _M_data:this <- %R5
	@DEBUG_VALUE: _M_is_local:this <- %R5
	@DEBUG_VALUE: _M_local_data:this <- %R5
	@DEBUG_VALUE: _M_data:this <- %R5
	@DEBUG_VALUE: _M_is_local:this <- %R5
	@DEBUG_VALUE: operator=:this <- %R5
	@DEBUG_VALUE: operator=:this <- %R5
	@DEBUG_VALUE: assign:this <- %R5
	@DEBUG_VALUE: setup:this <- %R4
	@DEBUG_VALUE: _M_set_length:__n <- 0
	@DEBUG_VALUE: _M_length:__length <- 0
	mov	r2, #0
.Ltmp267:
	.loc	27 132 26               @ /usr/bin/../lib/gcc/arm-linux-gnueabihf/6.3.0/../../../../include/c++/6.3.0/bits/basic_string.h:132:26
	str	r2, [r1]
.Ltmp268:
	.loc	30 243 14               @ /usr/bin/../lib/gcc/arm-linux-gnueabihf/6.3.0/../../../../include/c++/6.3.0/bits/char_traits.h:243:14
	strb	r2, [r0]
.Ltmp269:
	.loc	27 136 28               @ /usr/bin/../lib/gcc/arm-linux-gnueabihf/6.3.0/../../../../include/c++/6.3.0/bits/basic_string.h:136:28
	ldr	r0, [sp]
.Ltmp270:
	@DEBUG_VALUE: deallocate:__p <- %R0
	@DEBUG_VALUE: deallocate:__p <- %R0
	.loc	27 180 6                @ /usr/bin/../lib/gcc/arm-linux-gnueabihf/6.3.0/../../../../include/c++/6.3.0/bits/basic_string.h:180:6
	cmp	r0, r7
.Ltmp271:
	@DEBUG_VALUE: assign:__c1 <- %R0
	beq	.LBB6_14
.Ltmp272:
@ BB#13:
	@DEBUG_VALUE: assign:__c1 <- %R0
	@DEBUG_VALUE: deallocate:__p <- %R0
	@DEBUG_VALUE: deallocate:__p <- %R0
	@DEBUG_VALUE: _M_data:this <- %R5
	@DEBUG_VALUE: c_str:this <- %R5
	@DEBUG_VALUE: _M_data:this <- %R5
	@DEBUG_VALUE: c_str:this <- %R5
	@DEBUG_VALUE: _M_data:this <- %R5
	@DEBUG_VALUE: c_str:this <- %R5
	@DEBUG_VALUE: assign:this <- %R5
	@DEBUG_VALUE: _M_capacity:this <- %R5
	@DEBUG_VALUE: _M_length:this <- %R5
	@DEBUG_VALUE: _M_data:this <- %R5
	@DEBUG_VALUE: _M_data:this <- %R5
	@DEBUG_VALUE: _M_local_data:this <- %R5
	@DEBUG_VALUE: _M_data:this <- %R5
	@DEBUG_VALUE: _M_is_local:this <- %R5
	@DEBUG_VALUE: _M_local_data:this <- %R5
	@DEBUG_VALUE: _M_data:this <- %R5
	@DEBUG_VALUE: _M_is_local:this <- %R5
	@DEBUG_VALUE: operator=:this <- %R5
	@DEBUG_VALUE: operator=:this <- %R5
	@DEBUG_VALUE: assign:this <- %R5
	@DEBUG_VALUE: setup:this <- %R4
	.loc	10 110 9                @ /usr/bin/../lib/gcc/arm-linux-gnueabihf/6.3.0/../../../../include/c++/6.3.0/ext/new_allocator.h:110:9
	bl	_ZdlPv
.Ltmp273:
.LBB6_14:                               @ %_ZNSt7__cxx1112basic_stringIcSt11char_traitsIcESaIcEED2Ev.exit
	@DEBUG_VALUE: _M_data:this <- %R5
	@DEBUG_VALUE: c_str:this <- %R5
	@DEBUG_VALUE: _M_data:this <- %R5
	@DEBUG_VALUE: c_str:this <- %R5
	@DEBUG_VALUE: _M_data:this <- %R5
	@DEBUG_VALUE: c_str:this <- %R5
	@DEBUG_VALUE: assign:this <- %R5
	@DEBUG_VALUE: _M_capacity:this <- %R5
	@DEBUG_VALUE: _M_length:this <- %R5
	@DEBUG_VALUE: _M_data:this <- %R5
	@DEBUG_VALUE: _M_data:this <- %R5
	@DEBUG_VALUE: _M_local_data:this <- %R5
	@DEBUG_VALUE: _M_data:this <- %R5
	@DEBUG_VALUE: _M_is_local:this <- %R5
	@DEBUG_VALUE: _M_local_data:this <- %R5
	@DEBUG_VALUE: _M_data:this <- %R5
	@DEBUG_VALUE: _M_is_local:this <- %R5
	@DEBUG_VALUE: operator=:this <- %R5
	@DEBUG_VALUE: operator=:this <- %R5
	@DEBUG_VALUE: assign:this <- %R5
	@DEBUG_VALUE: setup:this <- %R4
	.loc	27 136 28               @ /usr/bin/../lib/gcc/arm-linux-gnueabihf/6.3.0/../../../../include/c++/6.3.0/bits/basic_string.h:136:28
	ldr	r0, [r4, #128]
.Ltmp274:
.LBB6_15:
	@DEBUG_VALUE: _M_data:this <- %R5
	@DEBUG_VALUE: c_str:this <- %R5
	@DEBUG_VALUE: _M_data:this <- %R5
	@DEBUG_VALUE: c_str:this <- %R5
	@DEBUG_VALUE: _M_data:this <- %R5
	@DEBUG_VALUE: c_str:this <- %R5
	@DEBUG_VALUE: assign:this <- %R5
	@DEBUG_VALUE: _M_capacity:this <- %R5
	@DEBUG_VALUE: _M_length:this <- %R5
	@DEBUG_VALUE: _M_data:this <- %R5
	@DEBUG_VALUE: _M_data:this <- %R5
	@DEBUG_VALUE: _M_local_data:this <- %R5
	@DEBUG_VALUE: _M_data:this <- %R5
	@DEBUG_VALUE: _M_is_local:this <- %R5
	@DEBUG_VALUE: _M_local_data:this <- %R5
	@DEBUG_VALUE: _M_data:this <- %R5
	@DEBUG_VALUE: _M_is_local:this <- %R5
	@DEBUG_VALUE: operator=:this <- %R5
	@DEBUG_VALUE: operator=:this <- %R5
	@DEBUG_VALUE: assign:this <- %R5
	@DEBUG_VALUE: setup:this <- %R4
	.loc	23 184 11 discriminator 1 @ /root/Bela/projects/board_6/WriteFile.cpp:184:11
	movw	r1, :lower16:.L.str.3
	movt	r1, :upper16:.L.str.3
.Ltmp275:
.LBB6_16:
	@DEBUG_VALUE: _M_data:this <- %R5
	@DEBUG_VALUE: c_str:this <- %R5
	@DEBUG_VALUE: _M_data:this <- %R5
	@DEBUG_VALUE: c_str:this <- %R5
	@DEBUG_VALUE: _M_data:this <- %R5
	@DEBUG_VALUE: c_str:this <- %R5
	@DEBUG_VALUE: assign:this <- %R5
	@DEBUG_VALUE: _M_capacity:this <- %R5
	@DEBUG_VALUE: _M_length:this <- %R5
	@DEBUG_VALUE: _M_data:this <- %R5
	@DEBUG_VALUE: _M_data:this <- %R5
	@DEBUG_VALUE: _M_local_data:this <- %R5
	@DEBUG_VALUE: _M_data:this <- %R5
	@DEBUG_VALUE: _M_is_local:this <- %R5
	@DEBUG_VALUE: _M_local_data:this <- %R5
	@DEBUG_VALUE: _M_data:this <- %R5
	@DEBUG_VALUE: _M_is_local:this <- %R5
	@DEBUG_VALUE: operator=:this <- %R5
	@DEBUG_VALUE: operator=:this <- %R5
	@DEBUG_VALUE: assign:this <- %R5
	@DEBUG_VALUE: setup:this <- %R4
	.loc	23 186 11 discriminator 1 @ /root/Bela/projects/board_6/WriteFile.cpp:186:11
	bl	fopen
	.loc	23 186 9 is_stmt 0      @ /root/Bela/projects/board_6/WriteFile.cpp:186:9
	str	r0, [r4, #124]
	mov	r0, #0
.Ltmp276:
	@DEBUG_VALUE: setEcho:this <- %R4
	@DEBUG_VALUE: setEcho:newEcho [bit_piece offset=0 size=1] <- 0
	.loc	23 190 13 is_stmt 1     @ /root/Bela/projects/board_6/WriteFile.cpp:190:13
	str	r0, [r4, #116]
	.loc	23 189 11               @ /root/Bela/projects/board_6/WriteFile.cpp:189:11
	str	r0, [r4, #120]
.Ltmp277:
	.loc	23 212 6                @ /root/Bela/projects/board_6/WriteFile.cpp:212:6
	strb	r0, [r4, #164]
.Ltmp278:
	.loc	23 192 18               @ /root/Bela/projects/board_6/WriteFile.cpp:192:18
	str	r0, [r4, #80]
	.loc	23 193 20               @ /root/Bela/projects/board_6/WriteFile.cpp:193:20
	str	r0, [r4, #84]
	.loc	23 194 15               @ /root/Bela/projects/board_6/WriteFile.cpp:194:15
	str	r0, [r4, #88]
.Ltmp279:
	.loc	6 656 66                @ /usr/bin/../lib/gcc/arm-linux-gnueabihf/6.3.0/../../../../include/c++/6.3.0/bits/stl_vector.h:656:66
	mov	r0, r4
	ldr	r1, [r0, #56]!
.Ltmp280:
	@DEBUG_VALUE: size:this <- %R0
	@DEBUG_VALUE: resize:this <- %R0
	@DEBUG_VALUE: size:this <- %R0
	@DEBUG_VALUE: _M_erase_at_end:this <- %R0
	@DEBUG_VALUE: resize:__new_size <- 1000
	.loc	6 656 40 is_stmt 0      @ /usr/bin/../lib/gcc/arm-linux-gnueabihf/6.3.0/../../../../include/c++/6.3.0/bits/stl_vector.h:656:40
	ldr	r2, [r0, #4]
	.loc	6 656 50                @ /usr/bin/../lib/gcc/arm-linux-gnueabihf/6.3.0/../../../../include/c++/6.3.0/bits/stl_vector.h:656:50
	sub	r2, r2, r1
.Ltmp281:
	.loc	6 676 6 is_stmt 1       @ /usr/bin/../lib/gcc/arm-linux-gnueabihf/6.3.0/../../../../include/c++/6.3.0/bits/stl_vector.h:676:6
	lsr	r3, r2, #3
	cmp	r3, #124
	bhi	.LBB6_18
.Ltmp282:
@ BB#17:
	@DEBUG_VALUE: _M_erase_at_end:this <- %R0
	@DEBUG_VALUE: size:this <- %R0
	@DEBUG_VALUE: resize:this <- %R0
	@DEBUG_VALUE: size:this <- %R0
	@DEBUG_VALUE: setEcho:this <- %R4
	@DEBUG_VALUE: _M_data:this <- %R5
	@DEBUG_VALUE: c_str:this <- %R5
	@DEBUG_VALUE: _M_data:this <- %R5
	@DEBUG_VALUE: c_str:this <- %R5
	@DEBUG_VALUE: _M_data:this <- %R5
	@DEBUG_VALUE: c_str:this <- %R5
	@DEBUG_VALUE: assign:this <- %R5
	@DEBUG_VALUE: _M_capacity:this <- %R5
	@DEBUG_VALUE: _M_length:this <- %R5
	@DEBUG_VALUE: _M_data:this <- %R5
	@DEBUG_VALUE: _M_data:this <- %R5
	@DEBUG_VALUE: _M_local_data:this <- %R5
	@DEBUG_VALUE: _M_data:this <- %R5
	@DEBUG_VALUE: _M_is_local:this <- %R5
	@DEBUG_VALUE: _M_local_data:this <- %R5
	@DEBUG_VALUE: _M_data:this <- %R5
	@DEBUG_VALUE: _M_is_local:this <- %R5
	@DEBUG_VALUE: operator=:this <- %R5
	@DEBUG_VALUE: operator=:this <- %R5
	@DEBUG_VALUE: assign:this <- %R5
	@DEBUG_VALUE: setup:this <- %R4
	.loc	6 677 33                @ /usr/bin/../lib/gcc/arm-linux-gnueabihf/6.3.0/../../../../include/c++/6.3.0/bits/stl_vector.h:677:33
	rsb	r1, r2, #1000
	.loc	6 677 4 is_stmt 0 discriminator 1 @ /usr/bin/../lib/gcc/arm-linux-gnueabihf/6.3.0/../../../../include/c++/6.3.0/bits/stl_vector.h:677:4
	bl	_ZNSt6vectorIcSaIcEE17_M_default_appendEj
.Ltmp283:
	b	.LBB6_19
.Ltmp284:
.LBB6_18:
	@DEBUG_VALUE: _M_erase_at_end:this <- %R0
	@DEBUG_VALUE: size:this <- %R0
	@DEBUG_VALUE: resize:this <- %R0
	@DEBUG_VALUE: size:this <- %R0
	@DEBUG_VALUE: setEcho:this <- %R4
	@DEBUG_VALUE: _M_data:this <- %R5
	@DEBUG_VALUE: c_str:this <- %R5
	@DEBUG_VALUE: _M_data:this <- %R5
	@DEBUG_VALUE: c_str:this <- %R5
	@DEBUG_VALUE: _M_data:this <- %R5
	@DEBUG_VALUE: c_str:this <- %R5
	@DEBUG_VALUE: assign:this <- %R5
	@DEBUG_VALUE: _M_capacity:this <- %R5
	@DEBUG_VALUE: _M_length:this <- %R5
	@DEBUG_VALUE: _M_data:this <- %R5
	@DEBUG_VALUE: _M_data:this <- %R5
	@DEBUG_VALUE: _M_local_data:this <- %R5
	@DEBUG_VALUE: _M_data:this <- %R5
	@DEBUG_VALUE: _M_is_local:this <- %R5
	@DEBUG_VALUE: _M_local_data:this <- %R5
	@DEBUG_VALUE: _M_data:this <- %R5
	@DEBUG_VALUE: _M_is_local:this <- %R5
	@DEBUG_VALUE: operator=:this <- %R5
	@DEBUG_VALUE: operator=:this <- %R5
	@DEBUG_VALUE: assign:this <- %R5
	@DEBUG_VALUE: setup:this <- %R4
	.loc	6 678 11 is_stmt 1      @ /usr/bin/../lib/gcc/arm-linux-gnueabihf/6.3.0/../../../../include/c++/6.3.0/bits/stl_vector.h:678:11
	cmp	r2, #1000
.Ltmp285:
	.loc	6 679 43                @ /usr/bin/../lib/gcc/arm-linux-gnueabihf/6.3.0/../../../../include/c++/6.3.0/bits/stl_vector.h:679:43
	addne	r0, r1, #1000
.Ltmp286:
	@DEBUG_VALUE: _M_erase_at_end:__pos <- %R0
	.loc	6 1437 26               @ /usr/bin/../lib/gcc/arm-linux-gnueabihf/6.3.0/../../../../include/c++/6.3.0/bits/stl_vector.h:1437:26
	strne	r0, [r4, #60]
.Ltmp287:
.LBB6_19:                               @ %_ZNSt6vectorIcSaIcEE6resizeEj.exit
	@DEBUG_VALUE: setEcho:this <- %R4
	@DEBUG_VALUE: _M_data:this <- %R5
	@DEBUG_VALUE: c_str:this <- %R5
	@DEBUG_VALUE: _M_data:this <- %R5
	@DEBUG_VALUE: c_str:this <- %R5
	@DEBUG_VALUE: _M_data:this <- %R5
	@DEBUG_VALUE: c_str:this <- %R5
	@DEBUG_VALUE: assign:this <- %R5
	@DEBUG_VALUE: _M_capacity:this <- %R5
	@DEBUG_VALUE: _M_length:this <- %R5
	@DEBUG_VALUE: _M_data:this <- %R5
	@DEBUG_VALUE: _M_data:this <- %R5
	@DEBUG_VALUE: _M_local_data:this <- %R5
	@DEBUG_VALUE: _M_data:this <- %R5
	@DEBUG_VALUE: _M_is_local:this <- %R5
	@DEBUG_VALUE: _M_local_data:this <- %R5
	@DEBUG_VALUE: _M_data:this <- %R5
	@DEBUG_VALUE: _M_is_local:this <- %R5
	@DEBUG_VALUE: operator=:this <- %R5
	@DEBUG_VALUE: operator=:this <- %R5
	@DEBUG_VALUE: assign:this <- %R5
	@DEBUG_VALUE: setup:this <- %R4
	.loc	30 290 33               @ /usr/bin/../lib/gcc/arm-linux-gnueabihf/6.3.0/../../../../include/c++/6.3.0/bits/char_traits.h:290:33
	mov	r0, #10
.Ltmp288:
	@DEBUG_VALUE: _S_copy:__n <- 11
	mov	r5, sp
.Ltmp289:
	@DEBUG_VALUE: _M_data:this <- %R5
	@DEBUG_VALUE: _M_length:this <- %R5
	@DEBUG_VALUE: _M_set_length:__n <- 11
	@DEBUG_VALUE: _M_set_length:this <- %R5
	@DEBUG_VALUE: _M_data:this <- %R5
	@DEBUG_VALUE: _M_construct<const char *>:__dnew <- 11
	@DEBUG_VALUE: _M_construct<const char *>:this <- %R5
	@DEBUG_VALUE: _M_construct_aux<const char *>:this <- %R5
	@DEBUG_VALUE: _M_construct<const char *>:this <- %R5
	@DEBUG_VALUE: _S_copy_chars:__p <- %R6
	@DEBUG_VALUE: _S_copy:__d <- %R6
	@DEBUG_VALUE: _M_local_data:this <- %R5
	@DEBUG_VALUE: basic_string:this <- %R5
	.loc	27 142 51               @ /usr/bin/../lib/gcc/arm-linux-gnueabihf/6.3.0/../../../../include/c++/6.3.0/bits/basic_string.h:142:51
	add	r6, r5, #8
.Ltmp290:
	.loc	27 110 25               @ /usr/bin/../lib/gcc/arm-linux-gnueabihf/6.3.0/../../../../include/c++/6.3.0/bits/basic_string.h:110:25
	str	r6, [sp]
.Ltmp291:
	.loc	30 290 33               @ /usr/bin/../lib/gcc/arm-linux-gnueabihf/6.3.0/../../../../include/c++/6.3.0/bits/char_traits.h:290:33
	strb	r0, [sp, #18]
	movw	r0, :lower16:.L.str.6
	movt	r0, :upper16:.L.str.6
.Ltmp292:
	@DEBUG_VALUE: _S_copy:__s <- %R0
	vldr	d16, [r0]
	movw	r0, #23357
.Ltmp293:
	strh	r0, [sp, #16]
	mov	r0, #11
.Ltmp294:
	@DEBUG_VALUE: _M_length:__length <- 11
	vstr	d16, [sp, #8]
.Ltmp295:
	.loc	27 132 26               @ /usr/bin/../lib/gcc/arm-linux-gnueabihf/6.3.0/../../../../include/c++/6.3.0/bits/basic_string.h:132:26
	str	r0, [sp, #4]
.Ltmp296:
	.loc	30 243 14               @ /usr/bin/../lib/gcc/arm-linux-gnueabihf/6.3.0/../../../../include/c++/6.3.0/bits/char_traits.h:243:14
	mov	r0, #0
	strb	r0, [sp, #19]
.Ltmp297:
	.loc	23 196 2 discriminator 1 @ /root/Bela/projects/board_6/WriteFile.cpp:196:2
.Ltmp211:
	mov	r0, r4
	mov	r1, r5
	bl	_ZN9WriteFile9setHeaderERKNSt7__cxx1112basic_stringIcSt11char_traitsIcESaIcEEE
.Ltmp212:
.Ltmp298:
@ BB#20:
	@DEBUG_VALUE: basic_string:this <- %R5
	@DEBUG_VALUE: _M_local_data:this <- %R5
	@DEBUG_VALUE: _M_construct<const char *>:this <- %R5
	@DEBUG_VALUE: _M_construct_aux<const char *>:this <- %R5
	@DEBUG_VALUE: _M_construct<const char *>:this <- %R5
	@DEBUG_VALUE: _M_data:this <- %R5
	@DEBUG_VALUE: _M_set_length:this <- %R5
	@DEBUG_VALUE: _M_length:this <- %R5
	@DEBUG_VALUE: _M_data:this <- %R5
	@DEBUG_VALUE: setEcho:this <- %R4
	@DEBUG_VALUE: setup:this <- %R4
	.loc	27 136 28               @ /usr/bin/../lib/gcc/arm-linux-gnueabihf/6.3.0/../../../../include/c++/6.3.0/bits/basic_string.h:136:28
	ldr	r0, [sp]
.Ltmp299:
	@DEBUG_VALUE: deallocate:__p <- %R0
	@DEBUG_VALUE: deallocate:__p <- %R0
	.loc	27 180 6                @ /usr/bin/../lib/gcc/arm-linux-gnueabihf/6.3.0/../../../../include/c++/6.3.0/bits/basic_string.h:180:6
	cmp	r0, r6
	beq	.LBB6_22
.Ltmp300:
@ BB#21:
	@DEBUG_VALUE: deallocate:__p <- %R0
	@DEBUG_VALUE: deallocate:__p <- %R0
	@DEBUG_VALUE: basic_string:this <- %R5
	@DEBUG_VALUE: _M_local_data:this <- %R5
	@DEBUG_VALUE: _M_construct<const char *>:this <- %R5
	@DEBUG_VALUE: _M_construct_aux<const char *>:this <- %R5
	@DEBUG_VALUE: _M_construct<const char *>:this <- %R5
	@DEBUG_VALUE: _M_data:this <- %R5
	@DEBUG_VALUE: _M_set_length:this <- %R5
	@DEBUG_VALUE: _M_length:this <- %R5
	@DEBUG_VALUE: _M_data:this <- %R5
	@DEBUG_VALUE: setEcho:this <- %R4
	@DEBUG_VALUE: setup:this <- %R4
	.loc	10 110 9                @ /usr/bin/../lib/gcc/arm-linux-gnueabihf/6.3.0/../../../../include/c++/6.3.0/ext/new_allocator.h:110:9
	bl	_ZdlPv
.Ltmp301:
.LBB6_22:                               @ %_ZNSt7__cxx1112basic_stringIcSt11char_traitsIcESaIcEED2Ev.exit11
	@DEBUG_VALUE: basic_string:this <- %R5
	@DEBUG_VALUE: _M_local_data:this <- %R5
	@DEBUG_VALUE: _M_construct<const char *>:this <- %R5
	@DEBUG_VALUE: _M_construct_aux<const char *>:this <- %R5
	@DEBUG_VALUE: _M_construct<const char *>:this <- %R5
	@DEBUG_VALUE: _M_data:this <- %R5
	@DEBUG_VALUE: _M_set_length:this <- %R5
	@DEBUG_VALUE: _M_length:this <- %R5
	@DEBUG_VALUE: _M_data:this <- %R5
	@DEBUG_VALUE: setEcho:this <- %R4
	@DEBUG_VALUE: setup:this <- %R4
	@DEBUG_VALUE: basic_string:this <- %R5
	@DEBUG_VALUE: _M_local_data:this <- %R5
	@DEBUG_VALUE: _S_copy:__d <- %R6
	@DEBUG_VALUE: _S_copy_chars:__p <- %R6
	@DEBUG_VALUE: _M_construct<const char *>:this <- %R5
	@DEBUG_VALUE: _M_construct_aux<const char *>:this <- %R5
	@DEBUG_VALUE: _M_construct<const char *>:this <- %R5
	@DEBUG_VALUE: _M_construct<const char *>:__dnew <- 3
	@DEBUG_VALUE: _M_data:this <- %R5
	@DEBUG_VALUE: _M_set_length:this <- %R5
	@DEBUG_VALUE: _M_set_length:__n <- 3
	@DEBUG_VALUE: _M_length:this <- %R5
	@DEBUG_VALUE: _M_data:this <- %R5
	.loc	30 290 33               @ /usr/bin/../lib/gcc/arm-linux-gnueabihf/6.3.0/../../../../include/c++/6.3.0/bits/char_traits.h:290:33
	mov	r0, #10
.Ltmp302:
	@DEBUG_VALUE: _S_copy:__n <- 3
	.loc	27 110 25               @ /usr/bin/../lib/gcc/arm-linux-gnueabihf/6.3.0/../../../../include/c++/6.3.0/bits/basic_string.h:110:25
	str	r6, [sp]
.Ltmp303:
	.loc	30 290 33               @ /usr/bin/../lib/gcc/arm-linux-gnueabihf/6.3.0/../../../../include/c++/6.3.0/bits/char_traits.h:290:33
	strb	r0, [sp, #10]
	movw	r0, #15197
	strh	r0, [sp, #8]
	mov	r0, #3
.Ltmp304:
	@DEBUG_VALUE: _M_length:__length <- 3
	.loc	27 132 26               @ /usr/bin/../lib/gcc/arm-linux-gnueabihf/6.3.0/../../../../include/c++/6.3.0/bits/basic_string.h:132:26
	str	r0, [sp, #4]
.Ltmp305:
	.loc	30 243 14               @ /usr/bin/../lib/gcc/arm-linux-gnueabihf/6.3.0/../../../../include/c++/6.3.0/bits/char_traits.h:243:14
	mov	r0, #0
	strb	r0, [sp, #11]
.Ltmp306:
	.loc	23 197 2 discriminator 1 @ /root/Bela/projects/board_6/WriteFile.cpp:197:2
.Ltmp214:
	mov	r0, r4
	mov	r1, r5
	bl	_ZN9WriteFile9setFooterERKNSt7__cxx1112basic_stringIcSt11char_traitsIcESaIcEEE
.Ltmp215:
.Ltmp307:
@ BB#23:
	@DEBUG_VALUE: _M_data:this <- %R5
	@DEBUG_VALUE: _M_length:this <- %R5
	@DEBUG_VALUE: _M_set_length:this <- %R5
	@DEBUG_VALUE: _M_data:this <- %R5
	@DEBUG_VALUE: _M_construct<const char *>:this <- %R5
	@DEBUG_VALUE: _M_construct_aux<const char *>:this <- %R5
	@DEBUG_VALUE: _M_construct<const char *>:this <- %R5
	@DEBUG_VALUE: _S_copy_chars:__p <- %R6
	@DEBUG_VALUE: _S_copy:__d <- %R6
	@DEBUG_VALUE: _M_local_data:this <- %R5
	@DEBUG_VALUE: basic_string:this <- %R5
	@DEBUG_VALUE: basic_string:this <- %R5
	@DEBUG_VALUE: _M_local_data:this <- %R5
	@DEBUG_VALUE: _M_construct<const char *>:this <- %R5
	@DEBUG_VALUE: _M_construct_aux<const char *>:this <- %R5
	@DEBUG_VALUE: _M_construct<const char *>:this <- %R5
	@DEBUG_VALUE: _M_data:this <- %R5
	@DEBUG_VALUE: _M_set_length:this <- %R5
	@DEBUG_VALUE: _M_length:this <- %R5
	@DEBUG_VALUE: _M_data:this <- %R5
	@DEBUG_VALUE: setEcho:this <- %R4
	@DEBUG_VALUE: setup:this <- %R4
	.loc	27 136 28               @ /usr/bin/../lib/gcc/arm-linux-gnueabihf/6.3.0/../../../../include/c++/6.3.0/bits/basic_string.h:136:28
	ldr	r0, [sp]
.Ltmp308:
	@DEBUG_VALUE: deallocate:__p <- %R0
	@DEBUG_VALUE: deallocate:__p <- %R0
	.loc	27 180 6                @ /usr/bin/../lib/gcc/arm-linux-gnueabihf/6.3.0/../../../../include/c++/6.3.0/bits/basic_string.h:180:6
	cmp	r0, r6
	beq	.LBB6_25
.Ltmp309:
@ BB#24:
	@DEBUG_VALUE: deallocate:__p <- %R0
	@DEBUG_VALUE: deallocate:__p <- %R0
	@DEBUG_VALUE: _M_data:this <- %R5
	@DEBUG_VALUE: _M_length:this <- %R5
	@DEBUG_VALUE: _M_set_length:this <- %R5
	@DEBUG_VALUE: _M_data:this <- %R5
	@DEBUG_VALUE: _M_construct<const char *>:this <- %R5
	@DEBUG_VALUE: _M_construct_aux<const char *>:this <- %R5
	@DEBUG_VALUE: _M_construct<const char *>:this <- %R5
	@DEBUG_VALUE: _S_copy_chars:__p <- %R6
	@DEBUG_VALUE: _S_copy:__d <- %R6
	@DEBUG_VALUE: _M_local_data:this <- %R5
	@DEBUG_VALUE: basic_string:this <- %R5
	@DEBUG_VALUE: basic_string:this <- %R5
	@DEBUG_VALUE: _M_local_data:this <- %R5
	@DEBUG_VALUE: _M_construct<const char *>:this <- %R5
	@DEBUG_VALUE: _M_construct_aux<const char *>:this <- %R5
	@DEBUG_VALUE: _M_construct<const char *>:this <- %R5
	@DEBUG_VALUE: _M_data:this <- %R5
	@DEBUG_VALUE: _M_set_length:this <- %R5
	@DEBUG_VALUE: _M_length:this <- %R5
	@DEBUG_VALUE: _M_data:this <- %R5
	@DEBUG_VALUE: setEcho:this <- %R4
	@DEBUG_VALUE: setup:this <- %R4
	.loc	10 110 9                @ /usr/bin/../lib/gcc/arm-linux-gnueabihf/6.3.0/../../../../include/c++/6.3.0/ext/new_allocator.h:110:9
	bl	_ZdlPv
.Ltmp310:
.LBB6_25:                               @ %_ZNSt7__cxx1112basic_stringIcSt11char_traitsIcESaIcEED2Ev.exit18
	@DEBUG_VALUE: _M_data:this <- %R5
	@DEBUG_VALUE: _M_length:this <- %R5
	@DEBUG_VALUE: _M_set_length:this <- %R5
	@DEBUG_VALUE: _M_data:this <- %R5
	@DEBUG_VALUE: _M_construct<const char *>:this <- %R5
	@DEBUG_VALUE: _M_construct_aux<const char *>:this <- %R5
	@DEBUG_VALUE: _M_construct<const char *>:this <- %R5
	@DEBUG_VALUE: _S_copy_chars:__p <- %R6
	@DEBUG_VALUE: _S_copy:__d <- %R6
	@DEBUG_VALUE: _M_local_data:this <- %R5
	@DEBUG_VALUE: basic_string:this <- %R5
	@DEBUG_VALUE: basic_string:this <- %R5
	@DEBUG_VALUE: _M_local_data:this <- %R5
	@DEBUG_VALUE: _M_construct<const char *>:this <- %R5
	@DEBUG_VALUE: _M_construct_aux<const char *>:this <- %R5
	@DEBUG_VALUE: _M_construct<const char *>:this <- %R5
	@DEBUG_VALUE: _M_data:this <- %R5
	@DEBUG_VALUE: _M_set_length:this <- %R5
	@DEBUG_VALUE: _M_length:this <- %R5
	@DEBUG_VALUE: _M_data:this <- %R5
	@DEBUG_VALUE: setEcho:this <- %R4
	@DEBUG_VALUE: setup:this <- %R4
	.loc	23 198 2                @ /root/Bela/projects/board_6/WriteFile.cpp:198:2
	bl	_ZN9WriteFile17staticConstructorEv
.Ltmp311:
	.loc	18 747 7                @ /usr/bin/../lib/gcc/arm-linux-gnueabihf/6.3.0/../../../../include/arm-linux-gnueabihf/c++/6.3.0/bits/gthr-default.h:747:7
	movw	r8, :lower16:__pthread_key_create
	movt	r8, :upper16:__pthread_key_create
	cmp	r8, #0
	beq	.LBB6_27
.Ltmp312:
@ BB#26:                                @ %_ZL20__gthread_mutex_lockP15pthread_mutex_t.exit.i
	@DEBUG_VALUE: _M_data:this <- %R5
	@DEBUG_VALUE: _M_length:this <- %R5
	@DEBUG_VALUE: _M_set_length:this <- %R5
	@DEBUG_VALUE: _M_data:this <- %R5
	@DEBUG_VALUE: _M_construct<const char *>:this <- %R5
	@DEBUG_VALUE: _M_construct_aux<const char *>:this <- %R5
	@DEBUG_VALUE: _M_construct<const char *>:this <- %R5
	@DEBUG_VALUE: _S_copy_chars:__p <- %R6
	@DEBUG_VALUE: _S_copy:__d <- %R6
	@DEBUG_VALUE: _M_local_data:this <- %R5
	@DEBUG_VALUE: basic_string:this <- %R5
	@DEBUG_VALUE: basic_string:this <- %R5
	@DEBUG_VALUE: _M_local_data:this <- %R5
	@DEBUG_VALUE: _M_construct<const char *>:this <- %R5
	@DEBUG_VALUE: _M_construct_aux<const char *>:this <- %R5
	@DEBUG_VALUE: _M_construct<const char *>:this <- %R5
	@DEBUG_VALUE: _M_data:this <- %R5
	@DEBUG_VALUE: _M_set_length:this <- %R5
	@DEBUG_VALUE: _M_length:this <- %R5
	@DEBUG_VALUE: _M_data:this <- %R5
	@DEBUG_VALUE: setEcho:this <- %R4
	@DEBUG_VALUE: setup:this <- %R4
	.loc	18 748 12               @ /usr/bin/../lib/gcc/arm-linux-gnueabihf/6.3.0/../../../../include/arm-linux-gnueabihf/c++/6.3.0/bits/gthr-default.h:748:12
	movw	r0, :lower16:.L_MergedGlobals.1
	movt	r0, :upper16:.L_MergedGlobals.1
	add	r0, r0, #4
	bl	pthread_mutex_lock
.Ltmp313:
	@DEBUG_VALUE: lock:__e <- %R0
	.loc	25 106 11               @ /usr/bin/../lib/gcc/arm-linux-gnueabihf/6.3.0/../../../../include/c++/6.3.0/bits/std_mutex.h:106:11
	cmp	r0, #0
	bne	.LBB6_40
.Ltmp314:
.LBB6_27:                               @ %_ZNSt5mutex4lockEv.exit
	@DEBUG_VALUE: _M_data:this <- %R5
	@DEBUG_VALUE: _M_length:this <- %R5
	@DEBUG_VALUE: _M_set_length:this <- %R5
	@DEBUG_VALUE: _M_data:this <- %R5
	@DEBUG_VALUE: _M_construct<const char *>:this <- %R5
	@DEBUG_VALUE: _M_construct_aux<const char *>:this <- %R5
	@DEBUG_VALUE: _M_construct<const char *>:this <- %R5
	@DEBUG_VALUE: _S_copy_chars:__p <- %R6
	@DEBUG_VALUE: _S_copy:__d <- %R6
	@DEBUG_VALUE: _M_local_data:this <- %R5
	@DEBUG_VALUE: basic_string:this <- %R5
	@DEBUG_VALUE: basic_string:this <- %R5
	@DEBUG_VALUE: _M_local_data:this <- %R5
	@DEBUG_VALUE: _M_construct<const char *>:this <- %R5
	@DEBUG_VALUE: _M_construct_aux<const char *>:this <- %R5
	@DEBUG_VALUE: _M_construct<const char *>:this <- %R5
	@DEBUG_VALUE: _M_data:this <- %R5
	@DEBUG_VALUE: _M_set_length:this <- %R5
	@DEBUG_VALUE: _M_length:this <- %R5
	@DEBUG_VALUE: _M_data:this <- %R5
	@DEBUG_VALUE: setEcho:this <- %R4
	@DEBUG_VALUE: setup:this <- %R4
	.file	49 "/usr/bin/../lib/gcc/arm-linux-gnueabihf/6.3.0/../../../../include/c++/6.3.0/bits" "vector.tcc"
	.loc	49 94 20                @ /usr/bin/../lib/gcc/arm-linux-gnueabihf/6.3.0/../../../../include/c++/6.3.0/bits/vector.tcc:94:20
	movw	r7, :lower16:.L_MergedGlobals
	movt	r7, :upper16:.L_MergedGlobals
.Ltmp315:
	@DEBUG_VALUE: construct<WriteFile *, WriteFile *>:__p <- %R0
	@DEBUG_VALUE: construct<WriteFile *, WriteFile *>:__p <- %R0
	ldr	r0, [r7, #8]
.Ltmp316:
	.loc	49 94 47 is_stmt 0      @ /usr/bin/../lib/gcc/arm-linux-gnueabihf/6.3.0/../../../../include/c++/6.3.0/bits/vector.tcc:94:47
	ldr	r1, [r7, #12]
.Ltmp317:
	.loc	49 94 6                 @ /usr/bin/../lib/gcc/arm-linux-gnueabihf/6.3.0/../../../../include/c++/6.3.0/bits/vector.tcc:94:6
	cmp	r0, r1
	beq	.LBB6_29
.Ltmp318:
@ BB#28:
	@DEBUG_VALUE: _M_data:this <- %R5
	@DEBUG_VALUE: _M_length:this <- %R5
	@DEBUG_VALUE: _M_set_length:this <- %R5
	@DEBUG_VALUE: _M_data:this <- %R5
	@DEBUG_VALUE: _M_construct<const char *>:this <- %R5
	@DEBUG_VALUE: _M_construct_aux<const char *>:this <- %R5
	@DEBUG_VALUE: _M_construct<const char *>:this <- %R5
	@DEBUG_VALUE: _S_copy_chars:__p <- %R6
	@DEBUG_VALUE: _S_copy:__d <- %R6
	@DEBUG_VALUE: _M_local_data:this <- %R5
	@DEBUG_VALUE: basic_string:this <- %R5
	@DEBUG_VALUE: basic_string:this <- %R5
	@DEBUG_VALUE: _M_local_data:this <- %R5
	@DEBUG_VALUE: _M_construct<const char *>:this <- %R5
	@DEBUG_VALUE: _M_construct_aux<const char *>:this <- %R5
	@DEBUG_VALUE: _M_construct<const char *>:this <- %R5
	@DEBUG_VALUE: _M_data:this <- %R5
	@DEBUG_VALUE: _M_set_length:this <- %R5
	@DEBUG_VALUE: _M_length:this <- %R5
	@DEBUG_VALUE: _M_data:this <- %R5
	@DEBUG_VALUE: setEcho:this <- %R4
	@DEBUG_VALUE: setup:this <- %R4
	.loc	10 120 4 is_stmt 1      @ /usr/bin/../lib/gcc/arm-linux-gnueabihf/6.3.0/../../../../include/c++/6.3.0/ext/new_allocator.h:120:4
	str	r4, [r0]
.Ltmp319:
	.loc	49 98 6                 @ /usr/bin/../lib/gcc/arm-linux-gnueabihf/6.3.0/../../../../include/c++/6.3.0/bits/vector.tcc:98:6
	ldr	r0, [r7, #8]
	add	r0, r0, #4
	str	r0, [r7, #8]
	b	.LBB6_37
.Ltmp320:
.LBB6_29:
	@DEBUG_VALUE: _M_data:this <- %R5
	@DEBUG_VALUE: _M_length:this <- %R5
	@DEBUG_VALUE: _M_set_length:this <- %R5
	@DEBUG_VALUE: _M_data:this <- %R5
	@DEBUG_VALUE: _M_construct<const char *>:this <- %R5
	@DEBUG_VALUE: _M_construct_aux<const char *>:this <- %R5
	@DEBUG_VALUE: _M_construct<const char *>:this <- %R5
	@DEBUG_VALUE: _S_copy_chars:__p <- %R6
	@DEBUG_VALUE: _S_copy:__d <- %R6
	@DEBUG_VALUE: _M_local_data:this <- %R5
	@DEBUG_VALUE: basic_string:this <- %R5
	@DEBUG_VALUE: basic_string:this <- %R5
	@DEBUG_VALUE: _M_local_data:this <- %R5
	@DEBUG_VALUE: _M_construct<const char *>:this <- %R5
	@DEBUG_VALUE: _M_construct_aux<const char *>:this <- %R5
	@DEBUG_VALUE: _M_construct<const char *>:this <- %R5
	@DEBUG_VALUE: _M_data:this <- %R5
	@DEBUG_VALUE: _M_set_length:this <- %R5
	@DEBUG_VALUE: _M_length:this <- %R5
	@DEBUG_VALUE: _M_data:this <- %R5
	@DEBUG_VALUE: setEcho:this <- %R4
	@DEBUG_VALUE: setup:this <- %R4
	@DEBUG_VALUE: _M_check_len:__n <- 1
	.loc	6 656 66                @ /usr/bin/../lib/gcc/arm-linux-gnueabihf/6.3.0/../../../../include/c++/6.3.0/bits/stl_vector.h:656:66
	ldr	r9, [r7, #4]
	mov	r3, #0
.Ltmp321:
	.loc	6 170 9 discriminator 3 @ /usr/bin/../lib/gcc/arm-linux-gnueabihf/6.3.0/../../../../include/c++/6.3.0/bits/stl_vector.h:170:9
	mov	r10, #0
.Ltmp322:
	.loc	6 656 50                @ /usr/bin/../lib/gcc/arm-linux-gnueabihf/6.3.0/../../../../include/c++/6.3.0/bits/stl_vector.h:656:50
	sub	r1, r0, r9
	asr	r2, r1, #2
.Ltmp323:
	.loc	6 1425 35               @ /usr/bin/../lib/gcc/arm-linux-gnueabihf/6.3.0/../../../../include/c++/6.3.0/bits/stl_vector.h:1425:35
	cmp	r3, r1, asr #2
	movweq	r2, #1
	add	r1, r2, r1, asr #2
	.loc	6 1426 25               @ /usr/bin/../lib/gcc/arm-linux-gnueabihf/6.3.0/../../../../include/c++/6.3.0/bits/stl_vector.h:1426:25
	cmp	r3, r1, lsr #30
	mov	r5, r1
.Ltmp324:
	mvnne	r5, #-1073741824
	cmp	r1, r2
	mvnlo	r5, #-1073741824
.Ltmp325:
	@DEBUG_VALUE: _M_allocate:__n <- %R5
	@DEBUG_VALUE: _M_emplace_back_aux<WriteFile *>:__len <- %R5
	@DEBUG_VALUE: allocate:__n <- %R5
	@DEBUG_VALUE: allocate:__n <- %R5
	.loc	6 170 9                 @ /usr/bin/../lib/gcc/arm-linux-gnueabihf/6.3.0/../../../../include/c++/6.3.0/bits/stl_vector.h:170:9
	cmp	r5, #0
.Ltmp326:
	@DEBUG_VALUE: _M_check_len:__len <- %R1
	beq	.LBB6_32
.Ltmp327:
@ BB#30:
	@DEBUG_VALUE: _M_check_len:__len <- %R1
	@DEBUG_VALUE: allocate:__n <- %R5
	@DEBUG_VALUE: allocate:__n <- %R5
	@DEBUG_VALUE: _M_emplace_back_aux<WriteFile *>:__len <- %R5
	@DEBUG_VALUE: _M_allocate:__n <- %R5
	@DEBUG_VALUE: _S_copy_chars:__p <- %R6
	@DEBUG_VALUE: _S_copy:__d <- %R6
	@DEBUG_VALUE: setEcho:this <- %R4
	@DEBUG_VALUE: setup:this <- %R4
	.loc	10 101 6                @ /usr/bin/../lib/gcc/arm-linux-gnueabihf/6.3.0/../../../../include/c++/6.3.0/ext/new_allocator.h:101:6
	cmp	r5, #1073741824
	bhs	.LBB6_41
.Ltmp328:
@ BB#31:                                @ %_ZNSt16allocator_traitsISaIP9WriteFileEE8allocateERS2_j.exit.i.i
	@DEBUG_VALUE: _M_check_len:__len <- %R1
	@DEBUG_VALUE: allocate:__n <- %R5
	@DEBUG_VALUE: allocate:__n <- %R5
	@DEBUG_VALUE: _M_emplace_back_aux<WriteFile *>:__len <- %R5
	@DEBUG_VALUE: _M_allocate:__n <- %R5
	@DEBUG_VALUE: _S_copy_chars:__p <- %R6
	@DEBUG_VALUE: _S_copy:__d <- %R6
	@DEBUG_VALUE: setEcho:this <- %R4
	@DEBUG_VALUE: setup:this <- %R4
	.loc	10 104 46               @ /usr/bin/../lib/gcc/arm-linux-gnueabihf/6.3.0/../../../../include/c++/6.3.0/ext/new_allocator.h:104:46
	lsl	r0, r5, #2
	.loc	10 104 27 is_stmt 0     @ /usr/bin/../lib/gcc/arm-linux-gnueabihf/6.3.0/../../../../include/c++/6.3.0/ext/new_allocator.h:104:27
	bl	_Znwj
.Ltmp329:
	mov	r10, r0
.Ltmp330:
	.loc	6 656 66 is_stmt 1      @ /usr/bin/../lib/gcc/arm-linux-gnueabihf/6.3.0/../../../../include/c++/6.3.0/bits/stl_vector.h:656:66
	ldr	r9, [r7, #4]
	.loc	6 656 40 is_stmt 0      @ /usr/bin/../lib/gcc/arm-linux-gnueabihf/6.3.0/../../../../include/c++/6.3.0/bits/stl_vector.h:656:40
	ldr	r0, [r7, #8]
	mov	r3, #0
.Ltmp331:
.LBB6_32:
	@DEBUG_VALUE: allocate:__n <- %R5
	@DEBUG_VALUE: allocate:__n <- %R5
	@DEBUG_VALUE: _M_emplace_back_aux<WriteFile *>:__len <- %R5
	@DEBUG_VALUE: _M_allocate:__n <- %R5
	@DEBUG_VALUE: _S_copy_chars:__p <- %R6
	@DEBUG_VALUE: _S_copy:__d <- %R6
	@DEBUG_VALUE: setEcho:this <- %R4
	@DEBUG_VALUE: setup:this <- %R4
	@DEBUG_VALUE: _M_emplace_back_aux<WriteFile *>:__new_finish <- %R10
	.loc	6 656 50                @ /usr/bin/../lib/gcc/arm-linux-gnueabihf/6.3.0/../../../../include/c++/6.3.0/bits/stl_vector.h:656:50
	sub	r2, r0, r9
.Ltmp332:
	.loc	10 120 4 is_stmt 1      @ /usr/bin/../lib/gcc/arm-linux-gnueabihf/6.3.0/../../../../include/c++/6.3.0/ext/new_allocator.h:120:4
	mov	r6, r10
.Ltmp333:
	str	r4, [r6, r2]!
.Ltmp334:
	@DEBUG_VALUE: __copy_move_a<true, WriteFile **, WriteFile **>:__simple <- 1
	@DEBUG_VALUE: uninitialized_copy<std::move_iterator<WriteFile **>, WriteFile **>:__assignable <- 1
	.file	50 "/usr/bin/../lib/gcc/arm-linux-gnueabihf/6.3.0/../../../../include/c++/6.3.0/bits" "stl_algobase.h"
	.loc	50 367 8                @ /usr/bin/../lib/gcc/arm-linux-gnueabihf/6.3.0/../../../../include/c++/6.3.0/bits/stl_algobase.h:367:8
	cmp	r3, r2, asr #2
.Ltmp335:
	@DEBUG_VALUE: construct<WriteFile *, WriteFile *>:__p <- %R6
	@DEBUG_VALUE: construct<WriteFile *, WriteFile *>:__p <- %R6
	@DEBUG_VALUE: _M_emplace_back_aux<WriteFile *>:__new_finish <- %R6
	beq	.LBB6_34
.Ltmp336:
@ BB#33:
	@DEBUG_VALUE: _M_emplace_back_aux<WriteFile *>:__new_finish <- %R6
	@DEBUG_VALUE: construct<WriteFile *, WriteFile *>:__p <- %R6
	@DEBUG_VALUE: construct<WriteFile *, WriteFile *>:__p <- %R6
	@DEBUG_VALUE: allocate:__n <- %R5
	@DEBUG_VALUE: allocate:__n <- %R5
	@DEBUG_VALUE: _M_emplace_back_aux<WriteFile *>:__len <- %R5
	@DEBUG_VALUE: _M_allocate:__n <- %R5
	@DEBUG_VALUE: setEcho:this <- %R4
	@DEBUG_VALUE: setup:this <- %R4
	.loc	50 368 6                @ /usr/bin/../lib/gcc/arm-linux-gnueabihf/6.3.0/../../../../include/c++/6.3.0/bits/stl_algobase.h:368:6
	mov	r0, r10
	mov	r1, r9
	bl	memmove
.Ltmp337:
.LBB6_34:
	@DEBUG_VALUE: _M_emplace_back_aux<WriteFile *>:__new_finish <- %R6
	@DEBUG_VALUE: construct<WriteFile *, WriteFile *>:__p <- %R6
	@DEBUG_VALUE: construct<WriteFile *, WriteFile *>:__p <- %R6
	@DEBUG_VALUE: allocate:__n <- %R5
	@DEBUG_VALUE: allocate:__n <- %R5
	@DEBUG_VALUE: _M_emplace_back_aux<WriteFile *>:__len <- %R5
	@DEBUG_VALUE: _M_allocate:__n <- %R5
	@DEBUG_VALUE: setEcho:this <- %R4
	@DEBUG_VALUE: setup:this <- %R4
	.loc	49 425 6                @ /usr/bin/../lib/gcc/arm-linux-gnueabihf/6.3.0/../../../../include/c++/6.3.0/bits/vector.tcc:425:6
	add	r6, r6, #4
.Ltmp338:
	@DEBUG_VALUE: _M_emplace_back_aux<WriteFile *>:__new_finish <- %R6
	.loc	6 177 6                 @ /usr/bin/../lib/gcc/arm-linux-gnueabihf/6.3.0/../../../../include/c++/6.3.0/bits/stl_vector.h:177:6
	cmp	r9, #0
	beq	.LBB6_36
.Ltmp339:
@ BB#35:
	@DEBUG_VALUE: _M_emplace_back_aux<WriteFile *>:__new_finish <- %R6
	@DEBUG_VALUE: allocate:__n <- %R5
	@DEBUG_VALUE: allocate:__n <- %R5
	@DEBUG_VALUE: _M_emplace_back_aux<WriteFile *>:__len <- %R5
	@DEBUG_VALUE: _M_allocate:__n <- %R5
	@DEBUG_VALUE: setEcho:this <- %R4
	@DEBUG_VALUE: setup:this <- %R4
	.loc	10 110 9                @ /usr/bin/../lib/gcc/arm-linux-gnueabihf/6.3.0/../../../../include/c++/6.3.0/ext/new_allocator.h:110:9
	mov	r0, r9
	bl	_ZdlPv
.Ltmp340:
.LBB6_36:                               @ %_ZNSt6vectorIP9WriteFileSaIS1_EE19_M_emplace_back_auxIJS1_EEEvDpOT_.exit
	@DEBUG_VALUE: _M_emplace_back_aux<WriteFile *>:__new_finish <- %R6
	@DEBUG_VALUE: allocate:__n <- %R5
	@DEBUG_VALUE: allocate:__n <- %R5
	@DEBUG_VALUE: _M_emplace_back_aux<WriteFile *>:__len <- %R5
	@DEBUG_VALUE: _M_allocate:__n <- %R5
	@DEBUG_VALUE: setEcho:this <- %R4
	@DEBUG_VALUE: setup:this <- %R4
	.loc	49 441 25               @ /usr/bin/../lib/gcc/arm-linux-gnueabihf/6.3.0/../../../../include/c++/6.3.0/bits/vector.tcc:441:25
	str	r10, [r7, #4]
	.loc	49 443 48               @ /usr/bin/../lib/gcc/arm-linux-gnueabihf/6.3.0/../../../../include/c++/6.3.0/bits/vector.tcc:443:48
	add	r0, r10, r5, lsl #2
	.loc	49 442 26               @ /usr/bin/../lib/gcc/arm-linux-gnueabihf/6.3.0/../../../../include/c++/6.3.0/bits/vector.tcc:442:26
	str	r6, [r7, #8]
	.loc	49 443 34               @ /usr/bin/../lib/gcc/arm-linux-gnueabihf/6.3.0/../../../../include/c++/6.3.0/bits/vector.tcc:443:34
	str	r0, [r7, #12]
.Ltmp341:
.LBB6_37:                               @ %_ZNSt6vectorIP9WriteFileSaIS1_EE9push_backEOS1_.exit
	@DEBUG_VALUE: setEcho:this <- %R4
	@DEBUG_VALUE: setup:this <- %R4
	.loc	18 777 7                @ /usr/bin/../lib/gcc/arm-linux-gnueabihf/6.3.0/../../../../include/arm-linux-gnueabihf/c++/6.3.0/bits/gthr-default.h:777:7
	cmp	r8, #0
	beq	.LBB6_39
.Ltmp342:
@ BB#38:
	@DEBUG_VALUE: setEcho:this <- %R4
	@DEBUG_VALUE: setup:this <- %R4
	.loc	18 778 12               @ /usr/bin/../lib/gcc/arm-linux-gnueabihf/6.3.0/../../../../include/arm-linux-gnueabihf/c++/6.3.0/bits/gthr-default.h:778:12
	movw	r0, :lower16:.L_MergedGlobals.1
	movt	r0, :upper16:.L_MergedGlobals.1
	add	r0, r0, #4
	bl	pthread_mutex_unlock
.Ltmp343:
.LBB6_39:                               @ %_ZNSt5mutex6unlockEv.exit
	@DEBUG_VALUE: setEcho:this <- %R4
	@DEBUG_VALUE: setup:this <- %R4
	mov	r0, #0
	.loc	23 203 13               @ /root/Bela/projects/board_6/WriteFile.cpp:203:13
	mov	r1, #1
	.loc	23 202 14               @ /root/Bela/projects/board_6/WriteFile.cpp:202:14
	stm	r4, {r0, r1}
	.loc	23 204 1                @ /root/Bela/projects/board_6/WriteFile.cpp:204:1
	sub	sp, r11, #28
	pop	{r4, r5, r6, r7, r8, r9, r10, r11, pc}
.Ltmp344:
.LBB6_40:
	@DEBUG_VALUE: lock:__e <- %R0
	@DEBUG_VALUE: _M_data:this <- %R5
	@DEBUG_VALUE: _M_length:this <- %R5
	@DEBUG_VALUE: _M_set_length:this <- %R5
	@DEBUG_VALUE: _M_data:this <- %R5
	@DEBUG_VALUE: _M_construct<const char *>:this <- %R5
	@DEBUG_VALUE: _M_construct_aux<const char *>:this <- %R5
	@DEBUG_VALUE: _M_construct<const char *>:this <- %R5
	@DEBUG_VALUE: _S_copy_chars:__p <- %R6
	@DEBUG_VALUE: _S_copy:__d <- %R6
	@DEBUG_VALUE: _M_local_data:this <- %R5
	@DEBUG_VALUE: basic_string:this <- %R5
	@DEBUG_VALUE: basic_string:this <- %R5
	@DEBUG_VALUE: _M_local_data:this <- %R5
	@DEBUG_VALUE: _M_construct<const char *>:this <- %R5
	@DEBUG_VALUE: _M_construct_aux<const char *>:this <- %R5
	@DEBUG_VALUE: _M_construct<const char *>:this <- %R5
	@DEBUG_VALUE: _M_data:this <- %R5
	@DEBUG_VALUE: _M_set_length:this <- %R5
	@DEBUG_VALUE: _M_length:this <- %R5
	@DEBUG_VALUE: _M_data:this <- %R5
	@DEBUG_VALUE: setEcho:this <- %R4
	@DEBUG_VALUE: setup:this <- %R4
	.loc	25 107 2                @ /usr/bin/../lib/gcc/arm-linux-gnueabihf/6.3.0/../../../../include/c++/6.3.0/bits/std_mutex.h:107:2
	mov	lr, pc
	b	_ZSt20__throw_system_errori
.Ltmp345:
.LBB6_41:
	@DEBUG_VALUE: _M_check_len:__len <- %R1
	@DEBUG_VALUE: allocate:__n <- %R5
	@DEBUG_VALUE: allocate:__n <- %R5
	@DEBUG_VALUE: _M_emplace_back_aux<WriteFile *>:__len <- %R5
	@DEBUG_VALUE: _M_allocate:__n <- %R5
	@DEBUG_VALUE: _S_copy_chars:__p <- %R6
	@DEBUG_VALUE: _S_copy:__d <- %R6
	@DEBUG_VALUE: setEcho:this <- %R4
	@DEBUG_VALUE: setup:this <- %R4
	.loc	10 102 4                @ /usr/bin/../lib/gcc/arm-linux-gnueabihf/6.3.0/../../../../include/c++/6.3.0/ext/new_allocator.h:102:4
	mov	lr, pc
	b	_ZSt17__throw_bad_allocv
.Ltmp346:
.LBB6_42:
	@DEBUG_VALUE: assign:__str <- %R6
	@DEBUG_VALUE: _M_data:this <- %R5
	@DEBUG_VALUE: c_str:this <- %R5
	@DEBUG_VALUE: _M_data:this <- %R5
	@DEBUG_VALUE: c_str:this <- %R5
	@DEBUG_VALUE: _M_data:this <- %R5
	@DEBUG_VALUE: c_str:this <- %R5
	@DEBUG_VALUE: assign:this <- %R5
	@DEBUG_VALUE: _M_capacity:this <- %R5
	@DEBUG_VALUE: _M_length:this <- %R5
	@DEBUG_VALUE: _M_data:this <- %R5
	@DEBUG_VALUE: _M_data:this <- %R5
	@DEBUG_VALUE: _M_local_data:this <- %R5
	@DEBUG_VALUE: _M_data:this <- %R5
	@DEBUG_VALUE: _M_is_local:this <- %R5
	@DEBUG_VALUE: _M_local_data:this <- %R5
	@DEBUG_VALUE: _M_data:this <- %R5
	@DEBUG_VALUE: _M_is_local:this <- %R5
	@DEBUG_VALUE: operator=:this <- %R5
	@DEBUG_VALUE: operator=:this <- %R5
	@DEBUG_VALUE: assign:this <- %R5
	@DEBUG_VALUE: setup:this <- %R4
.Ltmp210:
.Ltmp347:
	.loc	27 636 7 discriminator 2 @ /usr/bin/../lib/gcc/arm-linux-gnueabihf/6.3.0/../../../../include/c++/6.3.0/bits/basic_string.h:636:7
	mov	lr, pc
	b	__clang_call_terminate
.Ltmp348:
.LBB6_43:
	@DEBUG_VALUE: _M_data:this <- %R5
	@DEBUG_VALUE: _M_length:this <- %R5
	@DEBUG_VALUE: _M_set_length:this <- %R5
	@DEBUG_VALUE: _M_data:this <- %R5
	@DEBUG_VALUE: _M_construct<const char *>:this <- %R5
	@DEBUG_VALUE: _M_construct_aux<const char *>:this <- %R5
	@DEBUG_VALUE: _M_construct<const char *>:this <- %R5
	@DEBUG_VALUE: _S_copy_chars:__p <- %R6
	@DEBUG_VALUE: _S_copy:__d <- %R6
	@DEBUG_VALUE: _M_local_data:this <- %R5
	@DEBUG_VALUE: basic_string:this <- %R5
	@DEBUG_VALUE: basic_string:this <- %R5
	@DEBUG_VALUE: _M_local_data:this <- %R5
	@DEBUG_VALUE: _M_construct<const char *>:this <- %R5
	@DEBUG_VALUE: _M_construct_aux<const char *>:this <- %R5
	@DEBUG_VALUE: _M_construct<const char *>:this <- %R5
	@DEBUG_VALUE: _M_data:this <- %R5
	@DEBUG_VALUE: _M_set_length:this <- %R5
	@DEBUG_VALUE: _M_length:this <- %R5
	@DEBUG_VALUE: _M_data:this <- %R5
	@DEBUG_VALUE: setEcho:this <- %R4
	@DEBUG_VALUE: setup:this <- %R4
.Ltmp216:
	b	.LBB6_45
.Ltmp349:
.LBB6_44:
	@DEBUG_VALUE: basic_string:this <- %R5
	@DEBUG_VALUE: _M_local_data:this <- %R5
	@DEBUG_VALUE: _M_construct<const char *>:this <- %R5
	@DEBUG_VALUE: _M_construct_aux<const char *>:this <- %R5
	@DEBUG_VALUE: _M_construct<const char *>:this <- %R5
	@DEBUG_VALUE: _M_data:this <- %R5
	@DEBUG_VALUE: _M_set_length:this <- %R5
	@DEBUG_VALUE: _M_length:this <- %R5
	@DEBUG_VALUE: _M_data:this <- %R5
	@DEBUG_VALUE: setEcho:this <- %R4
	@DEBUG_VALUE: setup:this <- %R4
.Ltmp213:
.Ltmp350:
.LBB6_45:
	@DEBUG_VALUE: basic_string:this <- %R5
	@DEBUG_VALUE: _M_local_data:this <- %R5
	@DEBUG_VALUE: _M_construct<const char *>:this <- %R5
	@DEBUG_VALUE: _M_construct_aux<const char *>:this <- %R5
	@DEBUG_VALUE: _M_construct<const char *>:this <- %R5
	@DEBUG_VALUE: _M_data:this <- %R5
	@DEBUG_VALUE: _M_set_length:this <- %R5
	@DEBUG_VALUE: _M_length:this <- %R5
	@DEBUG_VALUE: _M_data:this <- %R5
	@DEBUG_VALUE: setEcho:this <- %R4
	@DEBUG_VALUE: setup:this <- %R4
	mov	r4, r0
.Ltmp351:
	.loc	27 136 28               @ /usr/bin/../lib/gcc/arm-linux-gnueabihf/6.3.0/../../../../include/c++/6.3.0/bits/basic_string.h:136:28
	ldr	r0, [sp]
.Ltmp352:
	@DEBUG_VALUE: deallocate:__p <- %R0
	@DEBUG_VALUE: deallocate:__p <- %R0
	.loc	27 180 6                @ /usr/bin/../lib/gcc/arm-linux-gnueabihf/6.3.0/../../../../include/c++/6.3.0/bits/basic_string.h:180:6
	cmp	r0, r6
	beq	.LBB6_47
.Ltmp353:
@ BB#46:
	@DEBUG_VALUE: deallocate:__p <- %R0
	@DEBUG_VALUE: deallocate:__p <- %R0
	@DEBUG_VALUE: basic_string:this <- %R5
	@DEBUG_VALUE: _M_local_data:this <- %R5
	@DEBUG_VALUE: _M_construct<const char *>:this <- %R5
	@DEBUG_VALUE: _M_construct_aux<const char *>:this <- %R5
	@DEBUG_VALUE: _M_construct<const char *>:this <- %R5
	@DEBUG_VALUE: _M_data:this <- %R5
	@DEBUG_VALUE: _M_set_length:this <- %R5
	@DEBUG_VALUE: _M_length:this <- %R5
	@DEBUG_VALUE: _M_data:this <- %R5
	.loc	10 110 9                @ /usr/bin/../lib/gcc/arm-linux-gnueabihf/6.3.0/../../../../include/c++/6.3.0/ext/new_allocator.h:110:9
	bl	_ZdlPv
.Ltmp354:
.LBB6_47:
	@DEBUG_VALUE: basic_string:this <- %R5
	@DEBUG_VALUE: _M_local_data:this <- %R5
	@DEBUG_VALUE: _M_construct<const char *>:this <- %R5
	@DEBUG_VALUE: _M_construct_aux<const char *>:this <- %R5
	@DEBUG_VALUE: _M_construct<const char *>:this <- %R5
	@DEBUG_VALUE: _M_data:this <- %R5
	@DEBUG_VALUE: _M_set_length:this <- %R5
	@DEBUG_VALUE: _M_length:this <- %R5
	@DEBUG_VALUE: _M_data:this <- %R5
	mov	r0, r4
	mov	lr, pc
	b	_Unwind_Resume
.Lfunc_end6:
	.size	_ZN9WriteFile5setupERKNSt7__cxx1112basic_stringIcSt11char_traitsIcESaIcEEEbb, .Lfunc_end6-_ZN9WriteFile5setupERKNSt7__cxx1112basic_stringIcSt11char_traitsIcESaIcEEEbb
	.cfi_endproc
	.file	51 "/usr/bin/../lib/gcc/arm-linux-gnueabihf/6.3.0/../../../../include/c++/6.3.0/bits" "basic_string.tcc"
	.file	52 "/usr/bin/../lib/gcc/arm-linux-gnueabihf/6.3.0/../../../../include/c++/6.3.0/bits" "stl_uninitialized.h"
	.globl	__gxx_personality_v0
	.personality __gxx_personality_v0
	.handlerdata
	.p2align	2
GCC_except_table6:
.Lexception3:
	.byte	255                     @ @LPStart Encoding = omit
	.byte	0                       @ @TType Encoding = absptr
	.asciz	"\326\200\200"          @ @TType base offset
	.byte	3                       @ Call site Encoding = udata4
	.byte	78                      @ Call site table length
	.long	.Lfunc_begin6-.Lfunc_begin6 @ >> Call Site 1 <<
	.long	.Ltmp208-.Lfunc_begin6  @   Call between .Lfunc_begin6 and .Ltmp208
	.long	0                       @     has no landing pad
	.byte	0                       @   On action: cleanup
	.long	.Ltmp208-.Lfunc_begin6  @ >> Call Site 2 <<
	.long	.Ltmp209-.Ltmp208       @   Call between .Ltmp208 and .Ltmp209
	.long	.Ltmp210-.Lfunc_begin6  @     jumps to .Ltmp210
	.byte	1                       @   On action: 1
	.long	.Ltmp209-.Lfunc_begin6  @ >> Call Site 3 <<
	.long	.Ltmp211-.Ltmp209       @   Call between .Ltmp209 and .Ltmp211
	.long	0                       @     has no landing pad
	.byte	0                       @   On action: cleanup
	.long	.Ltmp211-.Lfunc_begin6  @ >> Call Site 4 <<
	.long	.Ltmp212-.Ltmp211       @   Call between .Ltmp211 and .Ltmp212
	.long	.Ltmp213-.Lfunc_begin6  @     jumps to .Ltmp213
	.byte	0                       @   On action: cleanup
	.long	.Ltmp214-.Lfunc_begin6  @ >> Call Site 5 <<
	.long	.Ltmp215-.Ltmp214       @   Call between .Ltmp214 and .Ltmp215
	.long	.Ltmp216-.Lfunc_begin6  @     jumps to .Ltmp216
	.byte	0                       @   On action: cleanup
	.long	.Ltmp215-.Lfunc_begin6  @ >> Call Site 6 <<
	.long	.Lfunc_end6-.Ltmp215    @   Call between .Ltmp215 and .Lfunc_end6
	.long	0                       @     has no landing pad
	.byte	0                       @   On action: cleanup
	.byte	1                       @ >> Action Record 1 <<
                                        @   Catch TypeInfo 1
	.byte	0                       @   No further actions
                                        @ >> Catch TypeInfos <<
	.long	0                       @ TypeInfo 1
	.p2align	2
	.fnend

	.section	.text._ZNSt6vectorINSt7__cxx1112basic_stringIcSt11char_traitsIcESaIcEEESaIS5_EED2Ev,"axG",%progbits,_ZNSt6vectorINSt7__cxx1112basic_stringIcSt11char_traitsIcESaIcEEESaIS5_EED2Ev,comdat
	.weak	_ZNSt6vectorINSt7__cxx1112basic_stringIcSt11char_traitsIcESaIcEEESaIS5_EED2Ev
	.p2align	2
	.type	_ZNSt6vectorINSt7__cxx1112basic_stringIcSt11char_traitsIcESaIcEEESaIS5_EED2Ev,%function
_ZNSt6vectorINSt7__cxx1112basic_stringIcSt11char_traitsIcESaIcEEESaIS5_EED2Ev: @ @_ZNSt6vectorINSt7__cxx1112basic_stringIcSt11char_traitsIcESaIcEEESaIS5_EED2Ev
.Lfunc_begin7:
	.loc	6 426 0                 @ /usr/bin/../lib/gcc/arm-linux-gnueabihf/6.3.0/../../../../include/c++/6.3.0/bits/stl_vector.h:426:0
	.fnstart
	.cfi_startproc
@ BB#0:
	.save	{r4, r5, r6, r10, r11, lr}
	push	{r4, r5, r6, r10, r11, lr}
.Ltmp355:
	.cfi_def_cfa_offset 24
.Ltmp356:
	.cfi_offset lr, -4
.Ltmp357:
	.cfi_offset r11, -8
.Ltmp358:
	.cfi_offset r10, -12
.Ltmp359:
	.cfi_offset r6, -16
.Ltmp360:
	.cfi_offset r5, -20
.Ltmp361:
	.cfi_offset r4, -24
	.setfp	r11, sp, #16
	add	r11, sp, #16
.Ltmp362:
	.cfi_def_cfa r11, 8
	@DEBUG_VALUE: ~vector:this <- %R0
	mov	r4, r0
.Ltmp363:
	@DEBUG_VALUE: __destroy<std::__cxx11::basic_string<char> *>:__last <- %R6
	@DEBUG_VALUE: _Destroy<std::__cxx11::basic_string<char> *>:__last <- %R6
	@DEBUG_VALUE: _Destroy<std::__cxx11::basic_string<char> *, std::__cxx11::basic_string<char> >:__last <- %R6
	@DEBUG_VALUE: _Destroy<std::__cxx11::basic_string<char> *, std::__cxx11::basic_string<char> >:__first <- %R5
	@DEBUG_VALUE: _Destroy<std::__cxx11::basic_string<char> *>:__first <- %R5
	@DEBUG_VALUE: __destroy<std::__cxx11::basic_string<char> *>:__first <- %R5
	@DEBUG_VALUE: ~vector:this <- %R4
	.loc	6 426 37 prologue_end   @ /usr/bin/../lib/gcc/arm-linux-gnueabihf/6.3.0/../../../../include/c++/6.3.0/bits/stl_vector.h:426:37
	ldm	r4, {r5, r6}
.Ltmp364:
	.loc	48 102 4 discriminator 1 @ /usr/bin/../lib/gcc/arm-linux-gnueabihf/6.3.0/../../../../include/c++/6.3.0/bits/stl_construct.h:102:4
	cmp	r5, r6
	beq	.LBB7_5
.Ltmp365:
.LBB7_1:                                @ %.lr.ph.i.i.i
                                        @ =>This Inner Loop Header: Depth=1
	@DEBUG_VALUE: __addressof<std::__cxx11::basic_string<char> >:__r <- %R5
	.loc	27 136 28               @ /usr/bin/../lib/gcc/arm-linux-gnueabihf/6.3.0/../../../../include/c++/6.3.0/bits/basic_string.h:136:28
	ldr	r0, [r5], #8
.Ltmp366:
	@DEBUG_VALUE: deallocate:__p <- %R0
	@DEBUG_VALUE: deallocate:__p <- %R0
	.loc	27 180 6                @ /usr/bin/../lib/gcc/arm-linux-gnueabihf/6.3.0/../../../../include/c++/6.3.0/bits/basic_string.h:180:6
	cmp	r0, r5
	beq	.LBB7_3
.Ltmp367:
@ BB#2:                                 @   in Loop: Header=BB7_1 Depth=1
	@DEBUG_VALUE: deallocate:__p <- %R0
	@DEBUG_VALUE: deallocate:__p <- %R0
	.loc	10 110 9                @ /usr/bin/../lib/gcc/arm-linux-gnueabihf/6.3.0/../../../../include/c++/6.3.0/ext/new_allocator.h:110:9
	bl	_ZdlPv
.Ltmp368:
.LBB7_3:                                @ %_ZSt8_DestroyINSt7__cxx1112basic_stringIcSt11char_traitsIcESaIcEEEEvPT_.exit.i.i.i
                                        @   in Loop: Header=BB7_1 Depth=1
	.loc	48 102 19 discriminator 1 @ /usr/bin/../lib/gcc/arm-linux-gnueabihf/6.3.0/../../../../include/c++/6.3.0/bits/stl_construct.h:102:19
	add	r5, r5, #16
	.loc	48 102 4 is_stmt 0 discriminator 1 @ /usr/bin/../lib/gcc/arm-linux-gnueabihf/6.3.0/../../../../include/c++/6.3.0/bits/stl_construct.h:102:4
	cmp	r5, r6
	bne	.LBB7_1
.Ltmp369:
@ BB#4:                                 @ %_ZSt8_DestroyIPNSt7__cxx1112basic_stringIcSt11char_traitsIcESaIcEEES5_EvT_S7_RSaIT0_E.exit.loopexit
	.loc	6 160 37 is_stmt 1      @ /usr/bin/../lib/gcc/arm-linux-gnueabihf/6.3.0/../../../../include/c++/6.3.0/bits/stl_vector.h:160:37
	ldr	r5, [r4]
.LBB7_5:                                @ %_ZSt8_DestroyIPNSt7__cxx1112basic_stringIcSt11char_traitsIcESaIcEEES5_EvT_S7_RSaIT0_E.exit
.Ltmp370:
	@DEBUG_VALUE: _M_deallocate:__p <- %R5
	.loc	6 177 6                 @ /usr/bin/../lib/gcc/arm-linux-gnueabihf/6.3.0/../../../../include/c++/6.3.0/bits/stl_vector.h:177:6
	cmp	r5, #0
	beq	.LBB7_7
.Ltmp371:
@ BB#6:
	@DEBUG_VALUE: _M_deallocate:__p <- %R5
	.loc	10 110 9                @ /usr/bin/../lib/gcc/arm-linux-gnueabihf/6.3.0/../../../../include/c++/6.3.0/ext/new_allocator.h:110:9
	mov	r0, r5
	bl	_ZdlPv
.Ltmp372:
.LBB7_7:                                @ %_ZNSt12_Vector_baseINSt7__cxx1112basic_stringIcSt11char_traitsIcESaIcEEESaIS5_EED2Ev.exit
	@DEBUG_VALUE: _M_deallocate:__p <- %R5
	.loc	6 427 33 discriminator 1 @ /usr/bin/../lib/gcc/arm-linux-gnueabihf/6.3.0/../../../../include/c++/6.3.0/bits/stl_vector.h:427:33
	mov	r0, r4
	pop	{r4, r5, r6, r10, r11, pc}
.Ltmp373:
.Lfunc_end7:
	.size	_ZNSt6vectorINSt7__cxx1112basic_stringIcSt11char_traitsIcESaIcEEESaIS5_EED2Ev, .Lfunc_end7-_ZNSt6vectorINSt7__cxx1112basic_stringIcSt11char_traitsIcESaIcEEESaIS5_EED2Ev
	.cfi_endproc
	.fnend

	.section	.text._ZNSt6vectorIfSaIfEED2Ev,"axG",%progbits,_ZNSt6vectorIfSaIfEED2Ev,comdat
	.weak	_ZNSt6vectorIfSaIfEED2Ev
	.p2align	2
	.type	_ZNSt6vectorIfSaIfEED2Ev,%function
_ZNSt6vectorIfSaIfEED2Ev:               @ @_ZNSt6vectorIfSaIfEED2Ev
.Lfunc_begin8:
	.loc	6 426 0                 @ /usr/bin/../lib/gcc/arm-linux-gnueabihf/6.3.0/../../../../include/c++/6.3.0/bits/stl_vector.h:426:0
	.fnstart
	.cfi_startproc
@ BB#0:
	.save	{r4, r10, r11, lr}
	push	{r4, r10, r11, lr}
.Ltmp374:
	.cfi_def_cfa_offset 16
.Ltmp375:
	.cfi_offset lr, -4
.Ltmp376:
	.cfi_offset r11, -8
.Ltmp377:
	.cfi_offset r10, -12
.Ltmp378:
	.cfi_offset r4, -16
	.setfp	r11, sp, #8
	add	r11, sp, #8
.Ltmp379:
	.cfi_def_cfa r11, 8
	@DEBUG_VALUE: ~vector:this <- %R0
	mov	r4, r0
.Ltmp380:
	@DEBUG_VALUE: ~vector:this <- %R4
	.loc	6 160 37 prologue_end   @ /usr/bin/../lib/gcc/arm-linux-gnueabihf/6.3.0/../../../../include/c++/6.3.0/bits/stl_vector.h:160:37
	ldr	r0, [r4]
.Ltmp381:
	@DEBUG_VALUE: _M_deallocate:__p <- %R0
	@DEBUG_VALUE: deallocate:__p <- %R0
	@DEBUG_VALUE: deallocate:__p <- %R0
	.loc	6 177 6                 @ /usr/bin/../lib/gcc/arm-linux-gnueabihf/6.3.0/../../../../include/c++/6.3.0/bits/stl_vector.h:177:6
	cmp	r0, #0
	beq	.LBB8_2
.Ltmp382:
@ BB#1:
	@DEBUG_VALUE: deallocate:__p <- %R0
	@DEBUG_VALUE: deallocate:__p <- %R0
	@DEBUG_VALUE: _M_deallocate:__p <- %R0
	@DEBUG_VALUE: ~vector:this <- %R4
	.loc	10 110 9                @ /usr/bin/../lib/gcc/arm-linux-gnueabihf/6.3.0/../../../../include/c++/6.3.0/ext/new_allocator.h:110:9
	bl	_ZdlPv
.Ltmp383:
.LBB8_2:                                @ %_ZNSt12_Vector_baseIfSaIfEED2Ev.exit
	@DEBUG_VALUE: ~vector:this <- %R4
	.loc	6 427 33 discriminator 1 @ /usr/bin/../lib/gcc/arm-linux-gnueabihf/6.3.0/../../../../include/c++/6.3.0/bits/stl_vector.h:427:33
	mov	r0, r4
	pop	{r4, r10, r11, pc}
.Ltmp384:
.Lfunc_end8:
	.size	_ZNSt6vectorIfSaIfEED2Ev, .Lfunc_end8-_ZNSt6vectorIfSaIfEED2Ev
	.cfi_endproc
	.fnend

	.section	.text._ZNSt6vectorIcSaIcEED2Ev,"axG",%progbits,_ZNSt6vectorIcSaIcEED2Ev,comdat
	.weak	_ZNSt6vectorIcSaIcEED2Ev
	.p2align	2
	.type	_ZNSt6vectorIcSaIcEED2Ev,%function
_ZNSt6vectorIcSaIcEED2Ev:               @ @_ZNSt6vectorIcSaIcEED2Ev
.Lfunc_begin9:
	.loc	6 426 0                 @ /usr/bin/../lib/gcc/arm-linux-gnueabihf/6.3.0/../../../../include/c++/6.3.0/bits/stl_vector.h:426:0
	.fnstart
	.cfi_startproc
@ BB#0:
	.save	{r4, r10, r11, lr}
	push	{r4, r10, r11, lr}
.Ltmp385:
	.cfi_def_cfa_offset 16
.Ltmp386:
	.cfi_offset lr, -4
.Ltmp387:
	.cfi_offset r11, -8
.Ltmp388:
	.cfi_offset r10, -12
.Ltmp389:
	.cfi_offset r4, -16
	.setfp	r11, sp, #8
	add	r11, sp, #8
.Ltmp390:
	.cfi_def_cfa r11, 8
	@DEBUG_VALUE: ~vector:this <- %R0
	mov	r4, r0
.Ltmp391:
	@DEBUG_VALUE: ~vector:this <- %R4
	.loc	6 160 37 prologue_end   @ /usr/bin/../lib/gcc/arm-linux-gnueabihf/6.3.0/../../../../include/c++/6.3.0/bits/stl_vector.h:160:37
	ldr	r0, [r4]
.Ltmp392:
	@DEBUG_VALUE: _M_deallocate:__p <- %R0
	@DEBUG_VALUE: deallocate:__p <- %R0
	@DEBUG_VALUE: deallocate:__p <- %R0
	.loc	6 177 6                 @ /usr/bin/../lib/gcc/arm-linux-gnueabihf/6.3.0/../../../../include/c++/6.3.0/bits/stl_vector.h:177:6
	cmp	r0, #0
	beq	.LBB9_2
.Ltmp393:
@ BB#1:
	@DEBUG_VALUE: deallocate:__p <- %R0
	@DEBUG_VALUE: deallocate:__p <- %R0
	@DEBUG_VALUE: _M_deallocate:__p <- %R0
	@DEBUG_VALUE: ~vector:this <- %R4
	.loc	10 110 9                @ /usr/bin/../lib/gcc/arm-linux-gnueabihf/6.3.0/../../../../include/c++/6.3.0/ext/new_allocator.h:110:9
	bl	_ZdlPv
.Ltmp394:
.LBB9_2:                                @ %_ZNSt12_Vector_baseIcSaIcEED2Ev.exit
	@DEBUG_VALUE: ~vector:this <- %R4
	.loc	6 427 33 discriminator 1 @ /usr/bin/../lib/gcc/arm-linux-gnueabihf/6.3.0/../../../../include/c++/6.3.0/bits/stl_vector.h:427:33
	mov	r0, r4
	pop	{r4, r10, r11, pc}
.Ltmp395:
.Lfunc_end9:
	.size	_ZNSt6vectorIcSaIcEED2Ev, .Lfunc_end9-_ZNSt6vectorIcSaIcEED2Ev
	.cfi_endproc
	.fnend

	.text
	.globl	_ZN9WriteFileD2Ev
	.p2align	2
	.type	_ZN9WriteFileD2Ev,%function
_ZN9WriteFileD2Ev:                      @ @_ZN9WriteFileD2Ev
.Lfunc_begin10:
	.loc	23 81 0                 @ /root/Bela/projects/board_6/WriteFile.cpp:81:0
	.fnstart
	.cfi_startproc
@ BB#0:
	.save	{r4, r5, r6, r10, r11, lr}
	push	{r4, r5, r6, r10, r11, lr}
.Ltmp399:
	.cfi_def_cfa_offset 24
.Ltmp400:
	.cfi_offset lr, -4
.Ltmp401:
	.cfi_offset r11, -8
.Ltmp402:
	.cfi_offset r10, -12
.Ltmp403:
	.cfi_offset r6, -16
.Ltmp404:
	.cfi_offset r5, -20
.Ltmp405:
	.cfi_offset r4, -24
	.setfp	r11, sp, #16
	add	r11, sp, #16
.Ltmp406:
	.cfi_def_cfa r11, 8
	@DEBUG_VALUE: ~WriteFile:this <- %R0
	mov	r4, r0
.Ltmp407:
	@DEBUG_VALUE: ~WriteFile:this <- %R4
	.loc	23 82 2 prologue_end    @ /root/Bela/projects/board_6/WriteFile.cpp:82:2
.Ltmp396:
	mov	r1, #0
	bl	_ZN9WriteFile7cleanupEb
.Ltmp397:
.Ltmp408:
@ BB#1:
	@DEBUG_VALUE: ~WriteFile:this <- %R4
	@DEBUG_VALUE: __destroy<std::__cxx11::basic_string<char> *>:__first <- %R5
	@DEBUG_VALUE: _Destroy<std::__cxx11::basic_string<char> *>:__first <- %R5
	@DEBUG_VALUE: _Destroy<std::__cxx11::basic_string<char> *, std::__cxx11::basic_string<char> >:__first <- %R5
	@DEBUG_VALUE: _Destroy<std::__cxx11::basic_string<char> *, std::__cxx11::basic_string<char> >:__last <- %R6
	@DEBUG_VALUE: _Destroy<std::__cxx11::basic_string<char> *>:__last <- %R6
	@DEBUG_VALUE: __destroy<std::__cxx11::basic_string<char> *>:__last <- %R6
	.loc	6 426 37                @ /usr/bin/../lib/gcc/arm-linux-gnueabihf/6.3.0/../../../../include/c++/6.3.0/bits/stl_vector.h:426:37
	ldr	r5, [r4, #152]
.Ltmp409:
	.loc	6 426 61 is_stmt 0      @ /usr/bin/../lib/gcc/arm-linux-gnueabihf/6.3.0/../../../../include/c++/6.3.0/bits/stl_vector.h:426:61
	ldr	r6, [r4, #156]
.Ltmp410:
	.loc	48 102 4 is_stmt 1 discriminator 1 @ /usr/bin/../lib/gcc/arm-linux-gnueabihf/6.3.0/../../../../include/c++/6.3.0/bits/stl_construct.h:102:4
	cmp	r5, r6
	beq	.LBB10_6
.Ltmp411:
.LBB10_2:                               @ %.lr.ph.i.i.i.i
                                        @ =>This Inner Loop Header: Depth=1
	@DEBUG_VALUE: __addressof<std::__cxx11::basic_string<char> >:__r <- %R5
	.loc	27 136 28               @ /usr/bin/../lib/gcc/arm-linux-gnueabihf/6.3.0/../../../../include/c++/6.3.0/bits/basic_string.h:136:28
	ldr	r0, [r5], #8
.Ltmp412:
	@DEBUG_VALUE: deallocate:__p <- %R0
	@DEBUG_VALUE: deallocate:__p <- %R0
	.loc	27 180 6                @ /usr/bin/../lib/gcc/arm-linux-gnueabihf/6.3.0/../../../../include/c++/6.3.0/bits/basic_string.h:180:6
	cmp	r0, r5
	beq	.LBB10_4
.Ltmp413:
@ BB#3:                                 @   in Loop: Header=BB10_2 Depth=1
	@DEBUG_VALUE: deallocate:__p <- %R0
	@DEBUG_VALUE: deallocate:__p <- %R0
	.loc	10 110 9                @ /usr/bin/../lib/gcc/arm-linux-gnueabihf/6.3.0/../../../../include/c++/6.3.0/ext/new_allocator.h:110:9
	bl	_ZdlPv
.Ltmp414:
.LBB10_4:                               @ %_ZSt8_DestroyINSt7__cxx1112basic_stringIcSt11char_traitsIcESaIcEEEEvPT_.exit.i.i.i.i
                                        @   in Loop: Header=BB10_2 Depth=1
	.loc	48 102 19 discriminator 1 @ /usr/bin/../lib/gcc/arm-linux-gnueabihf/6.3.0/../../../../include/c++/6.3.0/bits/stl_construct.h:102:19
	add	r5, r5, #16
	.loc	48 102 4 is_stmt 0 discriminator 1 @ /usr/bin/../lib/gcc/arm-linux-gnueabihf/6.3.0/../../../../include/c++/6.3.0/bits/stl_construct.h:102:4
	cmp	r5, r6
	bne	.LBB10_2
.Ltmp415:
@ BB#5:                                 @ %_ZSt8_DestroyIPNSt7__cxx1112basic_stringIcSt11char_traitsIcESaIcEEES5_EvT_S7_RSaIT0_E.exit.loopexit.i
	.loc	6 160 37 is_stmt 1      @ /usr/bin/../lib/gcc/arm-linux-gnueabihf/6.3.0/../../../../include/c++/6.3.0/bits/stl_vector.h:160:37
	ldr	r5, [r4, #152]
.LBB10_6:                               @ %_ZSt8_DestroyIPNSt7__cxx1112basic_stringIcSt11char_traitsIcESaIcEEES5_EvT_S7_RSaIT0_E.exit.i
.Ltmp416:
	@DEBUG_VALUE: _M_deallocate:__p <- %R5
	.loc	6 177 6                 @ /usr/bin/../lib/gcc/arm-linux-gnueabihf/6.3.0/../../../../include/c++/6.3.0/bits/stl_vector.h:177:6
	cmp	r5, #0
	beq	.LBB10_8
.Ltmp417:
@ BB#7:
	@DEBUG_VALUE: _M_deallocate:__p <- %R5
	.loc	10 110 9                @ /usr/bin/../lib/gcc/arm-linux-gnueabihf/6.3.0/../../../../include/c++/6.3.0/ext/new_allocator.h:110:9
	mov	r0, r5
	bl	_ZdlPv
.Ltmp418:
.LBB10_8:                               @ %_ZNSt6vectorINSt7__cxx1112basic_stringIcSt11char_traitsIcESaIcEEESaIS5_EED2Ev.exit
	@DEBUG_VALUE: _M_deallocate:__p <- %R5
	.loc	27 136 28               @ /usr/bin/../lib/gcc/arm-linux-gnueabihf/6.3.0/../../../../include/c++/6.3.0/bits/basic_string.h:136:28
	ldr	r0, [r4, #128]
.Ltmp419:
	@DEBUG_VALUE: deallocate:__p <- %R0
	@DEBUG_VALUE: deallocate:__p <- %R0
	.loc	27 152 57               @ /usr/bin/../lib/gcc/arm-linux-gnueabihf/6.3.0/../../../../include/c++/6.3.0/bits/basic_string.h:152:57
	add	r1, r4, #136
.Ltmp420:
	.loc	27 180 6                @ /usr/bin/../lib/gcc/arm-linux-gnueabihf/6.3.0/../../../../include/c++/6.3.0/bits/basic_string.h:180:6
	cmp	r0, r1
	beq	.LBB10_10
.Ltmp421:
@ BB#9:
	@DEBUG_VALUE: deallocate:__p <- %R0
	@DEBUG_VALUE: deallocate:__p <- %R0
	@DEBUG_VALUE: _M_deallocate:__p <- %R5
	.loc	10 110 9                @ /usr/bin/../lib/gcc/arm-linux-gnueabihf/6.3.0/../../../../include/c++/6.3.0/ext/new_allocator.h:110:9
	bl	_ZdlPv
.Ltmp422:
.LBB10_10:                              @ %_ZNSt7__cxx1112basic_stringIcSt11char_traitsIcESaIcEED2Ev.exit
	@DEBUG_VALUE: _M_deallocate:__p <- %R5
	.loc	27 136 28               @ /usr/bin/../lib/gcc/arm-linux-gnueabihf/6.3.0/../../../../include/c++/6.3.0/bits/basic_string.h:136:28
	ldr	r0, [r4, #92]
.Ltmp423:
	@DEBUG_VALUE: deallocate:__p <- %R0
	@DEBUG_VALUE: deallocate:__p <- %R0
	.loc	27 152 57               @ /usr/bin/../lib/gcc/arm-linux-gnueabihf/6.3.0/../../../../include/c++/6.3.0/bits/basic_string.h:152:57
	add	r1, r4, #100
.Ltmp424:
	.loc	27 180 6                @ /usr/bin/../lib/gcc/arm-linux-gnueabihf/6.3.0/../../../../include/c++/6.3.0/bits/basic_string.h:180:6
	cmp	r0, r1
	beq	.LBB10_12
.Ltmp425:
@ BB#11:
	@DEBUG_VALUE: deallocate:__p <- %R0
	@DEBUG_VALUE: deallocate:__p <- %R0
	@DEBUG_VALUE: _M_deallocate:__p <- %R5
	.loc	10 110 9                @ /usr/bin/../lib/gcc/arm-linux-gnueabihf/6.3.0/../../../../include/c++/6.3.0/ext/new_allocator.h:110:9
	bl	_ZdlPv
.Ltmp426:
.LBB10_12:                              @ %_ZNSt7__cxx1112basic_stringIcSt11char_traitsIcESaIcEED2Ev.exit2
	@DEBUG_VALUE: _M_deallocate:__p <- %R5
	.loc	6 160 37                @ /usr/bin/../lib/gcc/arm-linux-gnueabihf/6.3.0/../../../../include/c++/6.3.0/bits/stl_vector.h:160:37
	ldr	r0, [r4, #68]
.Ltmp427:
	@DEBUG_VALUE: _M_deallocate:__p <- %R0
	@DEBUG_VALUE: deallocate:__p <- %R0
	@DEBUG_VALUE: deallocate:__p <- %R0
	.loc	6 177 6                 @ /usr/bin/../lib/gcc/arm-linux-gnueabihf/6.3.0/../../../../include/c++/6.3.0/bits/stl_vector.h:177:6
	cmp	r0, #0
	beq	.LBB10_14
.Ltmp428:
@ BB#13:
	@DEBUG_VALUE: deallocate:__p <- %R0
	@DEBUG_VALUE: deallocate:__p <- %R0
	@DEBUG_VALUE: _M_deallocate:__p <- %R0
	@DEBUG_VALUE: _M_deallocate:__p <- %R5
	.loc	10 110 9                @ /usr/bin/../lib/gcc/arm-linux-gnueabihf/6.3.0/../../../../include/c++/6.3.0/ext/new_allocator.h:110:9
	bl	_ZdlPv
.Ltmp429:
.LBB10_14:                              @ %_ZNSt6vectorIfSaIfEED2Ev.exit
	@DEBUG_VALUE: _M_deallocate:__p <- %R5
	.loc	6 160 37                @ /usr/bin/../lib/gcc/arm-linux-gnueabihf/6.3.0/../../../../include/c++/6.3.0/bits/stl_vector.h:160:37
	ldr	r0, [r4, #56]
.Ltmp430:
	@DEBUG_VALUE: _M_deallocate:__p <- %R0
	@DEBUG_VALUE: deallocate:__p <- %R0
	@DEBUG_VALUE: deallocate:__p <- %R0
	.loc	6 177 6                 @ /usr/bin/../lib/gcc/arm-linux-gnueabihf/6.3.0/../../../../include/c++/6.3.0/bits/stl_vector.h:177:6
	cmp	r0, #0
	beq	.LBB10_16
.Ltmp431:
@ BB#15:
	@DEBUG_VALUE: deallocate:__p <- %R0
	@DEBUG_VALUE: deallocate:__p <- %R0
	@DEBUG_VALUE: _M_deallocate:__p <- %R0
	@DEBUG_VALUE: _M_deallocate:__p <- %R5
	.loc	10 110 9                @ /usr/bin/../lib/gcc/arm-linux-gnueabihf/6.3.0/../../../../include/c++/6.3.0/ext/new_allocator.h:110:9
	bl	_ZdlPv
.Ltmp432:
.LBB10_16:                              @ %_ZNSt6vectorIcSaIcEED2Ev.exit
	@DEBUG_VALUE: _M_deallocate:__p <- %R5
	.loc	27 136 28               @ /usr/bin/../lib/gcc/arm-linux-gnueabihf/6.3.0/../../../../include/c++/6.3.0/bits/basic_string.h:136:28
	ldr	r0, [r4, #32]
.Ltmp433:
	@DEBUG_VALUE: deallocate:__p <- %R0
	@DEBUG_VALUE: deallocate:__p <- %R0
	.loc	27 152 57               @ /usr/bin/../lib/gcc/arm-linux-gnueabihf/6.3.0/../../../../include/c++/6.3.0/bits/basic_string.h:152:57
	add	r1, r4, #40
.Ltmp434:
	.loc	27 180 6                @ /usr/bin/../lib/gcc/arm-linux-gnueabihf/6.3.0/../../../../include/c++/6.3.0/bits/basic_string.h:180:6
	cmp	r0, r1
	beq	.LBB10_18
.Ltmp435:
@ BB#17:
	@DEBUG_VALUE: deallocate:__p <- %R0
	@DEBUG_VALUE: deallocate:__p <- %R0
	@DEBUG_VALUE: _M_deallocate:__p <- %R5
	.loc	10 110 9                @ /usr/bin/../lib/gcc/arm-linux-gnueabihf/6.3.0/../../../../include/c++/6.3.0/ext/new_allocator.h:110:9
	bl	_ZdlPv
.Ltmp436:
.LBB10_18:                              @ %_ZNSt7__cxx1112basic_stringIcSt11char_traitsIcESaIcEED2Ev.exit3
	@DEBUG_VALUE: _M_deallocate:__p <- %R5
	.loc	27 136 28               @ /usr/bin/../lib/gcc/arm-linux-gnueabihf/6.3.0/../../../../include/c++/6.3.0/bits/basic_string.h:136:28
	ldr	r0, [r4, #8]
.Ltmp437:
	@DEBUG_VALUE: deallocate:__p <- %R0
	@DEBUG_VALUE: deallocate:__p <- %R0
	.loc	27 152 57               @ /usr/bin/../lib/gcc/arm-linux-gnueabihf/6.3.0/../../../../include/c++/6.3.0/bits/basic_string.h:152:57
	add	r1, r4, #16
.Ltmp438:
	.loc	27 180 6                @ /usr/bin/../lib/gcc/arm-linux-gnueabihf/6.3.0/../../../../include/c++/6.3.0/bits/basic_string.h:180:6
	cmp	r0, r1
	beq	.LBB10_20
.Ltmp439:
@ BB#19:
	@DEBUG_VALUE: deallocate:__p <- %R0
	@DEBUG_VALUE: deallocate:__p <- %R0
	@DEBUG_VALUE: _M_deallocate:__p <- %R5
	.loc	10 110 9                @ /usr/bin/../lib/gcc/arm-linux-gnueabihf/6.3.0/../../../../include/c++/6.3.0/ext/new_allocator.h:110:9
	bl	_ZdlPv
.Ltmp440:
.LBB10_20:                              @ %_ZNSt7__cxx1112basic_stringIcSt11char_traitsIcESaIcEED2Ev.exit4
	@DEBUG_VALUE: _M_deallocate:__p <- %R5
	.loc	23 83 1                 @ /root/Bela/projects/board_6/WriteFile.cpp:83:1
	mov	r0, r4
	pop	{r4, r5, r6, r10, r11, pc}
.Ltmp441:
.LBB10_21:
	@DEBUG_VALUE: ~WriteFile:this <- %R4
.Ltmp398:
	mov	r5, r0
.Ltmp442:
	.loc	23 83 1 is_stmt 0 discriminator 1 @ /root/Bela/projects/board_6/WriteFile.cpp:83:1
	add	r0, r4, #152
	bl	_ZNSt6vectorINSt7__cxx1112basic_stringIcSt11char_traitsIcESaIcEEESaIS5_EED2Ev
	add	r0, r4, #128
	.loc	23 83 1 discriminator 9 @ /root/Bela/projects/board_6/WriteFile.cpp:83:1
	bl	_ZNSt7__cxx1112basic_stringIcSt11char_traitsIcESaIcEED2Ev
	.loc	23 83 1 discriminator 1 @ /root/Bela/projects/board_6/WriteFile.cpp:83:1
	add	r0, r4, #92
	.loc	23 83 1 discriminator 10 @ /root/Bela/projects/board_6/WriteFile.cpp:83:1
	bl	_ZNSt7__cxx1112basic_stringIcSt11char_traitsIcESaIcEED2Ev
	.loc	23 83 1 discriminator 1 @ /root/Bela/projects/board_6/WriteFile.cpp:83:1
	add	r0, r4, #68
	.loc	23 83 1 discriminator 11 @ /root/Bela/projects/board_6/WriteFile.cpp:83:1
	bl	_ZNSt6vectorIfSaIfEED2Ev
	.loc	23 83 1 discriminator 1 @ /root/Bela/projects/board_6/WriteFile.cpp:83:1
	add	r0, r4, #56
	.loc	23 83 1 discriminator 12 @ /root/Bela/projects/board_6/WriteFile.cpp:83:1
	bl	_ZNSt6vectorIcSaIcEED2Ev
	.loc	23 83 1 discriminator 1 @ /root/Bela/projects/board_6/WriteFile.cpp:83:1
	add	r0, r4, #32
	.loc	23 83 1 discriminator 13 @ /root/Bela/projects/board_6/WriteFile.cpp:83:1
	bl	_ZNSt7__cxx1112basic_stringIcSt11char_traitsIcESaIcEED2Ev
	.loc	23 83 1 discriminator 1 @ /root/Bela/projects/board_6/WriteFile.cpp:83:1
	add	r0, r4, #8
	.loc	23 83 1 discriminator 14 @ /root/Bela/projects/board_6/WriteFile.cpp:83:1
	bl	_ZNSt7__cxx1112basic_stringIcSt11char_traitsIcESaIcEED2Ev
.Ltmp443:
	.loc	23 83 1 discriminator 2 @ /root/Bela/projects/board_6/WriteFile.cpp:83:1
	mov	r0, r5
	mov	lr, pc
	b	__cxa_call_unexpected
.Ltmp444:
.Lfunc_end10:
	.size	_ZN9WriteFileD2Ev, .Lfunc_end10-_ZN9WriteFileD2Ev
	.cfi_endproc
	.globl	__gxx_personality_v0
	.personality __gxx_personality_v0
	.handlerdata
	.p2align	2
GCC_except_table10:
.Lexception4:
	.byte	255                     @ @LPStart Encoding = omit
	.byte	0                       @ @TType Encoding = absptr
	.asciz	"\236\200\200"          @ @TType base offset
	.byte	3                       @ Call site Encoding = udata4
	.byte	26                      @ Call site table length
	.long	.Ltmp396-.Lfunc_begin10 @ >> Call Site 1 <<
	.long	.Ltmp397-.Ltmp396       @   Call between .Ltmp396 and .Ltmp397
	.long	.Ltmp398-.Lfunc_begin10 @     jumps to .Ltmp398
	.byte	1                       @   On action: 1
	.long	.Ltmp397-.Lfunc_begin10 @ >> Call Site 2 <<
	.long	.Lfunc_end10-.Ltmp397   @   Call between .Ltmp397 and .Lfunc_end10
	.long	0                       @     has no landing pad
	.byte	0                       @   On action: cleanup
	.byte	127                     @ >> Action Record 1 <<
                                        @   Filter TypeInfo -1
	.byte	0                       @   No further actions
                                        @ >> Filter TypeInfos <<
	.long	0
	.p2align	2
	.fnend

	.globl	_ZN9WriteFile7cleanupEb
	.p2align	2
	.type	_ZN9WriteFile7cleanupEb,%function
_ZN9WriteFile7cleanupEb:                @ @_ZN9WriteFile7cleanupEb
.Lfunc_begin11:
	.loc	23 85 0 is_stmt 1       @ /root/Bela/projects/board_6/WriteFile.cpp:85:0
	.fnstart
	.cfi_startproc
@ BB#0:
	.save	{r4, r5, r6, r7, r8, r9, r11, lr}
	push	{r4, r5, r6, r7, r8, r9, r11, lr}
.Ltmp451:
	.cfi_def_cfa_offset 32
.Ltmp452:
	.cfi_offset lr, -4
.Ltmp453:
	.cfi_offset r11, -8
.Ltmp454:
	.cfi_offset r9, -12
.Ltmp455:
	.cfi_offset r8, -16
.Ltmp456:
	.cfi_offset r7, -20
.Ltmp457:
	.cfi_offset r6, -24
.Ltmp458:
	.cfi_offset r5, -28
.Ltmp459:
	.cfi_offset r4, -32
	.setfp	r11, sp, #24
	add	r11, sp, #24
.Ltmp460:
	.cfi_def_cfa r11, 8
	.pad	#8
	sub	sp, sp, #8
	@DEBUG_VALUE: cleanup:this <- %R0
	@DEBUG_VALUE: cleanup:discard [bit_piece offset=0 size=1] <- %R1
	mov	r4, r0
.Ltmp461:
	@DEBUG_VALUE: cleanup:this <- %R4
	mov	r5, r1
.Ltmp462:
	@DEBUG_VALUE: cleanup:discard [bit_piece offset=0 size=1] <- %R5
	.loc	23 86 5 prologue_end    @ /root/Bela/projects/board_6/WriteFile.cpp:86:5
	ldrb	r0, [r4, #165]
.Ltmp463:
	@DEBUG_VALUE: cleanup:discard [bit_piece offset=0 size=1] <- undef
	.loc	23 86 5 is_stmt 0       @ /root/Bela/projects/board_6/WriteFile.cpp:86:5
	cmp	r0, #0
	bne	.LBB11_33
.Ltmp464:
@ BB#1:
	@DEBUG_VALUE: cleanup:this <- %R4
	.loc	18 747 7 is_stmt 1      @ /usr/bin/../lib/gcc/arm-linux-gnueabihf/6.3.0/../../../../include/arm-linux-gnueabihf/c++/6.3.0/bits/gthr-default.h:747:7
	movw	r9, :lower16:__pthread_key_create
.Ltmp465:
	.loc	23 88 10                @ /root/Bela/projects/board_6/WriteFile.cpp:88:10
	mov	r0, #1
.Ltmp466:
	.loc	18 747 7                @ /usr/bin/../lib/gcc/arm-linux-gnueabihf/6.3.0/../../../../include/arm-linux-gnueabihf/c++/6.3.0/bits/gthr-default.h:747:7
	movt	r9, :upper16:__pthread_key_create
.Ltmp467:
	.loc	23 88 10                @ /root/Bela/projects/board_6/WriteFile.cpp:88:10
	strb	r0, [r4, #165]
.Ltmp468:
	.loc	18 747 7                @ /usr/bin/../lib/gcc/arm-linux-gnueabihf/6.3.0/../../../../include/arm-linux-gnueabihf/c++/6.3.0/bits/gthr-default.h:747:7
	cmp	r9, #0
	beq	.LBB11_3
.Ltmp469:
@ BB#2:                                 @ %_ZL20__gthread_mutex_lockP15pthread_mutex_t.exit.i.i.i
	@DEBUG_VALUE: cleanup:this <- %R4
	.loc	18 748 12               @ /usr/bin/../lib/gcc/arm-linux-gnueabihf/6.3.0/../../../../include/arm-linux-gnueabihf/c++/6.3.0/bits/gthr-default.h:748:12
	movw	r0, :lower16:.L_MergedGlobals.1
	movt	r0, :upper16:.L_MergedGlobals.1
	add	r0, r0, #4
	bl	pthread_mutex_lock
.Ltmp470:
	@DEBUG_VALUE: lock:__e <- %R0
	.loc	25 106 11               @ /usr/bin/../lib/gcc/arm-linux-gnueabihf/6.3.0/../../../../include/c++/6.3.0/bits/std_mutex.h:106:11
	cmp	r0, #0
	bne	.LBB11_35
.Ltmp471:
.LBB11_3:                               @ %_ZNSt11unique_lockISt5mutexEC2ERS0_.exit
	@DEBUG_VALUE: cleanup:this <- %R4
	.loc	23 91 2                 @ /root/Bela/projects/board_6/WriteFile.cpp:91:2
.Ltmp445:
	mov	r0, r4
	mov	r1, #1
	bl	_ZN9WriteFile11writeOutputEb
.Ltmp446:
.Ltmp472:
@ BB#4:
	@DEBUG_VALUE: cleanup:this <- %R4
	.loc	23 93 9                 @ /root/Bela/projects/board_6/WriteFile.cpp:93:9
	ldr	r0, [r4, #124]
	.loc	23 93 2 is_stmt 0       @ /root/Bela/projects/board_6/WriteFile.cpp:93:2
	bl	fflush
	.loc	23 94 9 is_stmt 1       @ /root/Bela/projects/board_6/WriteFile.cpp:94:9
	ldr	r0, [r4, #124]
	.loc	23 94 2 is_stmt 0       @ /root/Bela/projects/board_6/WriteFile.cpp:94:2
	bl	fclose
	.loc	23 95 5 is_stmt 1       @ /root/Bela/projects/board_6/WriteFile.cpp:95:5
	cmp	r5, #1
	bne	.LBB11_6
.Ltmp473:
@ BB#5:
	@DEBUG_VALUE: cleanup:this <- %R4
	.loc	27 136 28               @ /usr/bin/../lib/gcc/arm-linux-gnueabihf/6.3.0/../../../../include/c++/6.3.0/bits/basic_string.h:136:28
	ldr	r0, [r4, #128]
.Ltmp474:
	.loc	23 97 13 discriminator 2 @ /root/Bela/projects/board_6/WriteFile.cpp:97:13
	bl	unlink
.Ltmp475:
	@DEBUG_VALUE: ret <- %R0
	.loc	23 98 6                 @ /root/Bela/projects/board_6/WriteFile.cpp:98:6
	cmp	r0, #0
	bne	.LBB11_34
.Ltmp476:
.LBB11_6:
	@DEBUG_VALUE: cleanup:this <- %R4
	.loc	7 777 20                @ /usr/bin/../lib/gcc/arm-linux-gnueabihf/6.3.0/../../../../include/c++/6.3.0/bits/stl_iterator.h:777:20
	movw	r5, :lower16:.L_MergedGlobals
	movt	r5, :upper16:.L_MergedGlobals
	ldmib	r5, {r3, r7}
.Ltmp477:
	.loc	7 962 27                @ /usr/bin/../lib/gcc/arm-linux-gnueabihf/6.3.0/../../../../include/c++/6.3.0/bits/stl_iterator.h:962:27
	sub	r0, r7, r3
.Ltmp478:
	.file	53 "/usr/bin/../lib/gcc/arm-linux-gnueabihf/6.3.0/../../../../include/c++/6.3.0/bits" "stl_algo.h"
	.loc	53 161 14 discriminator 3 @ /usr/bin/../lib/gcc/arm-linux-gnueabihf/6.3.0/../../../../include/c++/6.3.0/bits/stl_algo.h:161:14
	mov	r1, r3
.Ltmp479:
	.loc	53 116 36               @ /usr/bin/../lib/gcc/arm-linux-gnueabihf/6.3.0/../../../../include/c++/6.3.0/bits/stl_algo.h:116:36
	asr	r0, r0, #4
.Ltmp480:
	@DEBUG_VALUE: __find_if<__gnu_cxx::__normal_iterator<WriteFile **, std::vector<WriteFile *, std::allocator<WriteFile *> > >, __gnu_cxx::__ops::_Iter_equals_val<WriteFile *const> >:__trip_count <- %R0
	.loc	53 118 7 discriminator 1 @ /usr/bin/../lib/gcc/arm-linux-gnueabihf/6.3.0/../../../../include/c++/6.3.0/bits/stl_algo.h:118:7
	cmp	r0, #1
	blt	.LBB11_11
.Ltmp481:
@ BB#7:                                 @ %.lr.ph.i.i.i.preheader
	@DEBUG_VALUE: __find_if<__gnu_cxx::__normal_iterator<WriteFile **, std::vector<WriteFile *, std::allocator<WriteFile *> > >, __gnu_cxx::__ops::_Iter_equals_val<WriteFile *const> >:__trip_count <- %R0
	@DEBUG_VALUE: cleanup:this <- %R4
	.loc	53 113 19               @ /usr/bin/../lib/gcc/arm-linux-gnueabihf/6.3.0/../../../../include/c++/6.3.0/bits/stl_algo.h:113:19
	add	r2, r0, #1
.Ltmp482:
	.loc	53 161 14 discriminator 3 @ /usr/bin/../lib/gcc/arm-linux-gnueabihf/6.3.0/../../../../include/c++/6.3.0/bits/stl_algo.h:161:14
	mov	r1, r3
.Ltmp483:
.LBB11_8:                               @ %.lr.ph.i.i.i
                                        @ =>This Inner Loop Header: Depth=1
	.loc	31 199 11               @ /usr/bin/../lib/gcc/arm-linux-gnueabihf/6.3.0/../../../../include/c++/6.3.0/bits/predefined_ops.h:199:11
	ldr	r0, [r1]
.Ltmp484:
	.loc	53 120 8                @ /usr/bin/../lib/gcc/arm-linux-gnueabihf/6.3.0/../../../../include/c++/6.3.0/bits/stl_algo.h:120:8
	cmp	r0, r4
.Ltmp485:
	.loc	53 161 14 discriminator 3 @ /usr/bin/../lib/gcc/arm-linux-gnueabihf/6.3.0/../../../../include/c++/6.3.0/bits/stl_algo.h:161:14
	mov	r0, r1
.Ltmp486:
	.loc	31 199 11               @ /usr/bin/../lib/gcc/arm-linux-gnueabihf/6.3.0/../../../../include/c++/6.3.0/bits/predefined_ops.h:199:11
	movne	r0, r1
	ldrne	r6, [r0, #4]!
.Ltmp487:
	.loc	53 124 8                @ /usr/bin/../lib/gcc/arm-linux-gnueabihf/6.3.0/../../../../include/c++/6.3.0/bits/stl_algo.h:124:8
	cmpne	r6, r4
	beq	.LBB11_22
@ BB#9:                                 @   in Loop: Header=BB11_8 Depth=1
.Ltmp488:
	.loc	31 199 11               @ /usr/bin/../lib/gcc/arm-linux-gnueabihf/6.3.0/../../../../include/c++/6.3.0/bits/predefined_ops.h:199:11
	mov	r0, r1
	ldr	r6, [r0, #8]!
.Ltmp489:
	.loc	53 128 8                @ /usr/bin/../lib/gcc/arm-linux-gnueabihf/6.3.0/../../../../include/c++/6.3.0/bits/stl_algo.h:128:8
	cmp	r6, r4
.Ltmp490:
	.loc	31 199 11               @ /usr/bin/../lib/gcc/arm-linux-gnueabihf/6.3.0/../../../../include/c++/6.3.0/bits/predefined_ops.h:199:11
	movne	r0, r1
	ldrne	r6, [r0, #12]!
.Ltmp491:
	.loc	53 132 8                @ /usr/bin/../lib/gcc/arm-linux-gnueabihf/6.3.0/../../../../include/c++/6.3.0/bits/stl_algo.h:132:8
	cmpne	r6, r4
	beq	.LBB11_22
.Ltmp492:
@ BB#10:                                @   in Loop: Header=BB11_8 Depth=1
	.loc	53 118 27 discriminator 1 @ /usr/bin/../lib/gcc/arm-linux-gnueabihf/6.3.0/../../../../include/c++/6.3.0/bits/stl_algo.h:118:27
	sub	r2, r2, #1
.Ltmp493:
	.loc	7 799 2                 @ /usr/bin/../lib/gcc/arm-linux-gnueabihf/6.3.0/../../../../include/c++/6.3.0/bits/stl_iterator.h:799:2
	add	r1, r1, #16
.Ltmp494:
	.loc	53 118 7 discriminator 1 @ /usr/bin/../lib/gcc/arm-linux-gnueabihf/6.3.0/../../../../include/c++/6.3.0/bits/stl_algo.h:118:7
	cmp	r2, #1
	bgt	.LBB11_8
.Ltmp495:
.LBB11_11:                              @ %._crit_edge.i.i.i
	.loc	7 962 27                @ /usr/bin/../lib/gcc/arm-linux-gnueabihf/6.3.0/../../../../include/c++/6.3.0/bits/stl_iterator.h:962:27
	sub	r0, r7, r1
.Ltmp496:
	.loc	53 137 7                @ /usr/bin/../lib/gcc/arm-linux-gnueabihf/6.3.0/../../../../include/c++/6.3.0/bits/stl_algo.h:137:7
	mov	r2, #1
	cmp	r2, r0, asr #2
	beq	.LBB11_16
@ BB#12:                                @ %._crit_edge.i.i.i
.Ltmp497:
	.loc	7 962 27                @ /usr/bin/../lib/gcc/arm-linux-gnueabihf/6.3.0/../../../../include/c++/6.3.0/bits/stl_iterator.h:962:27
	asr	r0, r0, #2
	cmp	r0, #2
	beq	.LBB11_17
.Ltmp498:
@ BB#13:                                @ %._crit_edge.i.i.i
	cmp	r0, #3
	bne	.LBB11_21
@ BB#14:
.Ltmp499:
	.loc	31 199 11               @ /usr/bin/../lib/gcc/arm-linux-gnueabihf/6.3.0/../../../../include/c++/6.3.0/bits/predefined_ops.h:199:11
	ldr	r0, [r1]
.Ltmp500:
	.loc	53 140 8                @ /usr/bin/../lib/gcc/arm-linux-gnueabihf/6.3.0/../../../../include/c++/6.3.0/bits/stl_algo.h:140:8
	cmp	r0, r4
.Ltmp501:
	.loc	53 161 14 discriminator 3 @ /usr/bin/../lib/gcc/arm-linux-gnueabihf/6.3.0/../../../../include/c++/6.3.0/bits/stl_algo.h:161:14
	mov	r0, r1
	beq	.LBB11_22
@ BB#15:
.Ltmp502:
	.loc	7 799 2                 @ /usr/bin/../lib/gcc/arm-linux-gnueabihf/6.3.0/../../../../include/c++/6.3.0/bits/stl_iterator.h:799:2
	add	r0, r1, #4
	b	.LBB11_18
.Ltmp503:
.LBB11_16:
	.loc	53 161 14 discriminator 3 @ /usr/bin/../lib/gcc/arm-linux-gnueabihf/6.3.0/../../../../include/c++/6.3.0/bits/stl_algo.h:161:14
	mov	r0, r1
	b	.LBB11_20
.LBB11_17:
	mov	r0, r1
.LBB11_18:                              @ %._crit_edge._crit_edge60.i.i.i
.Ltmp504:
	.loc	31 199 11               @ /usr/bin/../lib/gcc/arm-linux-gnueabihf/6.3.0/../../../../include/c++/6.3.0/bits/predefined_ops.h:199:11
	ldr	r1, [r0]
.Ltmp505:
	.loc	53 144 8                @ /usr/bin/../lib/gcc/arm-linux-gnueabihf/6.3.0/../../../../include/c++/6.3.0/bits/stl_algo.h:144:8
	cmp	r1, r4
	beq	.LBB11_22
@ BB#19:
.Ltmp506:
	.loc	7 799 2                 @ /usr/bin/../lib/gcc/arm-linux-gnueabihf/6.3.0/../../../../include/c++/6.3.0/bits/stl_iterator.h:799:2
	add	r0, r0, #4
.Ltmp507:
.LBB11_20:                              @ %._crit_edge._crit_edge.i.i.i
	.loc	31 199 11               @ /usr/bin/../lib/gcc/arm-linux-gnueabihf/6.3.0/../../../../include/c++/6.3.0/bits/predefined_ops.h:199:11
	ldr	r1, [r0]
.Ltmp508:
	.loc	53 148 8                @ /usr/bin/../lib/gcc/arm-linux-gnueabihf/6.3.0/../../../../include/c++/6.3.0/bits/stl_algo.h:148:8
	cmp	r1, r4
.Ltmp509:
	.loc	53 161 14 discriminator 3 @ /usr/bin/../lib/gcc/arm-linux-gnueabihf/6.3.0/../../../../include/c++/6.3.0/bits/stl_algo.h:161:14
	movne	r0, r7
	b	.LBB11_22
.LBB11_21:
	mov	r0, r7
.Ltmp510:
.LBB11_22:                              @ %.loopexit
	@DEBUG_VALUE: __copy_move_a<true, WriteFile **, WriteFile **>:__result <- %R0
	.loc	23 104 5                @ /root/Bela/projects/board_6/WriteFile.cpp:104:5
	cmp	r0, r7
	beq	.LBB11_26
.Ltmp511:
@ BB#23:
	@DEBUG_VALUE: __copy_move_a<true, WriteFile **, WriteFile **>:__result <- %R0
	.loc	7 830 45                @ /usr/bin/../lib/gcc/arm-linux-gnueabihf/6.3.0/../../../../include/c++/6.3.0/bits/stl_iterator.h:830:45
	add	r1, r0, #4
.Ltmp512:
	@DEBUG_VALUE: operator+:__n <- 1
	.loc	49 144 11               @ /usr/bin/../lib/gcc/arm-linux-gnueabihf/6.3.0/../../../../include/c++/6.3.0/bits/vector.tcc:144:11
	cmp	r1, r7
.Ltmp513:
	@DEBUG_VALUE: operator+:__n <- 1
	@DEBUG_VALUE: __copy_move_a<true, WriteFile **, WriteFile **>:__simple <- 1
	.loc	50 366 34               @ /usr/bin/../lib/gcc/arm-linux-gnueabihf/6.3.0/../../../../include/c++/6.3.0/bits/stl_algobase.h:366:34
	subsne	r2, r7, r1
	beq	.LBB11_25
.Ltmp514:
@ BB#24:
	@DEBUG_VALUE: __copy_move_a<true, WriteFile **, WriteFile **>:__result <- %R0
	.loc	50 368 6                @ /usr/bin/../lib/gcc/arm-linux-gnueabihf/6.3.0/../../../../include/c++/6.3.0/bits/stl_algobase.h:368:6
	bl	memmove
.Ltmp515:
	.loc	6 656 66                @ /usr/bin/../lib/gcc/arm-linux-gnueabihf/6.3.0/../../../../include/c++/6.3.0/bits/stl_vector.h:656:66
	ldmib	r5, {r3, r7}
.Ltmp516:
.LBB11_25:                              @ %_ZNSt6vectorIP9WriteFileSaIS1_EE5eraseEN9__gnu_cxx17__normal_iteratorIPKS1_S3_EE.exit
	.loc	49 146 7                @ /usr/bin/../lib/gcc/arm-linux-gnueabihf/6.3.0/../../../../include/c++/6.3.0/bits/vector.tcc:146:7
	sub	r7, r7, #4
	str	r7, [r5, #8]
.Ltmp517:
.LBB11_26:
	.loc	23 106 5                @ /root/Bela/projects/board_6/WriteFile.cpp:106:5
	cmp	r7, r3
	bne	.LBB11_31
@ BB#27:
.Ltmp518:
	.loc	23 318 17               @ /root/Bela/projects/board_6/WriteFile.cpp:318:17
	mov	r0, #1
.Ltmp519:
	.loc	18 777 7                @ /usr/bin/../lib/gcc/arm-linux-gnueabihf/6.3.0/../../../../include/arm-linux-gnueabihf/c++/6.3.0/bits/gthr-default.h:777:7
	cmp	r9, #0
.Ltmp520:
	.loc	23 318 17               @ /root/Bela/projects/board_6/WriteFile.cpp:318:17
	strb	r0, [r5, #3]
	mov	r0, #0
.Ltmp521:
	.loc	23 110 20               @ /root/Bela/projects/board_6/WriteFile.cpp:110:20
	strb	r0, [r5]
	beq	.LBB11_29
@ BB#28:
.Ltmp522:
	.loc	18 778 12               @ /usr/bin/../lib/gcc/arm-linux-gnueabihf/6.3.0/../../../../include/arm-linux-gnueabihf/c++/6.3.0/bits/gthr-default.h:778:12
	movw	r0, :lower16:.L_MergedGlobals.1
	movt	r0, :upper16:.L_MergedGlobals.1
	add	r0, r0, #4
	bl	pthread_mutex_unlock
.Ltmp523:
.LBB11_29:                              @ %_ZNSt11unique_lockISt5mutexE6unlockEv.exit
	.loc	19 165 16               @ /usr/bin/../lib/gcc/arm-linux-gnueabihf/6.3.0/../../../../include/c++/6.3.0/thread:165:16
	movw	r0, :lower16:.L_MergedGlobals.1
	movt	r0, :upper16:.L_MergedGlobals.1
	ldr	r0, [r0]
.Ltmp524:
	.loc	23 113 5 discriminator 1 @ /root/Bela/projects/board_6/WriteFile.cpp:113:5
	cmp	r0, #0
	beq	.LBB11_33
@ BB#30:
.Ltmp525:
	.loc	23 46 17                @ /root/Bela/projects/board_6/WriteFile.cpp:46:17
.Ltmp448:
	movw	r0, :lower16:.L_MergedGlobals.1
	movt	r0, :upper16:.L_MergedGlobals.1
	bl	_ZNSt6thread4joinEv
.Ltmp449:
	b	.LBB11_33
.Ltmp526:
.LBB11_31:                              @ %_ZN14autojointhread4joinEv.exit
	.loc	18 777 7                @ /usr/bin/../lib/gcc/arm-linux-gnueabihf/6.3.0/../../../../include/arm-linux-gnueabihf/c++/6.3.0/bits/gthr-default.h:777:7
	cmp	r9, #0
	beq	.LBB11_33
@ BB#32:
.Ltmp527:
	.loc	18 778 12               @ /usr/bin/../lib/gcc/arm-linux-gnueabihf/6.3.0/../../../../include/arm-linux-gnueabihf/c++/6.3.0/bits/gthr-default.h:778:12
	movw	r0, :lower16:.L_MergedGlobals.1
	movt	r0, :upper16:.L_MergedGlobals.1
	add	r0, r0, #4
	bl	pthread_mutex_unlock
.Ltmp528:
.LBB11_33:                              @ %_ZNSt11unique_lockISt5mutexED2Ev.exit16
	.loc	23 115 1 discriminator 6 @ /root/Bela/projects/board_6/WriteFile.cpp:115:1
	sub	sp, r11, #24
	pop	{r4, r5, r6, r7, r8, r9, r11, pc}
.LBB11_34:
.Ltmp529:
	@DEBUG_VALUE: ret <- %R0
	@DEBUG_VALUE: cleanup:this <- %R4
	.loc	23 99 12                @ /root/Bela/projects/board_6/WriteFile.cpp:99:12
	movw	r0, :lower16:stderr
.Ltmp530:
	.loc	27 136 28               @ /usr/bin/../lib/gcc/arm-linux-gnueabihf/6.3.0/../../../../include/c++/6.3.0/bits/basic_string.h:136:28
	ldr	r8, [r4, #128]
.Ltmp531:
	.loc	23 99 12                @ /root/Bela/projects/board_6/WriteFile.cpp:99:12
	movt	r0, :upper16:stderr
	ldr	r5, [r0]
	.loc	23 99 81 is_stmt 0 discriminator 2 @ /root/Bela/projects/board_6/WriteFile.cpp:99:81
	bl	__errno_location
	.loc	23 99 80                @ /root/Bela/projects/board_6/WriteFile.cpp:99:80
	ldr	r7, [r0]
	.loc	23 99 103 discriminator 4 @ /root/Bela/projects/board_6/WriteFile.cpp:99:103
	mov	r0, r7
	bl	strerror
	.loc	23 99 4                 @ /root/Bela/projects/board_6/WriteFile.cpp:99:4
	movw	r1, :lower16:.L.str
	str	r0, [sp]
	movt	r1, :upper16:.L.str
	mov	r0, r5
	mov	r2, r8
	mov	r3, r7
	bl	fprintf
	b	.LBB11_6
.Ltmp532:
.LBB11_35:
	@DEBUG_VALUE: lock:__e <- %R0
	@DEBUG_VALUE: cleanup:this <- %R4
	.loc	25 107 2 is_stmt 1      @ /usr/bin/../lib/gcc/arm-linux-gnueabihf/6.3.0/../../../../include/c++/6.3.0/bits/std_mutex.h:107:2
	mov	lr, pc
	b	_ZSt20__throw_system_errori
.Ltmp533:
.LBB11_36:                              @ %.thread
.Ltmp450:
	mov	lr, pc
	b	_Unwind_Resume
.LBB11_37:
.Ltmp534:
	@DEBUG_VALUE: cleanup:this <- %R4
.Ltmp447:
	mov	r4, r0
.Ltmp535:
	.loc	18 777 7                @ /usr/bin/../lib/gcc/arm-linux-gnueabihf/6.3.0/../../../../include/arm-linux-gnueabihf/c++/6.3.0/bits/gthr-default.h:777:7
	cmp	r9, #0
	beq	.LBB11_39
@ BB#38:
.Ltmp536:
	.loc	18 778 12               @ /usr/bin/../lib/gcc/arm-linux-gnueabihf/6.3.0/../../../../include/arm-linux-gnueabihf/c++/6.3.0/bits/gthr-default.h:778:12
	movw	r0, :lower16:.L_MergedGlobals.1
	movt	r0, :upper16:.L_MergedGlobals.1
	add	r0, r0, #4
	bl	pthread_mutex_unlock
.Ltmp537:
.LBB11_39:                              @ %_ZNSt11unique_lockISt5mutexED2Ev.exit
	mov	r0, r4
	mov	lr, pc
	b	_Unwind_Resume
.Lfunc_end11:
	.size	_ZN9WriteFile7cleanupEb, .Lfunc_end11-_ZN9WriteFile7cleanupEb
	.cfi_endproc
	.globl	__gxx_personality_v0
	.personality __gxx_personality_v0
	.handlerdata
	.p2align	2
GCC_except_table11:
.Lexception5:
	.byte	255                     @ @LPStart Encoding = omit
	.byte	0                       @ @TType Encoding = absptr
	.asciz	"\266\200\200"          @ @TType base offset
	.byte	3                       @ Call site Encoding = udata4
	.byte	52                      @ Call site table length
	.long	.Ltmp445-.Lfunc_begin11 @ >> Call Site 1 <<
	.long	.Ltmp446-.Ltmp445       @   Call between .Ltmp445 and .Ltmp446
	.long	.Ltmp447-.Lfunc_begin11 @     jumps to .Ltmp447
	.byte	0                       @   On action: cleanup
	.long	.Ltmp446-.Lfunc_begin11 @ >> Call Site 2 <<
	.long	.Ltmp448-.Ltmp446       @   Call between .Ltmp446 and .Ltmp448
	.long	0                       @     has no landing pad
	.byte	0                       @   On action: cleanup
	.long	.Ltmp448-.Lfunc_begin11 @ >> Call Site 3 <<
	.long	.Ltmp449-.Ltmp448       @   Call between .Ltmp448 and .Ltmp449
	.long	.Ltmp450-.Lfunc_begin11 @     jumps to .Ltmp450
	.byte	0                       @   On action: cleanup
	.long	.Ltmp449-.Lfunc_begin11 @ >> Call Site 4 <<
	.long	.Lfunc_end11-.Ltmp449   @   Call between .Ltmp449 and .Lfunc_end11
	.long	0                       @     has no landing pad
	.byte	0                       @   On action: cleanup
	.p2align	2
	.fnend

	.globl	_ZN9WriteFile11writeOutputEb
	.p2align	2
	.type	_ZN9WriteFile11writeOutputEb,%function
_ZN9WriteFile11writeOutputEb:           @ @_ZN9WriteFile11writeOutputEb
.Lfunc_begin12:
	.loc	23 348 0                @ /root/Bela/projects/board_6/WriteFile.cpp:348:0
	.fnstart
	.cfi_startproc
@ BB#0:
	.save	{r4, r5, r6, r7, r8, r10, r11, lr}
	push	{r4, r5, r6, r7, r8, r10, r11, lr}
.Ltmp538:
	.cfi_def_cfa_offset 32
.Ltmp539:
	.cfi_offset lr, -4
.Ltmp540:
	.cfi_offset r11, -8
.Ltmp541:
	.cfi_offset r10, -12
.Ltmp542:
	.cfi_offset r8, -16
.Ltmp543:
	.cfi_offset r7, -20
.Ltmp544:
	.cfi_offset r6, -24
.Ltmp545:
	.cfi_offset r5, -28
.Ltmp546:
	.cfi_offset r4, -32
	.setfp	r11, sp, #24
	add	r11, sp, #24
.Ltmp547:
	.cfi_def_cfa r11, 8
	@DEBUG_VALUE: writeOutput:this <- %R0
	@DEBUG_VALUE: writeOutput:flush [bit_piece offset=0 size=1] <- %R1
	mov	r8, r1
.Ltmp548:
	@DEBUG_VALUE: writeOutput:flush [bit_piece offset=0 size=1] <- %R8
	mov	r4, r0
.Ltmp549:
	@DEBUG_VALUE: writeOutput:this <- %R4
	b	.LBB12_2
.Ltmp550:
.LBB12_1:                               @   in Loop: Header=BB12_2 Depth=1
	@DEBUG_VALUE: getOffsetFromPointer:offset <- %R0
	@DEBUG_VALUE: getOffsetFromPointer:this <- %R4
	.loc	23 351 3 prologue_end   @ /root/Bela/projects/board_6/WriteFile.cpp:351:3
	mov	r0, r4
.Ltmp551:
	bl	_ZN9WriteFile9writeLineEv
.Ltmp552:
.LBB12_2:                               @ =>This Inner Loop Header: Depth=1
	.loc	23 349 9 discriminator 1 @ /root/Bela/projects/board_6/WriteFile.cpp:349:9
	ldrb	r0, [r4, #164]
	.loc	23 349 22 is_stmt 0 discriminator 1 @ /root/Bela/projects/board_6/WriteFile.cpp:349:22
	cmp	r0, #0
	bne	.LBB12_4
@ BB#3:                                 @   in Loop: Header=BB12_2 Depth=1
	.loc	23 349 25 discriminator 2 @ /root/Bela/projects/board_6/WriteFile.cpp:349:25
	ldr	r0, [r4, #120]
	.loc	23 349 44 discriminator 2 @ /root/Bela/projects/board_6/WriteFile.cpp:349:44
	cmp	r0, #1
	bne	.LBB12_7
.LBB12_4:                               @   in Loop: Header=BB12_2 Depth=1
	.loc	23 349 68 discriminator 3 @ /root/Bela/projects/board_6/WriteFile.cpp:349:68
	ldr	r0, [r4, #80]
.Ltmp553:
	@DEBUG_VALUE: getOffsetFromPointer:this <- %R4
	@DEBUG_VALUE: getOffsetFromPointer:aReadPointer <- %R0
	.loc	23 334 15 is_stmt 1     @ /root/Bela/projects/board_6/WriteFile.cpp:334:15
	ldr	r1, [r4, #88]
	.loc	23 334 28 is_stmt 0     @ /root/Bela/projects/board_6/WriteFile.cpp:334:28
	sub	r0, r1, r0
.Ltmp554:
	@DEBUG_VALUE: getOffsetFromPointer:offset <- %R0
	.loc	23 335 7 is_stmt 1      @ /root/Bela/projects/board_6/WriteFile.cpp:335:7
	cmp	r0, #0
	bge	.LBB12_6
.Ltmp555:
@ BB#5:                                 @   in Loop: Header=BB12_2 Depth=1
	@DEBUG_VALUE: getOffsetFromPointer:offset <- %R0
	@DEBUG_VALUE: getOffsetFromPointer:this <- %R4
	.loc	6 656 66                @ /usr/bin/../lib/gcc/arm-linux-gnueabihf/6.3.0/../../../../include/c++/6.3.0/bits/stl_vector.h:656:66
	ldr	r1, [r4, #68]
	.loc	6 656 40 is_stmt 0      @ /usr/bin/../lib/gcc/arm-linux-gnueabihf/6.3.0/../../../../include/c++/6.3.0/bits/stl_vector.h:656:40
	ldr	r2, [r4, #72]
	.loc	6 656 50                @ /usr/bin/../lib/gcc/arm-linux-gnueabihf/6.3.0/../../../../include/c++/6.3.0/bits/stl_vector.h:656:50
	sub	r1, r2, r1
.Ltmp556:
	.loc	23 336 11 is_stmt 1     @ /root/Bela/projects/board_6/WriteFile.cpp:336:11
	add	r0, r0, r1, asr #2
.Ltmp557:
	@DEBUG_VALUE: getOffsetFromPointer:offset <- %R0
.LBB12_6:                               @ %_ZN9WriteFile20getOffsetFromPointerEi.exit
                                        @   in Loop: Header=BB12_2 Depth=1
	@DEBUG_VALUE: getOffsetFromPointer:offset <- %R0
	@DEBUG_VALUE: getOffsetFromPointer:this <- %R4
	.loc	23 349 88 discriminator 3 @ /root/Bela/projects/board_6/WriteFile.cpp:349:88
	ldr	r1, [r4, #116]
	.loc	23 349 2 is_stmt 0 discriminator 4 @ /root/Bela/projects/board_6/WriteFile.cpp:349:2
	cmp	r0, r1
	bge	.LBB12_1
.Ltmp558:
.LBB12_7:                               @ %.critedge
	.loc	23 353 5 is_stmt 1      @ /root/Bela/projects/board_6/WriteFile.cpp:353:5
	ldrb	r0, [r4, #166]
.Ltmp559:
	.loc	23 353 5 is_stmt 0      @ /root/Bela/projects/board_6/WriteFile.cpp:353:5
	cmp	r0, #0
.Ltmp560:
	.loc	23 354 15 is_stmt 1     @ /root/Bela/projects/board_6/WriteFile.cpp:354:15
	movne	r0, #0
	movne	r8, #1
	strbne	r0, [r4, #166]
.Ltmp561:
	@DEBUG_VALUE: writeOutput:flush <- 1
	.loc	23 357 5                @ /root/Bela/projects/board_6/WriteFile.cpp:357:5
	ldr	r0, [r4, #120]
.Ltmp562:
	.loc	23 357 5 is_stmt 0      @ /root/Bela/projects/board_6/WriteFile.cpp:357:5
	cmp	r0, #0
	.loc	23 385 1 is_stmt 1      @ /root/Bela/projects/board_6/WriteFile.cpp:385:1
	popne	{r4, r5, r6, r7, r8, r10, r11, pc}
.Ltmp563:
	.loc	23 360 30 discriminator 1 @ /root/Bela/projects/board_6/WriteFile.cpp:360:30
	ldr	r1, [r4, #84]
	mov	r7, #0
	mov	r6, #0
	b	.LBB12_9
.LBB12_8:                               @   in Loop: Header=BB12_9 Depth=1
.Ltmp564:
	@DEBUG_VALUE: getOffsetFromPointer:offset <- %R2
	@DEBUG_VALUE: getOffsetFromPointer:aReadPointer <- %R1
	@DEBUG_VALUE: getOffsetFromPointer:this <- %R4
	.loc	6 656 66                @ /usr/bin/../lib/gcc/arm-linux-gnueabihf/6.3.0/../../../../include/c++/6.3.0/bits/stl_vector.h:656:66
	ldr	r6, [r4, #68]
	.loc	6 656 40 is_stmt 0      @ /usr/bin/../lib/gcc/arm-linux-gnueabihf/6.3.0/../../../../include/c++/6.3.0/bits/stl_vector.h:656:40
	ldr	r2, [r4, #72]
.Ltmp565:
	.loc	23 364 103 is_stmt 1    @ /root/Bela/projects/board_6/WriteFile.cpp:364:103
	ldr	r3, [r4, #124]
.Ltmp566:
	.loc	6 781 41                @ /usr/bin/../lib/gcc/arm-linux-gnueabihf/6.3.0/../../../../include/c++/6.3.0/bits/stl_vector.h:781:41
	add	r0, r6, r1, lsl #2
.Ltmp567:
	.loc	6 656 50                @ /usr/bin/../lib/gcc/arm-linux-gnueabihf/6.3.0/../../../../include/c++/6.3.0/bits/stl_vector.h:656:50
	sub	r2, r2, r6
.Ltmp568:
	.loc	23 361 46               @ /root/Bela/projects/board_6/WriteFile.cpp:361:46
	rsb	r2, r1, r2, asr #2
.Ltmp569:
	@DEBUG_VALUE: elementsToEndOfBuffer <- %R2
	.loc	23 364 28 discriminator 1 @ /root/Bela/projects/board_6/WriteFile.cpp:364:28
	mov	r1, #4
.Ltmp570:
	.loc	23 362 32               @ /root/Bela/projects/board_6/WriteFile.cpp:362:32
	cmp	r2, #4096
	movwgt	r2, #4096
.Ltmp571:
	@DEBUG_VALUE: numberElementsToWrite <- %R2
	.loc	23 364 28 discriminator 1 @ /root/Bela/projects/board_6/WriteFile.cpp:364:28
	bl	fwrite
.Ltmp572:
	@DEBUG_VALUE: numberElementsToWrite <- %R0
	.loc	23 365 22               @ /root/Bela/projects/board_6/WriteFile.cpp:365:22
	ldr	r1, [r4, #84]
	mov	r6, #1
.Ltmp573:
	.loc	6 656 40                @ /usr/bin/../lib/gcc/arm-linux-gnueabihf/6.3.0/../../../../include/c++/6.3.0/bits/stl_vector.h:656:40
	ldr	r2, [r4, #72]
	.loc	6 656 66 is_stmt 0      @ /usr/bin/../lib/gcc/arm-linux-gnueabihf/6.3.0/../../../../include/c++/6.3.0/bits/stl_vector.h:656:66
	ldr	r3, [r4, #68]
.Ltmp574:
	.loc	23 365 22 is_stmt 1     @ /root/Bela/projects/board_6/WriteFile.cpp:365:22
	add	r1, r1, r0
.Ltmp575:
	.loc	6 656 50                @ /usr/bin/../lib/gcc/arm-linux-gnueabihf/6.3.0/../../../../include/c++/6.3.0/bits/stl_vector.h:656:50
	sub	r0, r2, r3
.Ltmp576:
	.loc	23 366 7                @ /root/Bela/projects/board_6/WriteFile.cpp:366:7
	cmp	r1, r0, asr #2
	movhs	r1, r7
.Ltmp577:
	.loc	23 367 23               @ /root/Bela/projects/board_6/WriteFile.cpp:367:23
	str	r1, [r4, #84]
.Ltmp578:
.LBB12_9:                               @ =>This Inner Loop Header: Depth=1
	@DEBUG_VALUE: getOffsetFromPointer:this <- %R4
	@DEBUG_VALUE: getOffsetFromPointer:aReadPointer <- %R1
	.loc	23 334 15               @ /root/Bela/projects/board_6/WriteFile.cpp:334:15
	ldr	r0, [r4, #88]
	.loc	23 334 28 is_stmt 0     @ /root/Bela/projects/board_6/WriteFile.cpp:334:28
	sub	r2, r0, r1
.Ltmp579:
	@DEBUG_VALUE: getOffsetFromPointer:offset <- %R2
	.loc	23 335 7 is_stmt 1      @ /root/Bela/projects/board_6/WriteFile.cpp:335:7
	cmp	r2, #0
	bge	.LBB12_11
.Ltmp580:
@ BB#10:                                @   in Loop: Header=BB12_9 Depth=1
	@DEBUG_VALUE: getOffsetFromPointer:offset <- %R2
	@DEBUG_VALUE: getOffsetFromPointer:aReadPointer <- %R1
	@DEBUG_VALUE: getOffsetFromPointer:this <- %R4
	.loc	6 656 66                @ /usr/bin/../lib/gcc/arm-linux-gnueabihf/6.3.0/../../../../include/c++/6.3.0/bits/stl_vector.h:656:66
	ldr	r3, [r4, #68]
	.loc	6 656 40 is_stmt 0      @ /usr/bin/../lib/gcc/arm-linux-gnueabihf/6.3.0/../../../../include/c++/6.3.0/bits/stl_vector.h:656:40
	ldr	r5, [r4, #72]
	.loc	6 656 50                @ /usr/bin/../lib/gcc/arm-linux-gnueabihf/6.3.0/../../../../include/c++/6.3.0/bits/stl_vector.h:656:50
	sub	r3, r5, r3
.Ltmp581:
	.loc	23 336 11 is_stmt 1     @ /root/Bela/projects/board_6/WriteFile.cpp:336:11
	add	r2, r2, r3, asr #2
.Ltmp582:
	@DEBUG_VALUE: getOffsetFromPointer:offset <- %R2
.LBB12_11:                              @ %_ZN9WriteFile20getOffsetFromPointerEi.exit20
                                        @   in Loop: Header=BB12_9 Depth=1
	@DEBUG_VALUE: getOffsetFromPointer:offset <- %R2
	@DEBUG_VALUE: getOffsetFromPointer:aReadPointer <- %R1
	@DEBUG_VALUE: getOffsetFromPointer:this <- %R4
	.loc	23 360 3 discriminator 1 @ /root/Bela/projects/board_6/WriteFile.cpp:360:3
	cmp	r2, #4096
	bgt	.LBB12_8
.Ltmp583:
@ BB#12:
	@DEBUG_VALUE: getOffsetFromPointer:offset <- %R2
	@DEBUG_VALUE: getOffsetFromPointer:aReadPointer <- %R1
	@DEBUG_VALUE: getOffsetFromPointer:this <- %R4
	.loc	23 371 6                @ /root/Bela/projects/board_6/WriteFile.cpp:371:6
	cmp	r8, #1
	beq	.LBB12_14
	b	.LBB12_17
.Ltmp584:
.LBB12_13:                              @   in Loop: Header=BB12_14 Depth=1
	@DEBUG_VALUE: getOffsetFromPointer:offset <- %R0
	@DEBUG_VALUE: getOffsetFromPointer:aReadPointer <- %R1
	.loc	6 781 32                @ /usr/bin/../lib/gcc/arm-linux-gnueabihf/6.3.0/../../../../include/c++/6.3.0/bits/stl_vector.h:781:32
	ldr	r0, [r4, #68]
.Ltmp585:
	.loc	23 373 26 discriminator 1 @ /root/Bela/projects/board_6/WriteFile.cpp:373:26
	mov	r2, #1
	.loc	23 373 81 is_stmt 0     @ /root/Bela/projects/board_6/WriteFile.cpp:373:81
	ldr	r3, [r4, #124]
	mov	r6, #1
.Ltmp586:
	.loc	6 781 41 is_stmt 1      @ /usr/bin/../lib/gcc/arm-linux-gnueabihf/6.3.0/../../../../include/c++/6.3.0/bits/stl_vector.h:781:41
	add	r0, r0, r1, lsl #2
.Ltmp587:
	.loc	23 373 26 discriminator 1 @ /root/Bela/projects/board_6/WriteFile.cpp:373:26
	mov	r1, #4
.Ltmp588:
	bl	fwrite
	.loc	23 373 23 is_stmt 0     @ /root/Bela/projects/board_6/WriteFile.cpp:373:23
	ldr	r1, [r4, #84]
.Ltmp589:
	.loc	6 656 40 is_stmt 1      @ /usr/bin/../lib/gcc/arm-linux-gnueabihf/6.3.0/../../../../include/c++/6.3.0/bits/stl_vector.h:656:40
	ldr	r2, [r4, #72]
	.loc	6 656 66 is_stmt 0      @ /usr/bin/../lib/gcc/arm-linux-gnueabihf/6.3.0/../../../../include/c++/6.3.0/bits/stl_vector.h:656:66
	ldr	r3, [r4, #68]
.Ltmp590:
	.loc	23 373 23 is_stmt 1     @ /root/Bela/projects/board_6/WriteFile.cpp:373:23
	add	r1, r1, r0
.Ltmp591:
	.loc	6 656 50                @ /usr/bin/../lib/gcc/arm-linux-gnueabihf/6.3.0/../../../../include/c++/6.3.0/bits/stl_vector.h:656:50
	sub	r0, r2, r3
.Ltmp592:
	.loc	23 374 8                @ /root/Bela/projects/board_6/WriteFile.cpp:374:8
	cmp	r1, r0, asr #2
	movhs	r1, #0
.Ltmp593:
	.loc	23 375 24               @ /root/Bela/projects/board_6/WriteFile.cpp:375:24
	str	r1, [r4, #84]
.Ltmp594:
	.loc	23 334 15               @ /root/Bela/projects/board_6/WriteFile.cpp:334:15
	ldr	r0, [r4, #88]
.LBB12_14:                              @ %.backedge
                                        @ =>This Inner Loop Header: Depth=1
.Ltmp595:
	@DEBUG_VALUE: getOffsetFromPointer:aReadPointer <- %R1
	.loc	23 334 28 is_stmt 0     @ /root/Bela/projects/board_6/WriteFile.cpp:334:28
	sub	r0, r0, r1
.Ltmp596:
	@DEBUG_VALUE: getOffsetFromPointer:offset <- %R0
	.loc	23 335 7 is_stmt 1      @ /root/Bela/projects/board_6/WriteFile.cpp:335:7
	cmp	r0, #0
	bge	.LBB12_16
.Ltmp597:
@ BB#15:                                @   in Loop: Header=BB12_14 Depth=1
	@DEBUG_VALUE: getOffsetFromPointer:offset <- %R0
	@DEBUG_VALUE: getOffsetFromPointer:aReadPointer <- %R1
	@DEBUG_VALUE: getOffsetFromPointer:this <- %R4
	.loc	6 656 66                @ /usr/bin/../lib/gcc/arm-linux-gnueabihf/6.3.0/../../../../include/c++/6.3.0/bits/stl_vector.h:656:66
	ldr	r2, [r4, #68]
	.loc	6 656 40 is_stmt 0      @ /usr/bin/../lib/gcc/arm-linux-gnueabihf/6.3.0/../../../../include/c++/6.3.0/bits/stl_vector.h:656:40
	ldr	r3, [r4, #72]
	.loc	6 656 50                @ /usr/bin/../lib/gcc/arm-linux-gnueabihf/6.3.0/../../../../include/c++/6.3.0/bits/stl_vector.h:656:50
	sub	r2, r3, r2
.Ltmp598:
	.loc	23 336 11 is_stmt 1     @ /root/Bela/projects/board_6/WriteFile.cpp:336:11
	add	r0, r0, r2, asr #2
.Ltmp599:
	@DEBUG_VALUE: getOffsetFromPointer:offset <- %R0
.LBB12_16:                              @ %_ZN9WriteFile20getOffsetFromPointerEi.exit18
                                        @   in Loop: Header=BB12_14 Depth=1
	@DEBUG_VALUE: getOffsetFromPointer:offset <- %R0
	@DEBUG_VALUE: getOffsetFromPointer:aReadPointer <- %R1
	.loc	23 372 4 discriminator 1 @ /root/Bela/projects/board_6/WriteFile.cpp:372:4
	cmp	r0, #0
	bne	.LBB12_13
.Ltmp600:
.LBB12_17:                              @ %.loopexit
	.loc	23 380 6                @ /root/Bela/projects/board_6/WriteFile.cpp:380:6
	tst	r6, #1
	beq	.LBB12_19
@ BB#18:
.Ltmp601:
	.loc	23 381 11               @ /root/Bela/projects/board_6/WriteFile.cpp:381:11
	ldr	r0, [r4, #124]
	.loc	23 381 4 is_stmt 0      @ /root/Bela/projects/board_6/WriteFile.cpp:381:4
	bl	fflush
	.loc	23 382 17 is_stmt 1     @ /root/Bela/projects/board_6/WriteFile.cpp:382:17
	ldr	r0, [r4, #124]
	.loc	23 382 10 is_stmt 0     @ /root/Bela/projects/board_6/WriteFile.cpp:382:10
	bl	fileno
	.loc	23 382 4 discriminator 1 @ /root/Bela/projects/board_6/WriteFile.cpp:382:4
	pop	{r4, r5, r6, r7, r8, r10, r11, lr}
	b	fsync
.Ltmp602:
.LBB12_19:
	.loc	23 385 1 is_stmt 1      @ /root/Bela/projects/board_6/WriteFile.cpp:385:1
	pop	{r4, r5, r6, r7, r8, r10, r11, pc}
.Ltmp603:
.Lfunc_end12:
	.size	_ZN9WriteFile11writeOutputEb, .Lfunc_end12-_ZN9WriteFile11writeOutputEb
	.cfi_endproc
	.fnend

	.globl	_ZN9WriteFile11writeFooterEv
	.p2align	2
	.type	_ZN9WriteFile11writeFooterEv,%function
_ZN9WriteFile11writeFooterEv:           @ @_ZN9WriteFile11writeFooterEv
.Lfunc_begin13:
	.loc	23 398 0                @ /root/Bela/projects/board_6/WriteFile.cpp:398:0
	.fnstart
	.cfi_startproc
@ BB#0:
	@DEBUG_VALUE: writeFooter:this <- %R0
	.loc	23 400 1 prologue_end   @ /root/Bela/projects/board_6/WriteFile.cpp:400:1
	bx	lr
.Ltmp604:
.Lfunc_end13:
	.size	_ZN9WriteFile11writeFooterEv, .Lfunc_end13-_ZN9WriteFile11writeFooterEv
	.cfi_endproc
	.fnend

	.globl	_ZN9WriteFile10stopThreadEv
	.p2align	2
	.type	_ZN9WriteFile10stopThreadEv,%function
_ZN9WriteFile10stopThreadEv:            @ @_ZN9WriteFile10stopThreadEv
.Lfunc_begin14:
	.loc	23 317 0                @ /root/Bela/projects/board_6/WriteFile.cpp:317:0
	.fnstart
	.cfi_startproc
@ BB#0:
	.loc	23 318 17 prologue_end  @ /root/Bela/projects/board_6/WriteFile.cpp:318:17
	movw	r0, :lower16:.L_MergedGlobals
	mov	r1, #1
	movt	r0, :upper16:.L_MergedGlobals
	strb	r1, [r0, #3]
	.loc	23 319 1                @ /root/Bela/projects/board_6/WriteFile.cpp:319:1
	bx	lr
.Ltmp605:
.Lfunc_end14:
	.size	_ZN9WriteFile10stopThreadEv, .Lfunc_end14-_ZN9WriteFile10stopThreadEv
	.cfi_endproc
	.fnend

	.globl	_ZN9WriteFile22generateUniqueFilenameERKNSt7__cxx1112basic_stringIcSt11char_traitsIcESaIcEEE
	.p2align	2
	.type	_ZN9WriteFile22generateUniqueFilenameERKNSt7__cxx1112basic_stringIcSt11char_traitsIcESaIcEEE,%function
_ZN9WriteFile22generateUniqueFilenameERKNSt7__cxx1112basic_stringIcSt11char_traitsIcESaIcEEE: @ @_ZN9WriteFile22generateUniqueFilenameERKNSt7__cxx1112basic_stringIcSt11char_traitsIcESaIcEEE
.Lfunc_begin15:
	.loc	23 118 0                @ /root/Bela/projects/board_6/WriteFile.cpp:118:0
	.fnstart
	.cfi_startproc
@ BB#0:
	.save	{r4, r5, r6, r7, r8, r9, r10, r11, lr}
	push	{r4, r5, r6, r7, r8, r9, r10, r11, lr}
.Ltmp647:
	.cfi_def_cfa_offset 36
.Ltmp648:
	.cfi_offset lr, -4
.Ltmp649:
	.cfi_offset r11, -8
.Ltmp650:
	.cfi_offset r10, -12
.Ltmp651:
	.cfi_offset r9, -16
.Ltmp652:
	.cfi_offset r8, -20
.Ltmp653:
	.cfi_offset r7, -24
.Ltmp654:
	.cfi_offset r6, -28
.Ltmp655:
	.cfi_offset r5, -32
.Ltmp656:
	.cfi_offset r4, -36
	.setfp	r11, sp, #28
	add	r11, sp, #28
.Ltmp657:
	.cfi_def_cfa r11, 8
	.pad	#220
	sub	sp, sp, #220
	@DEBUG_VALUE: generateUniqueFilename:original <- %R1
	mov	r8, r1
.Ltmp658:
	@DEBUG_VALUE: generateUniqueFilename:original <- %R8
	mov	r4, r0
.Ltmp659:
	@DEBUG_VALUE: size:this <- %R8
	@DEBUG_VALUE: out <- [%R4+0]
	.loc	27 805 16 prologue_end  @ /usr/bin/../lib/gcc/arm-linux-gnueabihf/6.3.0/../../../../include/c++/6.3.0/bits/basic_string.h:805:16
	ldr	r6, [r8, #4]
.Ltmp660:
	@DEBUG_VALUE: n <- %R6
	@DEBUG_VALUE: generateUniqueFilename:dot <- %R6
	@DEBUG_VALUE: generateUniqueFilename:originalLen <- %R6
	.loc	23 123 2 discriminator 1 @ /root/Bela/projects/board_6/WriteFile.cpp:123:2
	cmp	r6, #0
	blt	.LBB15_3
.Ltmp661:
@ BB#1:                                 @ %.lr.ph185
	@DEBUG_VALUE: generateUniqueFilename:originalLen <- %R6
	@DEBUG_VALUE: generateUniqueFilename:dot <- %R6
	@DEBUG_VALUE: n <- %R6
	@DEBUG_VALUE: out <- [%R4+0]
	@DEBUG_VALUE: size:this <- %R8
	@DEBUG_VALUE: generateUniqueFilename:original <- %R8
	.loc	27 136 28               @ /usr/bin/../lib/gcc/arm-linux-gnueabihf/6.3.0/../../../../include/c++/6.3.0/bits/basic_string.h:136:28
	ldr	r7, [r8]
	mov	r0, r6
.Ltmp662:
.LBB15_2:                               @ =>This Inner Loop Header: Depth=1
	@DEBUG_VALUE: operator[]:__pos <- %R0
	.loc	23 125 6                @ /root/Bela/projects/board_6/WriteFile.cpp:125:6
	ldrb	r1, [r7, r0]
.Ltmp663:
	.loc	23 125 6 is_stmt 0      @ /root/Bela/projects/board_6/WriteFile.cpp:125:6
	cmp	r1, #46
.Ltmp664:
	.loc	23 123 27 is_stmt 1 discriminator 3 @ /root/Bela/projects/board_6/WriteFile.cpp:123:27
	sub	r1, r0, #1
.Ltmp665:
	@DEBUG_VALUE: n <- %R1
	.loc	23 125 6                @ /root/Bela/projects/board_6/WriteFile.cpp:125:6
	moveq	r6, r0
.Ltmp666:
	.loc	23 123 2 discriminator 1 @ /root/Bela/projects/board_6/WriteFile.cpp:123:2
	cmp	r0, #0
	mov	r0, r1
.Ltmp667:
	@DEBUG_VALUE: n <- %R0
	bgt	.LBB15_2
	b	.LBB15_4
.Ltmp668:
.LBB15_3:                               @ %.._crit_edge186_crit_edge
	@DEBUG_VALUE: generateUniqueFilename:originalLen <- %R6
	@DEBUG_VALUE: generateUniqueFilename:dot <- %R6
	@DEBUG_VALUE: n <- %R6
	@DEBUG_VALUE: out <- [%R4+0]
	@DEBUG_VALUE: size:this <- %R8
	@DEBUG_VALUE: generateUniqueFilename:original <- %R8
	.loc	27 136 28               @ /usr/bin/../lib/gcc/arm-linux-gnueabihf/6.3.0/../../../../include/c++/6.3.0/bits/basic_string.h:136:28
	ldr	r7, [r8]
.Ltmp669:
.LBB15_4:                               @ %._crit_edge186
	@DEBUG_VALUE: generateUniqueFilename:sep <- 43
	@DEBUG_VALUE: generateUniqueFilename:sepLen <- 1
	sub	r0, r11, #88
.Ltmp670:
	@DEBUG_VALUE: _M_construct<__gnu_cxx::__normal_iterator<const char *, std::__cxx11::basic_string<char> > >:this <- %R0
	@DEBUG_VALUE: _M_construct_aux<__gnu_cxx::__normal_iterator<const char *, std::__cxx11::basic_string<char> > >:this <- %R0
	@DEBUG_VALUE: _M_construct<__gnu_cxx::__normal_iterator<const char *, std::__cxx11::basic_string<char> > >:this <- %R0
	@DEBUG_VALUE: _M_local_data:this <- %R0
	@DEBUG_VALUE: basic_string<__gnu_cxx::__normal_iterator<const char *, std::__cxx11::basic_string<char> >, void>:this <- %R0
	.loc	51 215 12               @ /usr/bin/../lib/gcc/arm-linux-gnueabihf/6.3.0/../../../../include/c++/6.3.0/bits/basic_string.tcc:215:12
	str	r6, [r11, #-112]
.Ltmp671:
	.loc	27 142 51               @ /usr/bin/../lib/gcc/arm-linux-gnueabihf/6.3.0/../../../../include/c++/6.3.0/bits/basic_string.h:142:51
	add	r9, r0, #8
.Ltmp672:
	.loc	27 110 25               @ /usr/bin/../lib/gcc/arm-linux-gnueabihf/6.3.0/../../../../include/c++/6.3.0/bits/basic_string.h:110:25
	str	r9, [r11, #-88]
.Ltmp673:
	@DEBUG_VALUE: _M_construct<__gnu_cxx::__normal_iterator<const char *, std::__cxx11::basic_string<char> > >:__dnew <- %R6
	@DEBUG_VALUE: _S_copy:__n <- %R6
	.loc	51 217 6                @ /usr/bin/../lib/gcc/arm-linux-gnueabihf/6.3.0/../../../../include/c++/6.3.0/bits/basic_string.tcc:217:6
	cmp	r6, #15
	bls	.LBB15_7
.Ltmp674:
@ BB#5:                                 @ %.noexc.i
	@DEBUG_VALUE: _S_copy:__n <- %R6
	@DEBUG_VALUE: _M_construct<__gnu_cxx::__normal_iterator<const char *, std::__cxx11::basic_string<char> > >:__dnew <- %R6
	@DEBUG_VALUE: basic_string<__gnu_cxx::__normal_iterator<const char *, std::__cxx11::basic_string<char> >, void>:this <- %R0
	@DEBUG_VALUE: _M_local_data:this <- %R0
	@DEBUG_VALUE: _M_construct<__gnu_cxx::__normal_iterator<const char *, std::__cxx11::basic_string<char> > >:this <- %R0
	@DEBUG_VALUE: _M_construct_aux<__gnu_cxx::__normal_iterator<const char *, std::__cxx11::basic_string<char> > >:this <- %R0
	@DEBUG_VALUE: _M_construct<__gnu_cxx::__normal_iterator<const char *, std::__cxx11::basic_string<char> > >:this <- %R0
	.loc	51 219 14               @ /usr/bin/../lib/gcc/arm-linux-gnueabihf/6.3.0/../../../../include/c++/6.3.0/bits/basic_string.tcc:219:14
.Ltmp606:
	sub	r0, r11, #88
.Ltmp675:
	sub	r1, r11, #112
.Ltmp676:
	@DEBUG_VALUE: _M_construct<__gnu_cxx::__normal_iterator<const char *, std::__cxx11::basic_string<char> > >:__dnew <- [%R1+0]
	mov	r2, #0
	bl	_ZNSt7__cxx1112basic_stringIcSt11char_traitsIcESaIcEE9_M_createERjj
.Ltmp677:
.Ltmp607:
.Ltmp678:
@ BB#6:                                 @ %.noexc
	@DEBUG_VALUE: _S_copy:__n <- %R6
	@DEBUG_VALUE: _M_data:__p <- %R0
	.loc	51 220 18               @ /usr/bin/../lib/gcc/arm-linux-gnueabihf/6.3.0/../../../../include/c++/6.3.0/bits/basic_string.tcc:220:18
	ldr	r1, [r11, #-112]
.Ltmp679:
	@DEBUG_VALUE: _M_capacity:__capacity <- %R1
	@DEBUG_VALUE: _M_construct<__gnu_cxx::__normal_iterator<const char *, std::__cxx11::basic_string<char> > >:__dnew <- %R1
	.loc	27 128 26               @ /usr/bin/../lib/gcc/arm-linux-gnueabihf/6.3.0/../../../../include/c++/6.3.0/bits/basic_string.h:128:26
	str	r0, [r11, #-88]
.Ltmp680:
	.loc	27 160 31               @ /usr/bin/../lib/gcc/arm-linux-gnueabihf/6.3.0/../../../../include/c++/6.3.0/bits/basic_string.h:160:31
	str	r1, [r11, #-80]
	b	.LBB15_8
.Ltmp681:
.LBB15_7:                               @ %._crit_edge.i.i.i.i
	@DEBUG_VALUE: _S_copy:__n <- %R6
	@DEBUG_VALUE: _M_construct<__gnu_cxx::__normal_iterator<const char *, std::__cxx11::basic_string<char> > >:__dnew <- %R6
	@DEBUG_VALUE: basic_string<__gnu_cxx::__normal_iterator<const char *, std::__cxx11::basic_string<char> >, void>:this <- %R0
	@DEBUG_VALUE: _M_local_data:this <- %R0
	@DEBUG_VALUE: _M_construct<__gnu_cxx::__normal_iterator<const char *, std::__cxx11::basic_string<char> > >:this <- %R0
	@DEBUG_VALUE: _M_construct_aux<__gnu_cxx::__normal_iterator<const char *, std::__cxx11::basic_string<char> > >:this <- %R0
	@DEBUG_VALUE: _M_construct<__gnu_cxx::__normal_iterator<const char *, std::__cxx11::basic_string<char> > >:this <- %R0
	.loc	27 136 28               @ /usr/bin/../lib/gcc/arm-linux-gnueabihf/6.3.0/../../../../include/c++/6.3.0/bits/basic_string.h:136:28
	mov	r0, r9
.Ltmp682:
.LBB15_8:
	@DEBUG_VALUE: _S_copy:__n <- %R6
	.loc	27 297 6                @ /usr/bin/../lib/gcc/arm-linux-gnueabihf/6.3.0/../../../../include/c++/6.3.0/bits/basic_string.h:297:6
	cmp	r6, #0
	beq	.LBB15_12
.Ltmp683:
@ BB#9:
	@DEBUG_VALUE: _S_copy:__n <- %R6
	cmp	r6, #1
	bne	.LBB15_11
.Ltmp684:
@ BB#10:
	@DEBUG_VALUE: _S_copy:__n <- %R6
	.loc	30 243 16               @ /usr/bin/../lib/gcc/arm-linux-gnueabihf/6.3.0/../../../../include/c++/6.3.0/bits/char_traits.h:243:16
	ldrb	r1, [r7]
.Ltmp685:
	@DEBUG_VALUE: _S_copy_chars:__p <- %R0
	.loc	30 243 14 is_stmt 0     @ /usr/bin/../lib/gcc/arm-linux-gnueabihf/6.3.0/../../../../include/c++/6.3.0/bits/char_traits.h:243:14
	strb	r1, [r0]
	b	.LBB15_12
.Ltmp686:
.LBB15_11:
	@DEBUG_VALUE: _S_copy:__n <- %R6
	.loc	30 290 33 is_stmt 1     @ /usr/bin/../lib/gcc/arm-linux-gnueabihf/6.3.0/../../../../include/c++/6.3.0/bits/char_traits.h:290:33
	mov	r1, r7
	mov	r2, r6
	bl	memcpy
.Ltmp687:
.LBB15_12:
	@DEBUG_VALUE: _S_copy:__n <- %R6
	.loc	51 232 16               @ /usr/bin/../lib/gcc/arm-linux-gnueabihf/6.3.0/../../../../include/c++/6.3.0/bits/basic_string.tcc:232:16
	ldr	r0, [r11, #-112]
.Ltmp688:
	@DEBUG_VALUE: _M_set_length:__n <- %R0
	@DEBUG_VALUE: _M_length:__length <- %R0
	@DEBUG_VALUE: _M_construct<__gnu_cxx::__normal_iterator<const char *, std::__cxx11::basic_string<char> > >:__dnew <- %R0
	mov	r2, #0
.Ltmp689:
	.loc	27 132 26               @ /usr/bin/../lib/gcc/arm-linux-gnueabihf/6.3.0/../../../../include/c++/6.3.0/bits/basic_string.h:132:26
	str	r0, [r11, #-84]
.Ltmp690:
	.loc	27 136 28               @ /usr/bin/../lib/gcc/arm-linux-gnueabihf/6.3.0/../../../../include/c++/6.3.0/bits/basic_string.h:136:28
	ldr	r1, [r11, #-88]
.Ltmp691:
	.loc	30 243 14               @ /usr/bin/../lib/gcc/arm-linux-gnueabihf/6.3.0/../../../../include/c++/6.3.0/bits/char_traits.h:243:14
	strb	r2, [r1, r0]
.Ltmp692:
	.loc	27 805 16               @ /usr/bin/../lib/gcc/arm-linux-gnueabihf/6.3.0/../../../../include/c++/6.3.0/bits/basic_string.h:805:16
	ldr	r1, [r11, #-84]
.Ltmp693:
	.loc	27 1143 16 discriminator 1 @ /usr/bin/../lib/gcc/arm-linux-gnueabihf/6.3.0/../../../../include/c++/6.3.0/bits/basic_string.h:1143:16
.Ltmp609:
	mov	r0, #42
.Ltmp694:
	mov	r2, #0
	str	r0, [sp]
	sub	r0, r11, #88
.Ltmp695:
	@DEBUG_VALUE: size:this <- %R0
	@DEBUG_VALUE: append:__c <- 42
	@DEBUG_VALUE: append:__n <- 1
	@DEBUG_VALUE: append:this <- %R0
	@DEBUG_VALUE: operator+<char, std::char_traits<char>, std::allocator<char> >:__rhs <- 42
	@DEBUG_VALUE: operator+<char, std::char_traits<char>, std::allocator<char> >:__lhs <- %R0
	@DEBUG_VALUE: _M_data:this <- %R0
	@DEBUG_VALUE: _M_length:this <- %R0
	mov	r3, #1
	bl	_ZNSt7__cxx1112basic_stringIcSt11char_traitsIcESaIcEE14_M_replace_auxEjjjc
.Ltmp696:
.Ltmp610:
.Ltmp697:
@ BB#13:                                @ %.noexc117
	@DEBUG_VALUE: _S_copy:__n <- %R6
	add	r1, sp, #96
.Ltmp698:
	@DEBUG_VALUE: _M_local_data:this <- %R1
	.loc	27 142 51               @ /usr/bin/../lib/gcc/arm-linux-gnueabihf/6.3.0/../../../../include/c++/6.3.0/bits/basic_string.h:142:51
	add	r10, r1, #8
.Ltmp699:
	@DEBUG_VALUE: _M_data:this <- %R0
	.loc	27 110 25               @ /usr/bin/../lib/gcc/arm-linux-gnueabihf/6.3.0/../../../../include/c++/6.3.0/bits/basic_string.h:110:25
	str	r10, [sp, #96]
.Ltmp700:
	.loc	27 136 28               @ /usr/bin/../lib/gcc/arm-linux-gnueabihf/6.3.0/../../../../include/c++/6.3.0/bits/basic_string.h:136:28
	mov	r1, r0
.Ltmp701:
	ldr	r2, [r1], #8
.Ltmp702:
	@DEBUG_VALUE: _M_data:__p <- %R2
	@DEBUG_VALUE: _M_local_data:this <- %R0
	.loc	27 479 6 discriminator 1 @ /usr/bin/../lib/gcc/arm-linux-gnueabihf/6.3.0/../../../../include/c++/6.3.0/bits/basic_string.h:479:6
	cmp	r2, r1
.Ltmp703:
	@DEBUG_VALUE: copy:__s2 <- %R1
	@DEBUG_VALUE: _M_data:__p <- %R1
	@DEBUG_VALUE: assign:__c1 <- %R1
	beq	.LBB15_15
.Ltmp704:
@ BB#14:
	@DEBUG_VALUE: assign:__c1 <- %R1
	@DEBUG_VALUE: _M_data:__p <- %R1
	@DEBUG_VALUE: copy:__s2 <- %R1
	@DEBUG_VALUE: _M_local_data:this <- %R0
	@DEBUG_VALUE: _M_data:__p <- %R2
	@DEBUG_VALUE: _M_data:this <- %R0
	@DEBUG_VALUE: _S_copy:__n <- %R6
	@DEBUG_VALUE: _M_data:this <- %R0
	.loc	27 128 26               @ /usr/bin/../lib/gcc/arm-linux-gnueabihf/6.3.0/../../../../include/c++/6.3.0/bits/basic_string.h:128:26
	str	r2, [sp, #96]
.Ltmp705:
	.loc	27 487 24               @ /usr/bin/../lib/gcc/arm-linux-gnueabihf/6.3.0/../../../../include/c++/6.3.0/bits/basic_string.h:487:24
	ldr	r2, [r0, #8]
.Ltmp706:
	@DEBUG_VALUE: _M_capacity:__capacity <- %R2
	.loc	27 160 31               @ /usr/bin/../lib/gcc/arm-linux-gnueabihf/6.3.0/../../../../include/c++/6.3.0/bits/basic_string.h:160:31
	str	r2, [sp, #104]
	b	.LBB15_16
.Ltmp707:
.LBB15_15:
	@DEBUG_VALUE: assign:__c1 <- %R1
	@DEBUG_VALUE: _M_data:__p <- %R1
	@DEBUG_VALUE: copy:__s2 <- %R1
	@DEBUG_VALUE: _M_local_data:this <- %R0
	@DEBUG_VALUE: _M_data:__p <- %R2
	@DEBUG_VALUE: _M_data:this <- %R0
	@DEBUG_VALUE: _S_copy:__n <- %R6
	.loc	30 290 33               @ /usr/bin/../lib/gcc/arm-linux-gnueabihf/6.3.0/../../../../include/c++/6.3.0/bits/char_traits.h:290:33
	vld1.8	{d16, d17}, [r2]
.Ltmp708:
	@DEBUG_VALUE: copy:__s1 <- %R10
	vst1.8	{d16, d17}, [r10]
.Ltmp709:
	@DEBUG_VALUE: copy:__n <- 16
.LBB15_16:
	@DEBUG_VALUE: assign:__c1 <- %R1
	@DEBUG_VALUE: _M_data:__p <- %R1
	@DEBUG_VALUE: copy:__s2 <- %R1
	@DEBUG_VALUE: _M_local_data:this <- %R0
	@DEBUG_VALUE: _M_data:this <- %R0
	@DEBUG_VALUE: _S_copy:__n <- %R6
	@DEBUG_VALUE: length:this <- %R0
	.loc	27 811 16               @ /usr/bin/../lib/gcc/arm-linux-gnueabihf/6.3.0/../../../../include/c++/6.3.0/bits/basic_string.h:811:16
	ldr	r2, [r0, #4]
.Ltmp710:
	@DEBUG_VALUE: _M_data:this <- %R0
	@DEBUG_VALUE: _M_length:__length <- %R2
	.loc	27 132 26               @ /usr/bin/../lib/gcc/arm-linux-gnueabihf/6.3.0/../../../../include/c++/6.3.0/bits/basic_string.h:132:26
	str	r2, [sp, #100]
	mov	r2, #0
.Ltmp711:
	@DEBUG_VALUE: _M_data:this <- %R0
	@DEBUG_VALUE: _M_length:__length <- 0
	@DEBUG_VALUE: _M_set_length:__n <- 0
	.loc	27 128 26               @ /usr/bin/../lib/gcc/arm-linux-gnueabihf/6.3.0/../../../../include/c++/6.3.0/bits/basic_string.h:128:26
	stm	r0, {r1, r2}
.Ltmp712:
	.loc	30 243 14               @ /usr/bin/../lib/gcc/arm-linux-gnueabihf/6.3.0/../../../../include/c++/6.3.0/bits/char_traits.h:243:14
	strb	r2, [r0, #8]
	sub	r0, r11, #112
.Ltmp713:
	@DEBUG_VALUE: size:this <- %R8
	@DEBUG_VALUE: _M_construct<__gnu_cxx::__normal_iterator<const char *, std::__cxx11::basic_string<char> > >:this <- %R0
	@DEBUG_VALUE: _M_data:this <- %R8
	@DEBUG_VALUE: _M_construct_aux<__gnu_cxx::__normal_iterator<const char *, std::__cxx11::basic_string<char> > >:this <- %R0
	@DEBUG_VALUE: _M_construct<__gnu_cxx::__normal_iterator<const char *, std::__cxx11::basic_string<char> > >:this <- %R0
	@DEBUG_VALUE: _M_local_data:this <- %R0
	@DEBUG_VALUE: basic_string<__gnu_cxx::__normal_iterator<const char *, std::__cxx11::basic_string<char> >, void>:this <- %R0
	.loc	27 805 16               @ /usr/bin/../lib/gcc/arm-linux-gnueabihf/6.3.0/../../../../include/c++/6.3.0/bits/basic_string.h:805:16
	ldr	r1, [r8, #4]
.Ltmp714:
	.loc	27 142 51               @ /usr/bin/../lib/gcc/arm-linux-gnueabihf/6.3.0/../../../../include/c++/6.3.0/bits/basic_string.h:142:51
	add	r0, r0, #8
.Ltmp715:
	.loc	27 136 28               @ /usr/bin/../lib/gcc/arm-linux-gnueabihf/6.3.0/../../../../include/c++/6.3.0/bits/basic_string.h:136:28
	ldr	r5, [r8]
.Ltmp716:
	.loc	7 962 27                @ /usr/bin/../lib/gcc/arm-linux-gnueabihf/6.3.0/../../../../include/c++/6.3.0/bits/stl_iterator.h:962:27
	sub	r7, r1, r6
.Ltmp717:
	@DEBUG_VALUE: _M_construct<__gnu_cxx::__normal_iterator<const char *, std::__cxx11::basic_string<char> > >:__dnew <- %R7
	@DEBUG_VALUE: _S_copy:__n <- %R7
	.loc	27 110 25               @ /usr/bin/../lib/gcc/arm-linux-gnueabihf/6.3.0/../../../../include/c++/6.3.0/bits/basic_string.h:110:25
	str	r0, [r11, #-112]
.Ltmp718:
	.loc	51 215 12               @ /usr/bin/../lib/gcc/arm-linux-gnueabihf/6.3.0/../../../../include/c++/6.3.0/bits/basic_string.tcc:215:12
	str	r7, [sp, #72]
	.loc	51 217 6                @ /usr/bin/../lib/gcc/arm-linux-gnueabihf/6.3.0/../../../../include/c++/6.3.0/bits/basic_string.tcc:217:6
	cmp	r7, #15
	str	r0, [sp, #16]           @ 4-byte Spill
	bls	.LBB15_19
.Ltmp719:
@ BB#17:                                @ %.noexc.i124
	@DEBUG_VALUE: _S_copy:__n <- %R7
	@DEBUG_VALUE: _M_construct<__gnu_cxx::__normal_iterator<const char *, std::__cxx11::basic_string<char> > >:__dnew <- %R7
	@DEBUG_VALUE: _M_data:this <- %R8
	@DEBUG_VALUE: size:this <- %R8
	@DEBUG_VALUE: _S_copy:__n <- %R6
	.loc	51 219 14               @ /usr/bin/../lib/gcc/arm-linux-gnueabihf/6.3.0/../../../../include/c++/6.3.0/bits/basic_string.tcc:219:14
.Ltmp612:
	sub	r0, r11, #112
	add	r1, sp, #72
.Ltmp720:
	@DEBUG_VALUE: _M_construct<__gnu_cxx::__normal_iterator<const char *, std::__cxx11::basic_string<char> > >:__dnew <- [%R1+0]
	mov	r2, #0
	bl	_ZNSt7__cxx1112basic_stringIcSt11char_traitsIcESaIcEE9_M_createERjj
.Ltmp721:
.Ltmp613:
.Ltmp722:
@ BB#18:                                @ %.noexc126
	@DEBUG_VALUE: _S_copy:__n <- %R7
	@DEBUG_VALUE: _M_data:this <- %R8
	@DEBUG_VALUE: size:this <- %R8
	@DEBUG_VALUE: _S_copy:__n <- %R6
	@DEBUG_VALUE: _M_data:__p <- %R0
	.loc	51 220 18               @ /usr/bin/../lib/gcc/arm-linux-gnueabihf/6.3.0/../../../../include/c++/6.3.0/bits/basic_string.tcc:220:18
	ldr	r1, [sp, #72]
.Ltmp723:
	@DEBUG_VALUE: _M_capacity:__capacity <- %R1
	@DEBUG_VALUE: _M_construct<__gnu_cxx::__normal_iterator<const char *, std::__cxx11::basic_string<char> > >:__dnew <- %R1
	.loc	27 128 26               @ /usr/bin/../lib/gcc/arm-linux-gnueabihf/6.3.0/../../../../include/c++/6.3.0/bits/basic_string.h:128:26
	str	r0, [r11, #-112]
.Ltmp724:
	.loc	27 160 31               @ /usr/bin/../lib/gcc/arm-linux-gnueabihf/6.3.0/../../../../include/c++/6.3.0/bits/basic_string.h:160:31
	str	r1, [r11, #-104]
.Ltmp725:
.LBB15_19:
	@DEBUG_VALUE: _S_copy:__n <- %R7
	@DEBUG_VALUE: _M_data:this <- %R8
	@DEBUG_VALUE: size:this <- %R8
	@DEBUG_VALUE: _S_copy:__n <- %R6
	.loc	27 297 6                @ /usr/bin/../lib/gcc/arm-linux-gnueabihf/6.3.0/../../../../include/c++/6.3.0/bits/basic_string.h:297:6
	cmp	r7, #0
	beq	.LBB15_23
.Ltmp726:
@ BB#20:
	@DEBUG_VALUE: _S_copy:__n <- %R7
	@DEBUG_VALUE: _M_data:this <- %R8
	@DEBUG_VALUE: size:this <- %R8
	@DEBUG_VALUE: _S_copy:__n <- %R6
	.loc	7 830 45                @ /usr/bin/../lib/gcc/arm-linux-gnueabihf/6.3.0/../../../../include/c++/6.3.0/bits/stl_iterator.h:830:45
	add	r1, r5, r6
.Ltmp727:
	@DEBUG_VALUE: _S_copy_chars:__k1 <- %R1
	@DEBUG_VALUE: _S_copy:__s <- %R1
	@DEBUG_VALUE: assign:__c2 <- %R1
	cmp	r7, #1
	bne	.LBB15_22
.Ltmp728:
@ BB#21:
	@DEBUG_VALUE: assign:__c2 <- %R1
	@DEBUG_VALUE: _S_copy:__s <- %R1
	@DEBUG_VALUE: _S_copy_chars:__k1 <- %R1
	@DEBUG_VALUE: _S_copy:__n <- %R7
	@DEBUG_VALUE: _M_data:this <- %R8
	@DEBUG_VALUE: size:this <- %R8
	@DEBUG_VALUE: _S_copy:__n <- %R6
	.loc	30 243 16               @ /usr/bin/../lib/gcc/arm-linux-gnueabihf/6.3.0/../../../../include/c++/6.3.0/bits/char_traits.h:243:16
	ldrb	r1, [r1]
.Ltmp729:
	.loc	30 243 14 is_stmt 0     @ /usr/bin/../lib/gcc/arm-linux-gnueabihf/6.3.0/../../../../include/c++/6.3.0/bits/char_traits.h:243:14
	strb	r1, [r0]
.Ltmp730:
	@DEBUG_VALUE: _S_copy_chars:__p <- %R0
	b	.LBB15_23
.Ltmp731:
.LBB15_22:
	@DEBUG_VALUE: assign:__c2 <- %R1
	@DEBUG_VALUE: _S_copy:__s <- %R1
	@DEBUG_VALUE: _S_copy_chars:__k1 <- %R1
	@DEBUG_VALUE: _S_copy:__n <- %R7
	@DEBUG_VALUE: _M_data:this <- %R8
	@DEBUG_VALUE: size:this <- %R8
	@DEBUG_VALUE: _S_copy:__n <- %R6
	.loc	30 290 33 is_stmt 1     @ /usr/bin/../lib/gcc/arm-linux-gnueabihf/6.3.0/../../../../include/c++/6.3.0/bits/char_traits.h:290:33
	mov	r2, r7
	bl	memcpy
.Ltmp732:
.LBB15_23:
	@DEBUG_VALUE: _S_copy:__n <- %R7
	@DEBUG_VALUE: _M_data:this <- %R8
	@DEBUG_VALUE: size:this <- %R8
	@DEBUG_VALUE: _S_copy:__n <- %R6
	.loc	51 232 16               @ /usr/bin/../lib/gcc/arm-linux-gnueabihf/6.3.0/../../../../include/c++/6.3.0/bits/basic_string.tcc:232:16
	ldr	r0, [sp, #72]
.Ltmp733:
	@DEBUG_VALUE: _M_set_length:__n <- %R0
	@DEBUG_VALUE: _M_length:__length <- %R0
	@DEBUG_VALUE: _M_construct<__gnu_cxx::__normal_iterator<const char *, std::__cxx11::basic_string<char> > >:__dnew <- %R0
	mov	r2, #0
.Ltmp734:
	.loc	27 132 26               @ /usr/bin/../lib/gcc/arm-linux-gnueabihf/6.3.0/../../../../include/c++/6.3.0/bits/basic_string.h:132:26
	str	r0, [r11, #-108]
.Ltmp735:
	.loc	27 136 28               @ /usr/bin/../lib/gcc/arm-linux-gnueabihf/6.3.0/../../../../include/c++/6.3.0/bits/basic_string.h:136:28
	ldr	r1, [r11, #-112]
.Ltmp736:
	.loc	30 243 14               @ /usr/bin/../lib/gcc/arm-linux-gnueabihf/6.3.0/../../../../include/c++/6.3.0/bits/char_traits.h:243:14
	strb	r2, [r1, r0]
.Ltmp737:
	.loc	27 805 16               @ /usr/bin/../lib/gcc/arm-linux-gnueabihf/6.3.0/../../../../include/c++/6.3.0/bits/basic_string.h:805:16
	ldr	r0, [sp, #100]
.Ltmp738:
	.loc	27 805 16 is_stmt 0     @ /usr/bin/../lib/gcc/arm-linux-gnueabihf/6.3.0/../../../../include/c++/6.3.0/bits/basic_string.h:805:16
	ldr	r2, [r11, #-108]
.Ltmp739:
	.loc	27 136 28 is_stmt 1     @ /usr/bin/../lib/gcc/arm-linux-gnueabihf/6.3.0/../../../../include/c++/6.3.0/bits/basic_string.h:136:28
	ldr	r3, [sp, #96]
.Ltmp740:
	.loc	27 136 28 is_stmt 0     @ /usr/bin/../lib/gcc/arm-linux-gnueabihf/6.3.0/../../../../include/c++/6.3.0/bits/basic_string.h:136:28
	ldr	r1, [r11, #-112]
.Ltmp741:
	.loc	27 5024 40 is_stmt 1    @ /usr/bin/../lib/gcc/arm-linux-gnueabihf/6.3.0/../../../../include/c++/6.3.0/bits/basic_string.h:5024:40
	add	r7, r2, r0
.Ltmp742:
	@DEBUG_VALUE: operator+<char, std::char_traits<char>, std::allocator<char> >:__size <- %R7
	.loc	27 870 25               @ /usr/bin/../lib/gcc/arm-linux-gnueabihf/6.3.0/../../../../include/c++/6.3.0/bits/basic_string.h:870:25
	ldr	r5, [sp, #104]
	.loc	27 869 9 discriminator 1 @ /usr/bin/../lib/gcc/arm-linux-gnueabihf/6.3.0/../../../../include/c++/6.3.0/bits/basic_string.h:869:9
	cmp	r3, r10
	movweq	r5, #15
.Ltmp743:
	.loc	27 5026 7               @ /usr/bin/../lib/gcc/arm-linux-gnueabihf/6.3.0/../../../../include/c++/6.3.0/bits/basic_string.h:5026:7
	cmp	r7, r5
	bls	.LBB15_25
.Ltmp744:
@ BB#24:                                @ %_ZNKSt7__cxx1112basic_stringIcSt11char_traitsIcESaIcEE8capacityEv.exit11.i
	@DEBUG_VALUE: operator+<char, std::char_traits<char>, std::allocator<char> >:__size <- %R7
	@DEBUG_VALUE: _M_data:this <- %R8
	@DEBUG_VALUE: size:this <- %R8
	@DEBUG_VALUE: _S_copy:__n <- %R6
	mov	r12, r4
.Ltmp745:
	.loc	27 869 9 discriminator 1 @ /usr/bin/../lib/gcc/arm-linux-gnueabihf/6.3.0/../../../../include/c++/6.3.0/bits/basic_string.h:869:9
	ldr	r4, [sp, #16]           @ 4-byte Reload
	.loc	27 870 25               @ /usr/bin/../lib/gcc/arm-linux-gnueabihf/6.3.0/../../../../include/c++/6.3.0/bits/basic_string.h:870:25
	ldr	r5, [r11, #-104]
	.loc	27 869 9 discriminator 1 @ /usr/bin/../lib/gcc/arm-linux-gnueabihf/6.3.0/../../../../include/c++/6.3.0/bits/basic_string.h:869:9
	cmp	r1, r4
	mov	r4, r12
	movweq	r5, #15
.Ltmp746:
	.loc	27 5027 14              @ /usr/bin/../lib/gcc/arm-linux-gnueabihf/6.3.0/../../../../include/c++/6.3.0/bits/basic_string.h:5027:14
	cmp	r7, r5
	bls	.LBB15_26
.Ltmp747:
.LBB15_25:                              @ %.critedge.i
	@DEBUG_VALUE: operator+<char, std::char_traits<char>, std::allocator<char> >:__size <- %R7
	@DEBUG_VALUE: _M_data:this <- %R8
	@DEBUG_VALUE: size:this <- %R8
	@DEBUG_VALUE: _S_copy:__n <- %R6
	.loc	27 1084 16 discriminator 2 @ /usr/bin/../lib/gcc/arm-linux-gnueabihf/6.3.0/../../../../include/c++/6.3.0/bits/basic_string.h:1084:16
.Ltmp617:
	add	r0, sp, #96
.Ltmp748:
	@DEBUG_VALUE: append:this <- %R0
	bl	_ZNSt7__cxx1112basic_stringIcSt11char_traitsIcESaIcEE9_M_appendEPKcj
.Ltmp749:
.Ltmp618:
	b	.LBB15_27
.Ltmp750:
.LBB15_26:
	@DEBUG_VALUE: operator+<char, std::char_traits<char>, std::allocator<char> >:__size <- %R7
	@DEBUG_VALUE: _M_data:this <- %R8
	@DEBUG_VALUE: size:this <- %R8
	@DEBUG_VALUE: _S_copy:__n <- %R6
	.loc	27 1687 9 discriminator 1 @ /usr/bin/../lib/gcc/arm-linux-gnueabihf/6.3.0/../../../../include/c++/6.3.0/bits/basic_string.h:1687:9
.Ltmp615:
.Ltmp751:
	@DEBUG_VALUE: insert:__pos1 <- 0
	@DEBUG_VALUE: replace:__pos <- 0
	@DEBUG_VALUE: replace:__n1 <- 0
	str	r0, [sp]
	sub	r0, r11, #112
.Ltmp752:
	@DEBUG_VALUE: size:this <- %R0
	mov	r1, #0
	mov	r2, #0
	bl	_ZNSt7__cxx1112basic_stringIcSt11char_traitsIcESaIcEE10_M_replaceEjjPKcj
.Ltmp753:
.Ltmp616:
.Ltmp754:
.LBB15_27:                              @ %.noexc128
	@DEBUG_VALUE: operator+<char, std::char_traits<char>, std::allocator<char> >:__size <- %R7
	@DEBUG_VALUE: _M_data:this <- %R8
	@DEBUG_VALUE: size:this <- %R8
	@DEBUG_VALUE: _S_copy:__n <- %R6
	sub	r1, r11, #64
.Ltmp755:
	@DEBUG_VALUE: _M_local_data:this <- %R1
	.loc	27 142 51               @ /usr/bin/../lib/gcc/arm-linux-gnueabihf/6.3.0/../../../../include/c++/6.3.0/bits/basic_string.h:142:51
	add	r5, r1, #8
.Ltmp756:
	.loc	27 110 25               @ /usr/bin/../lib/gcc/arm-linux-gnueabihf/6.3.0/../../../../include/c++/6.3.0/bits/basic_string.h:110:25
	str	r5, [r11, #-64]
.Ltmp757:
	.loc	27 136 28               @ /usr/bin/../lib/gcc/arm-linux-gnueabihf/6.3.0/../../../../include/c++/6.3.0/bits/basic_string.h:136:28
	mov	r1, r0
.Ltmp758:
	ldr	r2, [r1], #8
.Ltmp759:
	@DEBUG_VALUE: _M_data:__p <- %R2
	.loc	27 479 6 discriminator 1 @ /usr/bin/../lib/gcc/arm-linux-gnueabihf/6.3.0/../../../../include/c++/6.3.0/bits/basic_string.h:479:6
	cmp	r2, r1
.Ltmp760:
	@DEBUG_VALUE: copy:__s2 <- %R1
	@DEBUG_VALUE: _M_data:__p <- %R1
	@DEBUG_VALUE: assign:__c1 <- %R1
	@DEBUG_VALUE: basic_string:__str <- %R0
	beq	.LBB15_29
.Ltmp761:
@ BB#28:
	@DEBUG_VALUE: basic_string:__str <- %R0
	@DEBUG_VALUE: assign:__c1 <- %R1
	@DEBUG_VALUE: _M_data:__p <- %R1
	@DEBUG_VALUE: copy:__s2 <- %R1
	@DEBUG_VALUE: _M_data:__p <- %R2
	@DEBUG_VALUE: operator+<char, std::char_traits<char>, std::allocator<char> >:__size <- %R7
	@DEBUG_VALUE: _M_data:this <- %R8
	@DEBUG_VALUE: size:this <- %R8
	@DEBUG_VALUE: _S_copy:__n <- %R6
	.loc	27 128 26               @ /usr/bin/../lib/gcc/arm-linux-gnueabihf/6.3.0/../../../../include/c++/6.3.0/bits/basic_string.h:128:26
	str	r2, [r11, #-64]
.Ltmp762:
	.loc	27 487 24               @ /usr/bin/../lib/gcc/arm-linux-gnueabihf/6.3.0/../../../../include/c++/6.3.0/bits/basic_string.h:487:24
	ldr	r2, [r0, #8]
.Ltmp763:
	@DEBUG_VALUE: _M_capacity:__capacity <- %R2
	.loc	27 160 31               @ /usr/bin/../lib/gcc/arm-linux-gnueabihf/6.3.0/../../../../include/c++/6.3.0/bits/basic_string.h:160:31
	str	r2, [r11, #-56]
	b	.LBB15_30
.Ltmp764:
.LBB15_29:
	@DEBUG_VALUE: basic_string:__str <- %R0
	@DEBUG_VALUE: assign:__c1 <- %R1
	@DEBUG_VALUE: _M_data:__p <- %R1
	@DEBUG_VALUE: copy:__s2 <- %R1
	@DEBUG_VALUE: _M_data:__p <- %R2
	@DEBUG_VALUE: operator+<char, std::char_traits<char>, std::allocator<char> >:__size <- %R7
	@DEBUG_VALUE: _M_data:this <- %R8
	@DEBUG_VALUE: size:this <- %R8
	@DEBUG_VALUE: _S_copy:__n <- %R6
	.loc	30 290 33               @ /usr/bin/../lib/gcc/arm-linux-gnueabihf/6.3.0/../../../../include/c++/6.3.0/bits/char_traits.h:290:33
	vld1.8	{d16, d17}, [r2]
.Ltmp765:
	@DEBUG_VALUE: copy:__s1 <- %R5
	vst1.8	{d16, d17}, [r5]
.Ltmp766:
	@DEBUG_VALUE: copy:__n <- 16
.LBB15_30:
	@DEBUG_VALUE: basic_string:__str <- %R0
	@DEBUG_VALUE: assign:__c1 <- %R1
	@DEBUG_VALUE: _M_data:__p <- %R1
	@DEBUG_VALUE: copy:__s2 <- %R1
	@DEBUG_VALUE: operator+<char, std::char_traits<char>, std::allocator<char> >:__size <- %R7
	@DEBUG_VALUE: _M_data:this <- %R8
	@DEBUG_VALUE: size:this <- %R8
	@DEBUG_VALUE: _S_copy:__n <- %R6
	.loc	27 811 16               @ /usr/bin/../lib/gcc/arm-linux-gnueabihf/6.3.0/../../../../include/c++/6.3.0/bits/basic_string.h:811:16
	ldr	r2, [r0, #4]
.Ltmp767:
	@DEBUG_VALUE: _M_length:__length <- %R2
	.loc	27 132 26               @ /usr/bin/../lib/gcc/arm-linux-gnueabihf/6.3.0/../../../../include/c++/6.3.0/bits/basic_string.h:132:26
	str	r2, [r11, #-60]
	mov	r2, #0
.Ltmp768:
	@DEBUG_VALUE: _M_length:__length <- 0
	@DEBUG_VALUE: _M_set_length:__n <- 0
	.loc	27 128 26               @ /usr/bin/../lib/gcc/arm-linux-gnueabihf/6.3.0/../../../../include/c++/6.3.0/bits/basic_string.h:128:26
	stm	r0, {r1, r2}
.Ltmp769:
	.loc	30 243 14               @ /usr/bin/../lib/gcc/arm-linux-gnueabihf/6.3.0/../../../../include/c++/6.3.0/bits/char_traits.h:243:14
	strb	r2, [r0, #8]
.Ltmp770:
	.loc	27 136 28               @ /usr/bin/../lib/gcc/arm-linux-gnueabihf/6.3.0/../../../../include/c++/6.3.0/bits/basic_string.h:136:28
	ldr	r0, [r11, #-112]
.Ltmp771:
	@DEBUG_VALUE: deallocate:__p <- %R0
	@DEBUG_VALUE: deallocate:__p <- %R0
	.loc	27 180 6                @ /usr/bin/../lib/gcc/arm-linux-gnueabihf/6.3.0/../../../../include/c++/6.3.0/bits/basic_string.h:180:6
	ldr	r1, [sp, #16]           @ 4-byte Reload
.Ltmp772:
	cmp	r0, r1
	beq	.LBB15_32
.Ltmp773:
@ BB#31:
	@DEBUG_VALUE: deallocate:__p <- %R0
	@DEBUG_VALUE: deallocate:__p <- %R0
	@DEBUG_VALUE: operator+<char, std::char_traits<char>, std::allocator<char> >:__size <- %R7
	@DEBUG_VALUE: _M_data:this <- %R8
	@DEBUG_VALUE: size:this <- %R8
	@DEBUG_VALUE: _S_copy:__n <- %R6
	.loc	10 110 9                @ /usr/bin/../lib/gcc/arm-linux-gnueabihf/6.3.0/../../../../include/c++/6.3.0/ext/new_allocator.h:110:9
	bl	_ZdlPv
.Ltmp774:
.LBB15_32:                              @ %_ZNSt7__cxx1112basic_stringIcSt11char_traitsIcESaIcEED2Ev.exit130
	@DEBUG_VALUE: operator+<char, std::char_traits<char>, std::allocator<char> >:__size <- %R7
	@DEBUG_VALUE: _M_data:this <- %R8
	@DEBUG_VALUE: size:this <- %R8
	@DEBUG_VALUE: _S_copy:__n <- %R6
	.loc	27 136 28               @ /usr/bin/../lib/gcc/arm-linux-gnueabihf/6.3.0/../../../../include/c++/6.3.0/bits/basic_string.h:136:28
	ldr	r0, [sp, #96]
.Ltmp775:
	@DEBUG_VALUE: deallocate:__p <- %R0
	@DEBUG_VALUE: deallocate:__p <- %R0
	.loc	27 180 6                @ /usr/bin/../lib/gcc/arm-linux-gnueabihf/6.3.0/../../../../include/c++/6.3.0/bits/basic_string.h:180:6
	cmp	r0, r10
	beq	.LBB15_34
.Ltmp776:
@ BB#33:
	@DEBUG_VALUE: deallocate:__p <- %R0
	@DEBUG_VALUE: deallocate:__p <- %R0
	@DEBUG_VALUE: operator+<char, std::char_traits<char>, std::allocator<char> >:__size <- %R7
	@DEBUG_VALUE: _M_data:this <- %R8
	@DEBUG_VALUE: size:this <- %R8
	@DEBUG_VALUE: _S_copy:__n <- %R6
	.loc	10 110 9                @ /usr/bin/../lib/gcc/arm-linux-gnueabihf/6.3.0/../../../../include/c++/6.3.0/ext/new_allocator.h:110:9
	bl	_ZdlPv
.Ltmp777:
.LBB15_34:                              @ %_ZNSt7__cxx1112basic_stringIcSt11char_traitsIcESaIcEED2Ev.exit131
	@DEBUG_VALUE: operator+<char, std::char_traits<char>, std::allocator<char> >:__size <- %R7
	@DEBUG_VALUE: _M_data:this <- %R8
	@DEBUG_VALUE: size:this <- %R8
	@DEBUG_VALUE: _S_copy:__n <- %R6
	.loc	27 136 28               @ /usr/bin/../lib/gcc/arm-linux-gnueabihf/6.3.0/../../../../include/c++/6.3.0/bits/basic_string.h:136:28
	ldr	r0, [r11, #-88]
.Ltmp778:
	@DEBUG_VALUE: deallocate:__p <- %R0
	@DEBUG_VALUE: deallocate:__p <- %R0
	str	r8, [sp, #20]           @ 4-byte Spill
.Ltmp779:
	.loc	27 180 6                @ /usr/bin/../lib/gcc/arm-linux-gnueabihf/6.3.0/../../../../include/c++/6.3.0/bits/basic_string.h:180:6
	cmp	r0, r9
	beq	.LBB15_36
.Ltmp780:
@ BB#35:
	@DEBUG_VALUE: deallocate:__p <- %R0
	@DEBUG_VALUE: deallocate:__p <- %R0
	@DEBUG_VALUE: operator+<char, std::char_traits<char>, std::allocator<char> >:__size <- %R7
	@DEBUG_VALUE: _M_data:this <- %R8
	@DEBUG_VALUE: size:this <- %R8
	@DEBUG_VALUE: _S_copy:__n <- %R6
	.loc	10 110 9                @ /usr/bin/../lib/gcc/arm-linux-gnueabihf/6.3.0/../../../../include/c++/6.3.0/ext/new_allocator.h:110:9
	bl	_ZdlPv
.Ltmp781:
.LBB15_36:                              @ %_ZNSt7__cxx1112basic_stringIcSt11char_traitsIcESaIcEED2Ev.exit132
	@DEBUG_VALUE: operator+<char, std::char_traits<char>, std::allocator<char> >:__size <- %R7
	@DEBUG_VALUE: _M_data:this <- %R8
	@DEBUG_VALUE: size:this <- %R8
	@DEBUG_VALUE: _S_copy:__n <- %R6
	.loc	27 136 28               @ /usr/bin/../lib/gcc/arm-linux-gnueabihf/6.3.0/../../../../include/c++/6.3.0/bits/basic_string.h:136:28
	ldr	r0, [r11, #-64]
	add	r3, sp, #96
.Ltmp782:
	@DEBUG_VALUE: generateUniqueFilename:globbuf <- [%R3+0]
	.loc	23 136 2 is_stmt 0 discriminator 1 @ /root/Bela/projects/board_6/WriteFile.cpp:136:2
	mov	r1, #0
	mov	r2, #0
	str	r4, [sp, #12]           @ 4-byte Spill
	mov	r4, #0
	str	r5, [sp, #8]            @ 4-byte Spill
	bl	glob
.Ltmp783:
	@DEBUG_VALUE: i <- 0
	@DEBUG_VALUE: generateUniqueFilename:originalFree <- 1
	@DEBUG_VALUE: generateUniqueFilename:logMax <- -1
	.loc	23 142 38 is_stmt 1 discriminator 1 @ /root/Bela/projects/board_6/WriteFile.cpp:142:38
	ldr	r9, [sp, #96]
	.loc	23 142 2 is_stmt 0 discriminator 1 @ /root/Bela/projects/board_6/WriteFile.cpp:142:2
	cmp	r9, #0
	beq	.LBB15_43
.Ltmp784:
@ BB#37:                                @ %.lr.ph
	@DEBUG_VALUE: operator+<char, std::char_traits<char>, std::allocator<char> >:__size <- %R7
	@DEBUG_VALUE: _M_data:this <- %R8
	@DEBUG_VALUE: size:this <- %R8
	@DEBUG_VALUE: _S_copy:__n <- %R6
	.loc	23 146 16 is_stmt 1     @ /root/Bela/projects/board_6/WriteFile.cpp:146:16
	add	r8, r6, #1
.Ltmp785:
	mov	r5, #1
	mvn	r10, #0
.Ltmp786:
.LBB15_38:                              @ =>This Inner Loop Header: Depth=1
	.loc	23 144 30               @ /root/Bela/projects/board_6/WriteFile.cpp:144:30
	ldr	r0, [sp, #100]
	.loc	23 144 22 is_stmt 0     @ /root/Bela/projects/board_6/WriteFile.cpp:144:22
	ldr	r7, [r0, r4, lsl #2]
.Ltmp787:
	@DEBUG_VALUE: path <- %R7
	.loc	23 145 16 is_stmt 1 discriminator 1 @ /root/Bela/projects/board_6/WriteFile.cpp:145:16
	mov	r0, r7
	bl	strlen
.Ltmp788:
	@DEBUG_VALUE: len <- %R0
	.loc	23 146 6                @ /root/Bela/projects/board_6/WriteFile.cpp:146:6
	cmp	r0, r8
	blo	.LBB15_42
.Ltmp789:
@ BB#39:                                @   in Loop: Header=BB15_38 Depth=1
	@DEBUG_VALUE: len <- %R0
	@DEBUG_VALUE: path <- %R7
	.loc	23 148 13               @ /root/Bela/projects/board_6/WriteFile.cpp:148:13
	mov	r0, r7
.Ltmp790:
	ldrb	r1, [r0, r6]!
.Ltmp791:
	.loc	23 148 6 is_stmt 0      @ /root/Bela/projects/board_6/WriteFile.cpp:148:6
	cmp	r1, #43
	bne	.LBB15_41
.Ltmp792:
@ BB#40:                                @   in Loop: Header=BB15_38 Depth=1
	@DEBUG_VALUE: path <- %R7
	.loc	23 155 34 is_stmt 1     @ /root/Bela/projects/board_6/WriteFile.cpp:155:34
	add	r0, r0, #1
.Ltmp793:
	@DEBUG_VALUE: atoi:__nptr <- %R0
	@DEBUG_VALUE: start <- %R0
	.loc	39 241 16               @ /usr/include/stdlib.h:241:16
	mov	r1, #0
	mov	r2, #10
	bl	strtol
.Ltmp794:
	@DEBUG_VALUE: generateUniqueFilename:logNum <- %R0
	@DEBUG_VALUE: generateUniqueFilename:logMax <- %R0
	.loc	23 142 38 discriminator 1 @ /root/Bela/projects/board_6/WriteFile.cpp:142:38
	ldr	r9, [sp, #96]
.Ltmp795:
	.loc	23 157 6                @ /root/Bela/projects/board_6/WriteFile.cpp:157:6
	cmp	r0, r10
	movgt	r10, r0
	b	.LBB15_42
.Ltmp796:
.LBB15_41:                              @   in Loop: Header=BB15_38 Depth=1
	@DEBUG_VALUE: path <- %R7
	.loc	27 136 28               @ /usr/bin/../lib/gcc/arm-linux-gnueabihf/6.3.0/../../../../include/c++/6.3.0/bits/basic_string.h:136:28
	ldr	r0, [sp, #20]           @ 4-byte Reload
.Ltmp797:
	.loc	23 151 12 discriminator 1 @ /root/Bela/projects/board_6/WriteFile.cpp:151:12
	mov	r1, r7
.Ltmp798:
	.loc	27 136 28               @ /usr/bin/../lib/gcc/arm-linux-gnueabihf/6.3.0/../../../../include/c++/6.3.0/bits/basic_string.h:136:28
	ldr	r0, [r0]
.Ltmp799:
	.loc	23 151 12 discriminator 1 @ /root/Bela/projects/board_6/WriteFile.cpp:151:12
	bl	strcmp
.Ltmp800:
	@DEBUG_VALUE: generateUniqueFilename:originalFree <- 0
	.loc	23 151 7 is_stmt 0      @ /root/Bela/projects/board_6/WriteFile.cpp:151:7
	cmp	r0, #0
	movwne	r0, #1
	and	r5, r5, r0
.Ltmp801:
.LBB15_42:                              @   in Loop: Header=BB15_38 Depth=1
	@DEBUG_VALUE: path <- %R7
	.loc	23 142 48 is_stmt 1 discriminator 3 @ /root/Bela/projects/board_6/WriteFile.cpp:142:48
	add	r4, r4, #1
.Ltmp802:
	@DEBUG_VALUE: i <- %R4
	.loc	23 142 2 is_stmt 0 discriminator 1 @ /root/Bela/projects/board_6/WriteFile.cpp:142:2
	cmp	r4, r9
	blo	.LBB15_38
	b	.LBB15_44
.Ltmp803:
.LBB15_43:
	@DEBUG_VALUE: operator+<char, std::char_traits<char>, std::allocator<char> >:__size <- %R7
	@DEBUG_VALUE: _M_data:this <- %R8
	@DEBUG_VALUE: size:this <- %R8
	@DEBUG_VALUE: _S_copy:__n <- %R6
	mvn	r10, #0
	mov	r5, #1
.Ltmp804:
.LBB15_44:                              @ %._crit_edge
	add	r0, sp, #96
.Ltmp805:
	@DEBUG_VALUE: generateUniqueFilename:globbuf <- [%R0+0]
	.loc	23 160 2 is_stmt 1      @ /root/Bela/projects/board_6/WriteFile.cpp:160:2
	bl	globfree
.Ltmp806:
	.loc	23 161 18               @ /root/Bela/projects/board_6/WriteFile.cpp:161:18
	cmn	r10, #1
	eoreq	r0, r5, #1
	tsteq	r0, #1
	bne	.LBB15_53
@ BB#45:
	ldr	r4, [sp, #12]           @ 4-byte Reload
	ldr	r1, [sp, #20]           @ 4-byte Reload
.Ltmp807:
	@DEBUG_VALUE: length:this <- %R1
	@DEBUG_VALUE: _M_data:this <- %R1
	.loc	27 142 51               @ /usr/bin/../lib/gcc/arm-linux-gnueabihf/6.3.0/../../../../include/c++/6.3.0/bits/basic_string.h:142:51
	add	r0, r4, #8
.Ltmp808:
	@DEBUG_VALUE: _M_local_data:this <- %R4
	@DEBUG_VALUE: _M_data:this <- [%SP+20]
	.loc	27 110 25               @ /usr/bin/../lib/gcc/arm-linux-gnueabihf/6.3.0/../../../../include/c++/6.3.0/bits/basic_string.h:110:25
	str	r0, [r4]
.Ltmp809:
	@DEBUG_VALUE: _M_construct<char *>:__dnew <- %R5
	@DEBUG_VALUE: _S_copy:__n <- %R5
	@DEBUG_VALUE: length:this <- [%SP+20]
	@DEBUG_VALUE: _M_construct<char *>:__beg <- %R6
	@DEBUG_VALUE: _M_construct_aux<char *>:__beg <- %R6
	@DEBUG_VALUE: _M_construct<char *>:__beg <- %R6
	@DEBUG_VALUE: _S_copy_chars:__k1 <- %R6
	@DEBUG_VALUE: _S_copy:__s <- %R6
	@DEBUG_VALUE: assign:__c2 <- %R6
	.loc	27 136 28               @ /usr/bin/../lib/gcc/arm-linux-gnueabihf/6.3.0/../../../../include/c++/6.3.0/bits/basic_string.h:136:28
	ldr	r6, [r1]
.Ltmp810:
	.loc	27 811 16               @ /usr/bin/../lib/gcc/arm-linux-gnueabihf/6.3.0/../../../../include/c++/6.3.0/bits/basic_string.h:811:16
	ldr	r5, [r1, #4]
.Ltmp811:
	.loc	51 211 42               @ /usr/bin/../lib/gcc/arm-linux-gnueabihf/6.3.0/../../../../include/c++/6.3.0/bits/basic_string.tcc:211:42
	cmp	r6, #0
	bne	.LBB15_47
.Ltmp812:
@ BB#46:
	@DEBUG_VALUE: length:this <- [%SP+20]
	@DEBUG_VALUE: _M_data:this <- [%SP+20]
	@DEBUG_VALUE: _M_local_data:this <- %R4
	cmp	r5, #0
	bne	.LBB15_104
.Ltmp813:
.LBB15_47:
	@DEBUG_VALUE: length:this <- [%SP+20]
	@DEBUG_VALUE: _M_data:this <- [%SP+20]
	@DEBUG_VALUE: _M_local_data:this <- %R4
	.loc	51 215 12               @ /usr/bin/../lib/gcc/arm-linux-gnueabihf/6.3.0/../../../../include/c++/6.3.0/bits/basic_string.tcc:215:12
	str	r5, [r11, #-88]
	.loc	51 217 6                @ /usr/bin/../lib/gcc/arm-linux-gnueabihf/6.3.0/../../../../include/c++/6.3.0/bits/basic_string.tcc:217:6
	cmp	r5, #15
	bls	.LBB15_50
.Ltmp814:
@ BB#48:                                @ %.noexc6.i
	@DEBUG_VALUE: length:this <- [%SP+20]
	@DEBUG_VALUE: _M_data:this <- [%SP+20]
	@DEBUG_VALUE: _M_local_data:this <- %R4
	.loc	51 219 14               @ /usr/bin/../lib/gcc/arm-linux-gnueabihf/6.3.0/../../../../include/c++/6.3.0/bits/basic_string.tcc:219:14
.Ltmp622:
	sub	r1, r11, #88
.Ltmp815:
	@DEBUG_VALUE: _M_construct<char *>:this <- %R4
	@DEBUG_VALUE: _M_construct<char *>:__dnew <- [%R1+0]
	mov	r0, r4
	mov	r2, #0
	bl	_ZNSt7__cxx1112basic_stringIcSt11char_traitsIcESaIcEE9_M_createERjj
.Ltmp816:
.Ltmp623:
.Ltmp817:
@ BB#49:                                @ %.noexc154
	@DEBUG_VALUE: _M_construct<char *>:this <- %R4
	@DEBUG_VALUE: _M_local_data:this <- %R4
	@DEBUG_VALUE: _M_data:this <- %R4
	@DEBUG_VALUE: _M_data:__p <- %R0
	.loc	51 220 18               @ /usr/bin/../lib/gcc/arm-linux-gnueabihf/6.3.0/../../../../include/c++/6.3.0/bits/basic_string.tcc:220:18
	ldr	r1, [r11, #-88]
.Ltmp818:
	@DEBUG_VALUE: _M_capacity:this <- %R4
	@DEBUG_VALUE: _M_capacity:__capacity <- %R1
	@DEBUG_VALUE: _M_construct<char *>:__dnew <- %R1
	.loc	27 128 26               @ /usr/bin/../lib/gcc/arm-linux-gnueabihf/6.3.0/../../../../include/c++/6.3.0/bits/basic_string.h:128:26
	str	r0, [r4]
.Ltmp819:
	.loc	27 160 31               @ /usr/bin/../lib/gcc/arm-linux-gnueabihf/6.3.0/../../../../include/c++/6.3.0/bits/basic_string.h:160:31
	str	r1, [r4, #8]
.Ltmp820:
.LBB15_50:
	@DEBUG_VALUE: _M_local_data:this <- %R4
	.loc	27 297 6                @ /usr/bin/../lib/gcc/arm-linux-gnueabihf/6.3.0/../../../../include/c++/6.3.0/bits/basic_string.h:297:6
	cmp	r5, #0
	beq	.LBB15_57
.Ltmp821:
@ BB#51:
	@DEBUG_VALUE: _M_local_data:this <- %R4
	cmp	r5, #1
	bne	.LBB15_56
.Ltmp822:
@ BB#52:
	@DEBUG_VALUE: _M_local_data:this <- %R4
	.loc	30 243 16               @ /usr/bin/../lib/gcc/arm-linux-gnueabihf/6.3.0/../../../../include/c++/6.3.0/bits/char_traits.h:243:16
	ldrb	r1, [r6]
	.loc	30 243 14 is_stmt 0     @ /usr/bin/../lib/gcc/arm-linux-gnueabihf/6.3.0/../../../../include/c++/6.3.0/bits/char_traits.h:243:14
	strb	r1, [r0]
.Ltmp823:
	@DEBUG_VALUE: _S_copy:__d <- %R0
	b	.LBB15_57
.Ltmp824:
.LBB15_53:
	ldr	r9, [sp, #20]           @ 4-byte Reload
	add	r0, sp, #72
.Ltmp825:
	@DEBUG_VALUE: _M_construct<__gnu_cxx::__normal_iterator<const char *, std::__cxx11::basic_string<char> > >:this <- %R0
	@DEBUG_VALUE: _M_construct_aux<__gnu_cxx::__normal_iterator<const char *, std::__cxx11::basic_string<char> > >:this <- %R0
	@DEBUG_VALUE: _M_construct<__gnu_cxx::__normal_iterator<const char *, std::__cxx11::basic_string<char> > >:this <- %R0
	@DEBUG_VALUE: _M_local_data:this <- %R0
	@DEBUG_VALUE: basic_string<__gnu_cxx::__normal_iterator<const char *, std::__cxx11::basic_string<char> >, void>:this <- %R0
	ldr	r8, [sp, #12]           @ 4-byte Reload
.Ltmp826:
	.loc	27 142 51 is_stmt 1     @ /usr/bin/../lib/gcc/arm-linux-gnueabihf/6.3.0/../../../../include/c++/6.3.0/bits/basic_string.h:142:51
	add	r4, r0, #8
.Ltmp827:
	.loc	51 217 6                @ /usr/bin/../lib/gcc/arm-linux-gnueabihf/6.3.0/../../../../include/c++/6.3.0/bits/basic_string.tcc:217:6
	cmp	r6, #15
.Ltmp828:
	.loc	27 136 28               @ /usr/bin/../lib/gcc/arm-linux-gnueabihf/6.3.0/../../../../include/c++/6.3.0/bits/basic_string.h:136:28
	ldr	r7, [r9]
.Ltmp829:
	@DEBUG_VALUE: _S_copy_chars:__k1 <- %R7
	@DEBUG_VALUE: _S_copy:__s <- %R7
	@DEBUG_VALUE: assign:__c2 <- %R7
	.loc	27 110 25               @ /usr/bin/../lib/gcc/arm-linux-gnueabihf/6.3.0/../../../../include/c++/6.3.0/bits/basic_string.h:110:25
	str	r4, [sp, #72]
.Ltmp830:
	@DEBUG_VALUE: _M_construct<__gnu_cxx::__normal_iterator<const char *, std::__cxx11::basic_string<char> > >:__dnew <- %R6
	@DEBUG_VALUE: _S_copy:__n <- %R6
	.loc	51 215 12               @ /usr/bin/../lib/gcc/arm-linux-gnueabihf/6.3.0/../../../../include/c++/6.3.0/bits/basic_string.tcc:215:12
	str	r6, [sp, #48]
	bls	.LBB15_58
.Ltmp831:
@ BB#54:                                @ %.noexc.i163
	@DEBUG_VALUE: _S_copy:__n <- %R6
	@DEBUG_VALUE: _M_construct<__gnu_cxx::__normal_iterator<const char *, std::__cxx11::basic_string<char> > >:__dnew <- %R6
	@DEBUG_VALUE: assign:__c2 <- %R7
	@DEBUG_VALUE: _S_copy:__s <- %R7
	@DEBUG_VALUE: _S_copy_chars:__k1 <- %R7
	@DEBUG_VALUE: basic_string<__gnu_cxx::__normal_iterator<const char *, std::__cxx11::basic_string<char> >, void>:this <- %R0
	@DEBUG_VALUE: _M_local_data:this <- %R0
	@DEBUG_VALUE: _M_construct<__gnu_cxx::__normal_iterator<const char *, std::__cxx11::basic_string<char> > >:this <- %R0
	@DEBUG_VALUE: _M_construct_aux<__gnu_cxx::__normal_iterator<const char *, std::__cxx11::basic_string<char> > >:this <- %R0
	@DEBUG_VALUE: _M_construct<__gnu_cxx::__normal_iterator<const char *, std::__cxx11::basic_string<char> > >:this <- %R0
	.loc	51 219 14               @ /usr/bin/../lib/gcc/arm-linux-gnueabihf/6.3.0/../../../../include/c++/6.3.0/bits/basic_string.tcc:219:14
.Ltmp625:
	add	r0, sp, #72
.Ltmp832:
	add	r1, sp, #48
.Ltmp833:
	@DEBUG_VALUE: _M_construct<__gnu_cxx::__normal_iterator<const char *, std::__cxx11::basic_string<char> > >:__dnew <- [%R1+0]
	mov	r2, #0
	bl	_ZNSt7__cxx1112basic_stringIcSt11char_traitsIcESaIcEE9_M_createERjj
.Ltmp834:
.Ltmp626:
.Ltmp835:
@ BB#55:                                @ %.noexc165
	@DEBUG_VALUE: _S_copy:__n <- %R6
	@DEBUG_VALUE: assign:__c2 <- %R7
	@DEBUG_VALUE: _S_copy:__s <- %R7
	@DEBUG_VALUE: _S_copy_chars:__k1 <- %R7
	@DEBUG_VALUE: _M_data:__p <- %R0
	.loc	51 220 18               @ /usr/bin/../lib/gcc/arm-linux-gnueabihf/6.3.0/../../../../include/c++/6.3.0/bits/basic_string.tcc:220:18
	ldr	r1, [sp, #48]
.Ltmp836:
	@DEBUG_VALUE: _M_capacity:__capacity <- %R1
	@DEBUG_VALUE: _M_construct<__gnu_cxx::__normal_iterator<const char *, std::__cxx11::basic_string<char> > >:__dnew <- %R1
	.loc	27 128 26               @ /usr/bin/../lib/gcc/arm-linux-gnueabihf/6.3.0/../../../../include/c++/6.3.0/bits/basic_string.h:128:26
	str	r0, [sp, #72]
.Ltmp837:
	.loc	27 160 31               @ /usr/bin/../lib/gcc/arm-linux-gnueabihf/6.3.0/../../../../include/c++/6.3.0/bits/basic_string.h:160:31
	str	r1, [sp, #80]
	b	.LBB15_59
.Ltmp838:
.LBB15_56:
	@DEBUG_VALUE: _M_local_data:this <- %R4
	.loc	30 290 33               @ /usr/bin/../lib/gcc/arm-linux-gnueabihf/6.3.0/../../../../include/c++/6.3.0/bits/char_traits.h:290:33
	mov	r1, r6
	mov	r2, r5
	bl	memcpy
.Ltmp839:
.LBB15_57:                              @ %_ZNSt7__cxx1112basic_stringIcSt11char_traitsIcESaIcEEC2ERKS4_.exit
	@DEBUG_VALUE: _M_local_data:this <- %R4
	.loc	51 232 16               @ /usr/bin/../lib/gcc/arm-linux-gnueabihf/6.3.0/../../../../include/c++/6.3.0/bits/basic_string.tcc:232:16
	ldr	r0, [r11, #-88]
.Ltmp840:
	@DEBUG_VALUE: _M_data:this <- %R4
	@DEBUG_VALUE: _M_length:this <- %R4
	@DEBUG_VALUE: _M_length:__length <- %R0
	@DEBUG_VALUE: _M_set_length:__n <- %R0
	@DEBUG_VALUE: _M_construct<char *>:__dnew <- %R0
	.loc	30 243 14               @ /usr/bin/../lib/gcc/arm-linux-gnueabihf/6.3.0/../../../../include/c++/6.3.0/bits/char_traits.h:243:14
	mov	r2, #0
.Ltmp841:
	.loc	27 132 26               @ /usr/bin/../lib/gcc/arm-linux-gnueabihf/6.3.0/../../../../include/c++/6.3.0/bits/basic_string.h:132:26
	str	r0, [r4, #4]
.Ltmp842:
	.loc	27 136 28               @ /usr/bin/../lib/gcc/arm-linux-gnueabihf/6.3.0/../../../../include/c++/6.3.0/bits/basic_string.h:136:28
	ldr	r1, [r4]
.Ltmp843:
	.loc	30 243 14               @ /usr/bin/../lib/gcc/arm-linux-gnueabihf/6.3.0/../../../../include/c++/6.3.0/bits/char_traits.h:243:14
	strb	r2, [r1, r0]
	ldr	r5, [sp, #8]            @ 4-byte Reload
	b	.LBB15_101
.Ltmp844:
.LBB15_58:                              @ %._crit_edge.i.i.i.i162
	@DEBUG_VALUE: _S_copy:__n <- %R6
	@DEBUG_VALUE: _M_construct<__gnu_cxx::__normal_iterator<const char *, std::__cxx11::basic_string<char> > >:__dnew <- %R6
	@DEBUG_VALUE: assign:__c2 <- %R7
	@DEBUG_VALUE: _S_copy:__s <- %R7
	@DEBUG_VALUE: _S_copy_chars:__k1 <- %R7
	@DEBUG_VALUE: basic_string<__gnu_cxx::__normal_iterator<const char *, std::__cxx11::basic_string<char> >, void>:this <- %R0
	@DEBUG_VALUE: _M_local_data:this <- %R0
	@DEBUG_VALUE: _M_construct<__gnu_cxx::__normal_iterator<const char *, std::__cxx11::basic_string<char> > >:this <- %R0
	@DEBUG_VALUE: _M_construct_aux<__gnu_cxx::__normal_iterator<const char *, std::__cxx11::basic_string<char> > >:this <- %R0
	@DEBUG_VALUE: _M_construct<__gnu_cxx::__normal_iterator<const char *, std::__cxx11::basic_string<char> > >:this <- %R0
	.loc	27 136 28               @ /usr/bin/../lib/gcc/arm-linux-gnueabihf/6.3.0/../../../../include/c++/6.3.0/bits/basic_string.h:136:28
	mov	r0, r4
.Ltmp845:
.LBB15_59:
	@DEBUG_VALUE: _S_copy:__n <- %R6
	@DEBUG_VALUE: assign:__c2 <- %R7
	@DEBUG_VALUE: _S_copy:__s <- %R7
	@DEBUG_VALUE: _S_copy_chars:__k1 <- %R7
	.loc	27 297 6                @ /usr/bin/../lib/gcc/arm-linux-gnueabihf/6.3.0/../../../../include/c++/6.3.0/bits/basic_string.h:297:6
	cmp	r6, #0
	beq	.LBB15_63
.Ltmp846:
@ BB#60:
	@DEBUG_VALUE: _S_copy:__n <- %R6
	@DEBUG_VALUE: assign:__c2 <- %R7
	@DEBUG_VALUE: _S_copy:__s <- %R7
	@DEBUG_VALUE: _S_copy_chars:__k1 <- %R7
	cmp	r6, #1
	bne	.LBB15_62
.Ltmp847:
@ BB#61:
	@DEBUG_VALUE: _S_copy:__n <- %R6
	@DEBUG_VALUE: assign:__c2 <- %R7
	@DEBUG_VALUE: _S_copy:__s <- %R7
	@DEBUG_VALUE: _S_copy_chars:__k1 <- %R7
	.loc	30 243 16               @ /usr/bin/../lib/gcc/arm-linux-gnueabihf/6.3.0/../../../../include/c++/6.3.0/bits/char_traits.h:243:16
	ldrb	r1, [r7]
.Ltmp848:
	@DEBUG_VALUE: _S_copy_chars:__p <- %R0
	.loc	30 243 14 is_stmt 0     @ /usr/bin/../lib/gcc/arm-linux-gnueabihf/6.3.0/../../../../include/c++/6.3.0/bits/char_traits.h:243:14
	strb	r1, [r0]
	b	.LBB15_63
.Ltmp849:
.LBB15_62:
	@DEBUG_VALUE: _S_copy:__n <- %R6
	@DEBUG_VALUE: assign:__c2 <- %R7
	@DEBUG_VALUE: _S_copy:__s <- %R7
	@DEBUG_VALUE: _S_copy_chars:__k1 <- %R7
	.loc	30 290 33 is_stmt 1     @ /usr/bin/../lib/gcc/arm-linux-gnueabihf/6.3.0/../../../../include/c++/6.3.0/bits/char_traits.h:290:33
	mov	r1, r7
	mov	r2, r6
	bl	memcpy
.Ltmp850:
.LBB15_63:
	@DEBUG_VALUE: _S_copy:__n <- %R6
	@DEBUG_VALUE: assign:__c2 <- %R7
	@DEBUG_VALUE: _S_copy:__s <- %R7
	@DEBUG_VALUE: _S_copy_chars:__k1 <- %R7
	.loc	51 232 16               @ /usr/bin/../lib/gcc/arm-linux-gnueabihf/6.3.0/../../../../include/c++/6.3.0/bits/basic_string.tcc:232:16
	ldr	r0, [sp, #48]
.Ltmp851:
	@DEBUG_VALUE: _M_set_length:__n <- %R0
	@DEBUG_VALUE: _M_length:__length <- %R0
	@DEBUG_VALUE: _M_construct<__gnu_cxx::__normal_iterator<const char *, std::__cxx11::basic_string<char> > >:__dnew <- %R0
	mov	r2, #0
.Ltmp852:
	.loc	27 132 26               @ /usr/bin/../lib/gcc/arm-linux-gnueabihf/6.3.0/../../../../include/c++/6.3.0/bits/basic_string.h:132:26
	str	r0, [sp, #76]
.Ltmp853:
	.loc	27 136 28               @ /usr/bin/../lib/gcc/arm-linux-gnueabihf/6.3.0/../../../../include/c++/6.3.0/bits/basic_string.h:136:28
	ldr	r1, [sp, #72]
.Ltmp854:
	.loc	30 243 14               @ /usr/bin/../lib/gcc/arm-linux-gnueabihf/6.3.0/../../../../include/c++/6.3.0/bits/char_traits.h:243:14
	strb	r2, [r1, r0]
.Ltmp855:
	.loc	27 805 16               @ /usr/bin/../lib/gcc/arm-linux-gnueabihf/6.3.0/../../../../include/c++/6.3.0/bits/basic_string.h:805:16
	ldr	r1, [sp, #76]
.Ltmp856:
	.loc	27 1143 16 discriminator 1 @ /usr/bin/../lib/gcc/arm-linux-gnueabihf/6.3.0/../../../../include/c++/6.3.0/bits/basic_string.h:1143:16
.Ltmp628:
	mov	r0, #43
.Ltmp857:
	mov	r2, #0
	str	r0, [sp]
	add	r0, sp, #72
.Ltmp858:
	@DEBUG_VALUE: size:this <- %R0
	@DEBUG_VALUE: append:__c <- 43
	@DEBUG_VALUE: append:__n <- 1
	@DEBUG_VALUE: append:this <- %R0
	@DEBUG_VALUE: operator+<char, std::char_traits<char>, std::allocator<char> >:__rhs <- 43
	@DEBUG_VALUE: operator+<char, std::char_traits<char>, std::allocator<char> >:__lhs <- %R0
	@DEBUG_VALUE: _M_data:this <- %R0
	@DEBUG_VALUE: _M_length:this <- %R0
	mov	r3, #1
	str	r4, [sp, #4]            @ 4-byte Spill
	bl	_ZNSt7__cxx1112basic_stringIcSt11char_traitsIcESaIcEE14_M_replace_auxEjjjc
.Ltmp859:
.Ltmp629:
.Ltmp860:
@ BB#64:                                @ %.noexc167
	@DEBUG_VALUE: _S_copy:__n <- %R6
	@DEBUG_VALUE: assign:__c2 <- %R7
	@DEBUG_VALUE: _S_copy:__s <- %R7
	@DEBUG_VALUE: _S_copy_chars:__k1 <- %R7
	.loc	23 167 19               @ /root/Bela/projects/board_6/WriteFile.cpp:167:19
	add	r1, r10, #1
.Ltmp861:
	@DEBUG_VALUE: _M_data:this <- %R0
	@DEBUG_VALUE: _M_local_data:this <- %R0
	@DEBUG_VALUE: to_string:__val <- %R1
	@DEBUG_VALUE: generateUniqueFilename:logNum <- %R1
	ldr	r10, [sp, #16]          @ 4-byte Reload
.Ltmp862:
	.loc	27 110 25               @ /usr/bin/../lib/gcc/arm-linux-gnueabihf/6.3.0/../../../../include/c++/6.3.0/bits/basic_string.h:110:25
	str	r10, [r11, #-112]
.Ltmp863:
	.loc	27 136 28               @ /usr/bin/../lib/gcc/arm-linux-gnueabihf/6.3.0/../../../../include/c++/6.3.0/bits/basic_string.h:136:28
	mov	r2, r0
	ldr	r3, [r2], #8
.Ltmp864:
	@DEBUG_VALUE: _M_data:__p <- %R3
	@DEBUG_VALUE: _M_local_data:this <- %R0
	.loc	27 479 6 discriminator 1 @ /usr/bin/../lib/gcc/arm-linux-gnueabihf/6.3.0/../../../../include/c++/6.3.0/bits/basic_string.h:479:6
	cmp	r3, r2
.Ltmp865:
	@DEBUG_VALUE: copy:__s2 <- %R2
	@DEBUG_VALUE: _M_data:__p <- %R2
	@DEBUG_VALUE: assign:__c1 <- %R2
	beq	.LBB15_66
.Ltmp866:
@ BB#65:
	@DEBUG_VALUE: assign:__c1 <- %R2
	@DEBUG_VALUE: _M_data:__p <- %R2
	@DEBUG_VALUE: copy:__s2 <- %R2
	@DEBUG_VALUE: _M_local_data:this <- %R0
	@DEBUG_VALUE: _M_data:__p <- %R3
	@DEBUG_VALUE: generateUniqueFilename:logNum <- %R1
	@DEBUG_VALUE: to_string:__val <- %R1
	@DEBUG_VALUE: _M_local_data:this <- %R0
	@DEBUG_VALUE: _M_data:this <- %R0
	@DEBUG_VALUE: _S_copy:__n <- %R6
	@DEBUG_VALUE: assign:__c2 <- %R7
	@DEBUG_VALUE: _S_copy:__s <- %R7
	@DEBUG_VALUE: _S_copy_chars:__k1 <- %R7
	@DEBUG_VALUE: _M_data:this <- %R0
	.loc	27 128 26               @ /usr/bin/../lib/gcc/arm-linux-gnueabihf/6.3.0/../../../../include/c++/6.3.0/bits/basic_string.h:128:26
	str	r3, [r11, #-112]
.Ltmp867:
	.loc	27 487 24               @ /usr/bin/../lib/gcc/arm-linux-gnueabihf/6.3.0/../../../../include/c++/6.3.0/bits/basic_string.h:487:24
	ldr	r3, [r0, #8]
.Ltmp868:
	@DEBUG_VALUE: _M_capacity:__capacity <- %R3
	.loc	27 160 31               @ /usr/bin/../lib/gcc/arm-linux-gnueabihf/6.3.0/../../../../include/c++/6.3.0/bits/basic_string.h:160:31
	str	r3, [r11, #-104]
	b	.LBB15_67
.Ltmp869:
.LBB15_66:
	@DEBUG_VALUE: assign:__c1 <- %R2
	@DEBUG_VALUE: _M_data:__p <- %R2
	@DEBUG_VALUE: copy:__s2 <- %R2
	@DEBUG_VALUE: _M_local_data:this <- %R0
	@DEBUG_VALUE: _M_data:__p <- %R3
	@DEBUG_VALUE: generateUniqueFilename:logNum <- %R1
	@DEBUG_VALUE: to_string:__val <- %R1
	@DEBUG_VALUE: _M_local_data:this <- %R0
	@DEBUG_VALUE: _M_data:this <- %R0
	@DEBUG_VALUE: _S_copy:__n <- %R6
	@DEBUG_VALUE: assign:__c2 <- %R7
	@DEBUG_VALUE: _S_copy:__s <- %R7
	@DEBUG_VALUE: _S_copy_chars:__k1 <- %R7
	.loc	30 290 33               @ /usr/bin/../lib/gcc/arm-linux-gnueabihf/6.3.0/../../../../include/c++/6.3.0/bits/char_traits.h:290:33
	vld1.8	{d16, d17}, [r3]
.Ltmp870:
	@DEBUG_VALUE: copy:__s1 <- %R10
	vst1.8	{d16, d17}, [r10]
.Ltmp871:
	@DEBUG_VALUE: copy:__n <- 16
.LBB15_67:
	@DEBUG_VALUE: assign:__c1 <- %R2
	@DEBUG_VALUE: _M_data:__p <- %R2
	@DEBUG_VALUE: copy:__s2 <- %R2
	@DEBUG_VALUE: _M_local_data:this <- %R0
	@DEBUG_VALUE: generateUniqueFilename:logNum <- %R1
	@DEBUG_VALUE: to_string:__val <- %R1
	@DEBUG_VALUE: _M_local_data:this <- %R0
	@DEBUG_VALUE: _M_data:this <- %R0
	@DEBUG_VALUE: _S_copy:__n <- %R6
	@DEBUG_VALUE: assign:__c2 <- %R7
	@DEBUG_VALUE: _S_copy:__s <- %R7
	@DEBUG_VALUE: _S_copy_chars:__k1 <- %R7
	@DEBUG_VALUE: length:this <- %R0
	.loc	27 811 16               @ /usr/bin/../lib/gcc/arm-linux-gnueabihf/6.3.0/../../../../include/c++/6.3.0/bits/basic_string.h:811:16
	ldr	r3, [r0, #4]
.Ltmp872:
	@DEBUG_VALUE: _M_data:this <- %R0
	@DEBUG_VALUE: _M_length:__length <- %R3
	.loc	27 132 26               @ /usr/bin/../lib/gcc/arm-linux-gnueabihf/6.3.0/../../../../include/c++/6.3.0/bits/basic_string.h:132:26
	str	r3, [r11, #-108]
	mov	r3, #0
.Ltmp873:
	@DEBUG_VALUE: _M_data:this <- %R0
	@DEBUG_VALUE: _M_length:__length <- 0
	@DEBUG_VALUE: _M_set_length:__n <- 0
	.loc	27 128 26               @ /usr/bin/../lib/gcc/arm-linux-gnueabihf/6.3.0/../../../../include/c++/6.3.0/bits/basic_string.h:128:26
	stm	r0, {r2, r3}
.Ltmp874:
	.loc	30 243 14               @ /usr/bin/../lib/gcc/arm-linux-gnueabihf/6.3.0/../../../../include/c++/6.3.0/bits/char_traits.h:243:14
	strb	r3, [r0, #8]
.Ltmp875:
	.loc	27 5471 12              @ /usr/bin/../lib/gcc/arm-linux-gnueabihf/6.3.0/../../../../include/c++/6.3.0/bits/basic_string.h:5471:12
.Ltmp631:
	movw	r3, :lower16:.L.str.10
	str	r1, [sp]
	movw	r1, :lower16:vsnprintf
.Ltmp876:
	add	r0, sp, #48
.Ltmp877:
	movt	r1, :upper16:vsnprintf
	movt	r3, :upper16:.L.str.10
	mov	r2, #16
.Ltmp878:
	bl	_ZN9__gnu_cxx12__to_xstringINSt7__cxx1112basic_stringIcSt11char_traitsIcESaIcEEEcEET_PFiPT0_jPKS8_St9__va_listEjSB_z
.Ltmp632:
.Ltmp879:
@ BB#68:                                @ %_ZNSt7__cxx119to_stringEi.exit
	@DEBUG_VALUE: _S_copy:__n <- %R6
	@DEBUG_VALUE: assign:__c2 <- %R7
	@DEBUG_VALUE: _S_copy:__s <- %R7
	@DEBUG_VALUE: _S_copy_chars:__k1 <- %R7
	.loc	27 805 16               @ /usr/bin/../lib/gcc/arm-linux-gnueabihf/6.3.0/../../../../include/c++/6.3.0/bits/basic_string.h:805:16
	ldr	r0, [r11, #-108]
.Ltmp880:
	.loc	27 805 16 is_stmt 0     @ /usr/bin/../lib/gcc/arm-linux-gnueabihf/6.3.0/../../../../include/c++/6.3.0/bits/basic_string.h:805:16
	ldr	r2, [sp, #52]
.Ltmp881:
	.loc	27 136 28 is_stmt 1     @ /usr/bin/../lib/gcc/arm-linux-gnueabihf/6.3.0/../../../../include/c++/6.3.0/bits/basic_string.h:136:28
	ldr	r3, [r11, #-112]
.Ltmp882:
	.loc	27 136 28 is_stmt 0     @ /usr/bin/../lib/gcc/arm-linux-gnueabihf/6.3.0/../../../../include/c++/6.3.0/bits/basic_string.h:136:28
	ldr	r1, [sp, #48]
.Ltmp883:
	.loc	27 5024 40 is_stmt 1    @ /usr/bin/../lib/gcc/arm-linux-gnueabihf/6.3.0/../../../../include/c++/6.3.0/bits/basic_string.h:5024:40
	add	r7, r2, r0
.Ltmp884:
	@DEBUG_VALUE: operator+<char, std::char_traits<char>, std::allocator<char> >:__size <- %R7
	.loc	27 870 25               @ /usr/bin/../lib/gcc/arm-linux-gnueabihf/6.3.0/../../../../include/c++/6.3.0/bits/basic_string.h:870:25
	ldr	r5, [r11, #-104]
	.loc	27 869 9 discriminator 1 @ /usr/bin/../lib/gcc/arm-linux-gnueabihf/6.3.0/../../../../include/c++/6.3.0/bits/basic_string.h:869:9
	cmp	r3, r10
	movweq	r5, #15
.Ltmp885:
	.loc	27 5026 7               @ /usr/bin/../lib/gcc/arm-linux-gnueabihf/6.3.0/../../../../include/c++/6.3.0/bits/basic_string.h:5026:7
	cmp	r7, r5
	bls	.LBB15_70
.Ltmp886:
@ BB#69:                                @ %_ZNKSt7__cxx1112basic_stringIcSt11char_traitsIcESaIcEE8capacityEv.exit11.i155
	@DEBUG_VALUE: operator+<char, std::char_traits<char>, std::allocator<char> >:__size <- %R7
	@DEBUG_VALUE: _S_copy:__n <- %R6
	add	r4, sp, #48
.Ltmp887:
	.loc	27 870 25               @ /usr/bin/../lib/gcc/arm-linux-gnueabihf/6.3.0/../../../../include/c++/6.3.0/bits/basic_string.h:870:25
	ldr	r5, [sp, #56]
.Ltmp888:
	@DEBUG_VALUE: _M_local_data:this <- undef
	.loc	27 152 57               @ /usr/bin/../lib/gcc/arm-linux-gnueabihf/6.3.0/../../../../include/c++/6.3.0/bits/basic_string.h:152:57
	add	r4, r4, #8
.Ltmp889:
	.loc	27 869 9 discriminator 1 @ /usr/bin/../lib/gcc/arm-linux-gnueabihf/6.3.0/../../../../include/c++/6.3.0/bits/basic_string.h:869:9
	cmp	r1, r4
	movweq	r5, #15
.Ltmp890:
	.loc	27 5027 14              @ /usr/bin/../lib/gcc/arm-linux-gnueabihf/6.3.0/../../../../include/c++/6.3.0/bits/basic_string.h:5027:14
	cmp	r7, r5
	bls	.LBB15_71
.Ltmp891:
.LBB15_70:                              @ %.critedge.i156
	@DEBUG_VALUE: operator+<char, std::char_traits<char>, std::allocator<char> >:__size <- %R7
	@DEBUG_VALUE: _S_copy:__n <- %R6
	.loc	27 1084 16 discriminator 2 @ /usr/bin/../lib/gcc/arm-linux-gnueabihf/6.3.0/../../../../include/c++/6.3.0/bits/basic_string.h:1084:16
.Ltmp636:
	sub	r0, r11, #112
.Ltmp892:
	@DEBUG_VALUE: append:this <- %R0
	bl	_ZNSt7__cxx1112basic_stringIcSt11char_traitsIcESaIcEE9_M_appendEPKcj
.Ltmp893:
.Ltmp637:
	b	.LBB15_72
.Ltmp894:
.LBB15_71:
	@DEBUG_VALUE: operator+<char, std::char_traits<char>, std::allocator<char> >:__size <- %R7
	@DEBUG_VALUE: _S_copy:__n <- %R6
	.loc	27 1687 9 discriminator 1 @ /usr/bin/../lib/gcc/arm-linux-gnueabihf/6.3.0/../../../../include/c++/6.3.0/bits/basic_string.h:1687:9
.Ltmp634:
.Ltmp895:
	@DEBUG_VALUE: insert:__pos1 <- 0
	@DEBUG_VALUE: replace:__pos <- 0
	@DEBUG_VALUE: replace:__n1 <- 0
	str	r0, [sp]
	add	r0, sp, #48
.Ltmp896:
	@DEBUG_VALUE: size:this <- %R0
	mov	r1, #0
	mov	r2, #0
	bl	_ZNSt7__cxx1112basic_stringIcSt11char_traitsIcESaIcEE10_M_replaceEjjPKcj
.Ltmp897:
.Ltmp635:
.Ltmp898:
.LBB15_72:
	@DEBUG_VALUE: operator+<char, std::char_traits<char>, std::allocator<char> >:__size <- %R7
	@DEBUG_VALUE: _S_copy:__n <- %R6
	sub	r1, r11, #88
.Ltmp899:
	@DEBUG_VALUE: _M_local_data:this <- %R1
	.loc	27 142 51               @ /usr/bin/../lib/gcc/arm-linux-gnueabihf/6.3.0/../../../../include/c++/6.3.0/bits/basic_string.h:142:51
	add	r4, r1, #8
.Ltmp900:
	.loc	27 110 25               @ /usr/bin/../lib/gcc/arm-linux-gnueabihf/6.3.0/../../../../include/c++/6.3.0/bits/basic_string.h:110:25
	str	r4, [r11, #-88]
.Ltmp901:
	.loc	27 136 28               @ /usr/bin/../lib/gcc/arm-linux-gnueabihf/6.3.0/../../../../include/c++/6.3.0/bits/basic_string.h:136:28
	mov	r1, r0
.Ltmp902:
	ldr	r2, [r1], #8
.Ltmp903:
	@DEBUG_VALUE: _M_data:__p <- %R2
	.loc	27 479 6 discriminator 1 @ /usr/bin/../lib/gcc/arm-linux-gnueabihf/6.3.0/../../../../include/c++/6.3.0/bits/basic_string.h:479:6
	cmp	r2, r1
.Ltmp904:
	@DEBUG_VALUE: copy:__s2 <- %R1
	@DEBUG_VALUE: _M_data:__p <- %R1
	@DEBUG_VALUE: assign:__c1 <- %R1
	@DEBUG_VALUE: basic_string:__str <- %R0
	beq	.LBB15_74
.Ltmp905:
@ BB#73:
	@DEBUG_VALUE: basic_string:__str <- %R0
	@DEBUG_VALUE: assign:__c1 <- %R1
	@DEBUG_VALUE: _M_data:__p <- %R1
	@DEBUG_VALUE: copy:__s2 <- %R1
	@DEBUG_VALUE: _M_data:__p <- %R2
	@DEBUG_VALUE: operator+<char, std::char_traits<char>, std::allocator<char> >:__size <- %R7
	@DEBUG_VALUE: _S_copy:__n <- %R6
	.loc	27 128 26               @ /usr/bin/../lib/gcc/arm-linux-gnueabihf/6.3.0/../../../../include/c++/6.3.0/bits/basic_string.h:128:26
	str	r2, [r11, #-88]
.Ltmp906:
	.loc	27 487 24               @ /usr/bin/../lib/gcc/arm-linux-gnueabihf/6.3.0/../../../../include/c++/6.3.0/bits/basic_string.h:487:24
	ldr	r2, [r0, #8]
.Ltmp907:
	@DEBUG_VALUE: _M_capacity:__capacity <- %R2
	.loc	27 160 31               @ /usr/bin/../lib/gcc/arm-linux-gnueabihf/6.3.0/../../../../include/c++/6.3.0/bits/basic_string.h:160:31
	str	r2, [r11, #-80]
	b	.LBB15_75
.Ltmp908:
.LBB15_74:
	@DEBUG_VALUE: basic_string:__str <- %R0
	@DEBUG_VALUE: assign:__c1 <- %R1
	@DEBUG_VALUE: _M_data:__p <- %R1
	@DEBUG_VALUE: copy:__s2 <- %R1
	@DEBUG_VALUE: _M_data:__p <- %R2
	@DEBUG_VALUE: operator+<char, std::char_traits<char>, std::allocator<char> >:__size <- %R7
	@DEBUG_VALUE: _S_copy:__n <- %R6
	.loc	30 290 33               @ /usr/bin/../lib/gcc/arm-linux-gnueabihf/6.3.0/../../../../include/c++/6.3.0/bits/char_traits.h:290:33
	vld1.8	{d16, d17}, [r2]
.Ltmp909:
	@DEBUG_VALUE: copy:__s1 <- %R4
	vst1.8	{d16, d17}, [r4]
.Ltmp910:
	@DEBUG_VALUE: copy:__n <- 16
.LBB15_75:
	@DEBUG_VALUE: basic_string:__str <- %R0
	@DEBUG_VALUE: assign:__c1 <- %R1
	@DEBUG_VALUE: _M_data:__p <- %R1
	@DEBUG_VALUE: copy:__s2 <- %R1
	@DEBUG_VALUE: operator+<char, std::char_traits<char>, std::allocator<char> >:__size <- %R7
	@DEBUG_VALUE: _S_copy:__n <- %R6
	.loc	27 811 16               @ /usr/bin/../lib/gcc/arm-linux-gnueabihf/6.3.0/../../../../include/c++/6.3.0/bits/basic_string.h:811:16
	ldr	r2, [r0, #4]
.Ltmp911:
	@DEBUG_VALUE: _M_length:__length <- %R2
	.loc	27 132 26               @ /usr/bin/../lib/gcc/arm-linux-gnueabihf/6.3.0/../../../../include/c++/6.3.0/bits/basic_string.h:132:26
	str	r2, [r11, #-84]
	mov	r2, #0
.Ltmp912:
	@DEBUG_VALUE: _M_data:this <- %R9
	.loc	27 128 26               @ /usr/bin/../lib/gcc/arm-linux-gnueabihf/6.3.0/../../../../include/c++/6.3.0/bits/basic_string.h:128:26
	stm	r0, {r1, r2}
.Ltmp913:
	.loc	30 243 14               @ /usr/bin/../lib/gcc/arm-linux-gnueabihf/6.3.0/../../../../include/c++/6.3.0/bits/char_traits.h:243:14
	strb	r2, [r0, #8]
	add	r0, sp, #24
.Ltmp914:
	@DEBUG_VALUE: _M_construct<__gnu_cxx::__normal_iterator<const char *, std::__cxx11::basic_string<char> > >:this <- %R0
	@DEBUG_VALUE: _M_construct_aux<__gnu_cxx::__normal_iterator<const char *, std::__cxx11::basic_string<char> > >:this <- %R0
	@DEBUG_VALUE: _M_construct<__gnu_cxx::__normal_iterator<const char *, std::__cxx11::basic_string<char> > >:this <- %R0
	@DEBUG_VALUE: _M_local_data:this <- %R0
	@DEBUG_VALUE: basic_string<__gnu_cxx::__normal_iterator<const char *, std::__cxx11::basic_string<char> >, void>:this <- %R0
	.loc	27 805 16               @ /usr/bin/../lib/gcc/arm-linux-gnueabihf/6.3.0/../../../../include/c++/6.3.0/bits/basic_string.h:805:16
	ldr	r1, [r9, #4]
.Ltmp915:
	.loc	27 142 51               @ /usr/bin/../lib/gcc/arm-linux-gnueabihf/6.3.0/../../../../include/c++/6.3.0/bits/basic_string.h:142:51
	add	r10, r0, #8
.Ltmp916:
	.loc	27 136 28               @ /usr/bin/../lib/gcc/arm-linux-gnueabihf/6.3.0/../../../../include/c++/6.3.0/bits/basic_string.h:136:28
	ldr	r5, [r9]
.Ltmp917:
	.loc	7 962 27                @ /usr/bin/../lib/gcc/arm-linux-gnueabihf/6.3.0/../../../../include/c++/6.3.0/bits/stl_iterator.h:962:27
	sub	r7, r1, r6
.Ltmp918:
	@DEBUG_VALUE: _M_construct<__gnu_cxx::__normal_iterator<const char *, std::__cxx11::basic_string<char> > >:__dnew <- %R7
	@DEBUG_VALUE: _S_copy:__n <- %R7
	.loc	27 110 25               @ /usr/bin/../lib/gcc/arm-linux-gnueabihf/6.3.0/../../../../include/c++/6.3.0/bits/basic_string.h:110:25
	str	r10, [sp, #24]
.Ltmp919:
	.loc	51 215 12               @ /usr/bin/../lib/gcc/arm-linux-gnueabihf/6.3.0/../../../../include/c++/6.3.0/bits/basic_string.tcc:215:12
	str	r7, [r11, #-36]
	.loc	51 217 6                @ /usr/bin/../lib/gcc/arm-linux-gnueabihf/6.3.0/../../../../include/c++/6.3.0/bits/basic_string.tcc:217:6
	cmp	r7, #15
.Ltmp920:
	@DEBUG_VALUE: size:this <- %R9
	@DEBUG_VALUE: _M_length:__length <- 0
	@DEBUG_VALUE: _M_set_length:__n <- 0
	bls	.LBB15_78
.Ltmp921:
@ BB#76:                                @ %.noexc.i145
	@DEBUG_VALUE: size:this <- %R9
	@DEBUG_VALUE: _S_copy:__n <- %R7
	@DEBUG_VALUE: _M_construct<__gnu_cxx::__normal_iterator<const char *, std::__cxx11::basic_string<char> > >:__dnew <- %R7
	@DEBUG_VALUE: basic_string<__gnu_cxx::__normal_iterator<const char *, std::__cxx11::basic_string<char> >, void>:this <- %R0
	@DEBUG_VALUE: _M_local_data:this <- %R0
	@DEBUG_VALUE: _M_construct<__gnu_cxx::__normal_iterator<const char *, std::__cxx11::basic_string<char> > >:this <- %R0
	@DEBUG_VALUE: _M_construct_aux<__gnu_cxx::__normal_iterator<const char *, std::__cxx11::basic_string<char> > >:this <- %R0
	@DEBUG_VALUE: _M_construct<__gnu_cxx::__normal_iterator<const char *, std::__cxx11::basic_string<char> > >:this <- %R0
	@DEBUG_VALUE: _M_data:this <- %R9
	@DEBUG_VALUE: _S_copy:__n <- %R6
	.loc	51 219 14               @ /usr/bin/../lib/gcc/arm-linux-gnueabihf/6.3.0/../../../../include/c++/6.3.0/bits/basic_string.tcc:219:14
.Ltmp639:
	add	r0, sp, #24
.Ltmp922:
	sub	r1, r11, #36
.Ltmp923:
	@DEBUG_VALUE: _M_construct<__gnu_cxx::__normal_iterator<const char *, std::__cxx11::basic_string<char> > >:__dnew <- [%R1+0]
	mov	r2, #0
	bl	_ZNSt7__cxx1112basic_stringIcSt11char_traitsIcESaIcEE9_M_createERjj
.Ltmp924:
.Ltmp640:
.Ltmp925:
@ BB#77:                                @ %.noexc147
	@DEBUG_VALUE: size:this <- %R9
	@DEBUG_VALUE: _S_copy:__n <- %R7
	@DEBUG_VALUE: _M_data:this <- %R9
	@DEBUG_VALUE: _S_copy:__n <- %R6
	@DEBUG_VALUE: _M_data:__p <- %R0
	.loc	51 220 18               @ /usr/bin/../lib/gcc/arm-linux-gnueabihf/6.3.0/../../../../include/c++/6.3.0/bits/basic_string.tcc:220:18
	ldr	r1, [r11, #-36]
.Ltmp926:
	@DEBUG_VALUE: _M_capacity:__capacity <- %R1
	@DEBUG_VALUE: _M_construct<__gnu_cxx::__normal_iterator<const char *, std::__cxx11::basic_string<char> > >:__dnew <- %R1
	.loc	27 128 26               @ /usr/bin/../lib/gcc/arm-linux-gnueabihf/6.3.0/../../../../include/c++/6.3.0/bits/basic_string.h:128:26
	str	r0, [sp, #24]
.Ltmp927:
	.loc	27 160 31               @ /usr/bin/../lib/gcc/arm-linux-gnueabihf/6.3.0/../../../../include/c++/6.3.0/bits/basic_string.h:160:31
	str	r1, [sp, #32]
	b	.LBB15_79
.Ltmp928:
.LBB15_78:                              @ %._crit_edge.i.i.i.i144
	@DEBUG_VALUE: size:this <- %R9
	@DEBUG_VALUE: _S_copy:__n <- %R7
	@DEBUG_VALUE: _M_construct<__gnu_cxx::__normal_iterator<const char *, std::__cxx11::basic_string<char> > >:__dnew <- %R7
	@DEBUG_VALUE: basic_string<__gnu_cxx::__normal_iterator<const char *, std::__cxx11::basic_string<char> >, void>:this <- %R0
	@DEBUG_VALUE: _M_local_data:this <- %R0
	@DEBUG_VALUE: _M_construct<__gnu_cxx::__normal_iterator<const char *, std::__cxx11::basic_string<char> > >:this <- %R0
	@DEBUG_VALUE: _M_construct_aux<__gnu_cxx::__normal_iterator<const char *, std::__cxx11::basic_string<char> > >:this <- %R0
	@DEBUG_VALUE: _M_construct<__gnu_cxx::__normal_iterator<const char *, std::__cxx11::basic_string<char> > >:this <- %R0
	@DEBUG_VALUE: _M_data:this <- %R9
	@DEBUG_VALUE: _S_copy:__n <- %R6
	.loc	27 136 28               @ /usr/bin/../lib/gcc/arm-linux-gnueabihf/6.3.0/../../../../include/c++/6.3.0/bits/basic_string.h:136:28
	mov	r0, r10
.Ltmp929:
.LBB15_79:
	@DEBUG_VALUE: size:this <- %R9
	@DEBUG_VALUE: _S_copy:__n <- %R7
	@DEBUG_VALUE: _M_data:this <- %R9
	@DEBUG_VALUE: _S_copy:__n <- %R6
	.loc	27 297 6                @ /usr/bin/../lib/gcc/arm-linux-gnueabihf/6.3.0/../../../../include/c++/6.3.0/bits/basic_string.h:297:6
	cmp	r7, #0
	beq	.LBB15_83
.Ltmp930:
@ BB#80:
	@DEBUG_VALUE: size:this <- %R9
	@DEBUG_VALUE: _S_copy:__n <- %R7
	@DEBUG_VALUE: _M_data:this <- %R9
	@DEBUG_VALUE: _S_copy:__n <- %R6
	.loc	7 830 45                @ /usr/bin/../lib/gcc/arm-linux-gnueabihf/6.3.0/../../../../include/c++/6.3.0/bits/stl_iterator.h:830:45
	add	r1, r5, r6
.Ltmp931:
	@DEBUG_VALUE: _S_copy_chars:__k1 <- %R1
	@DEBUG_VALUE: _S_copy:__s <- %R1
	@DEBUG_VALUE: assign:__c2 <- %R1
	cmp	r7, #1
	bne	.LBB15_82
.Ltmp932:
@ BB#81:
	@DEBUG_VALUE: assign:__c2 <- %R1
	@DEBUG_VALUE: _S_copy:__s <- %R1
	@DEBUG_VALUE: _S_copy_chars:__k1 <- %R1
	@DEBUG_VALUE: size:this <- %R9
	@DEBUG_VALUE: _S_copy:__n <- %R7
	@DEBUG_VALUE: _M_data:this <- %R9
	@DEBUG_VALUE: _S_copy:__n <- %R6
	.loc	30 243 16               @ /usr/bin/../lib/gcc/arm-linux-gnueabihf/6.3.0/../../../../include/c++/6.3.0/bits/char_traits.h:243:16
	ldrb	r1, [r1]
.Ltmp933:
	.loc	30 243 14 is_stmt 0     @ /usr/bin/../lib/gcc/arm-linux-gnueabihf/6.3.0/../../../../include/c++/6.3.0/bits/char_traits.h:243:14
	strb	r1, [r0]
.Ltmp934:
	@DEBUG_VALUE: _S_copy_chars:__p <- %R0
	b	.LBB15_83
.Ltmp935:
.LBB15_82:
	@DEBUG_VALUE: assign:__c2 <- %R1
	@DEBUG_VALUE: _S_copy:__s <- %R1
	@DEBUG_VALUE: _S_copy_chars:__k1 <- %R1
	@DEBUG_VALUE: size:this <- %R9
	@DEBUG_VALUE: _S_copy:__n <- %R7
	@DEBUG_VALUE: _M_data:this <- %R9
	@DEBUG_VALUE: _S_copy:__n <- %R6
	.loc	30 290 33 is_stmt 1     @ /usr/bin/../lib/gcc/arm-linux-gnueabihf/6.3.0/../../../../include/c++/6.3.0/bits/char_traits.h:290:33
	mov	r2, r7
	bl	memcpy
.Ltmp936:
.LBB15_83:
	@DEBUG_VALUE: size:this <- %R9
	@DEBUG_VALUE: _S_copy:__n <- %R7
	@DEBUG_VALUE: _M_data:this <- %R9
	@DEBUG_VALUE: _S_copy:__n <- %R6
	.loc	51 232 16               @ /usr/bin/../lib/gcc/arm-linux-gnueabihf/6.3.0/../../../../include/c++/6.3.0/bits/basic_string.tcc:232:16
	ldr	r0, [r11, #-36]
.Ltmp937:
	@DEBUG_VALUE: _M_set_length:__n <- %R0
	@DEBUG_VALUE: _M_length:__length <- %R0
	@DEBUG_VALUE: _M_construct<__gnu_cxx::__normal_iterator<const char *, std::__cxx11::basic_string<char> > >:__dnew <- %R0
	mov	r2, #0
.Ltmp938:
	.loc	27 132 26               @ /usr/bin/../lib/gcc/arm-linux-gnueabihf/6.3.0/../../../../include/c++/6.3.0/bits/basic_string.h:132:26
	str	r0, [sp, #28]
.Ltmp939:
	.loc	27 136 28               @ /usr/bin/../lib/gcc/arm-linux-gnueabihf/6.3.0/../../../../include/c++/6.3.0/bits/basic_string.h:136:28
	ldr	r1, [sp, #24]
.Ltmp940:
	.loc	30 243 14               @ /usr/bin/../lib/gcc/arm-linux-gnueabihf/6.3.0/../../../../include/c++/6.3.0/bits/char_traits.h:243:14
	strb	r2, [r1, r0]
.Ltmp941:
	.loc	27 805 16               @ /usr/bin/../lib/gcc/arm-linux-gnueabihf/6.3.0/../../../../include/c++/6.3.0/bits/basic_string.h:805:16
	ldr	r0, [r11, #-84]
.Ltmp942:
	.loc	27 805 16 is_stmt 0     @ /usr/bin/../lib/gcc/arm-linux-gnueabihf/6.3.0/../../../../include/c++/6.3.0/bits/basic_string.h:805:16
	ldr	r2, [sp, #28]
.Ltmp943:
	.loc	27 136 28 is_stmt 1     @ /usr/bin/../lib/gcc/arm-linux-gnueabihf/6.3.0/../../../../include/c++/6.3.0/bits/basic_string.h:136:28
	ldr	r3, [r11, #-88]
.Ltmp944:
	.loc	27 136 28 is_stmt 0     @ /usr/bin/../lib/gcc/arm-linux-gnueabihf/6.3.0/../../../../include/c++/6.3.0/bits/basic_string.h:136:28
	ldr	r1, [sp, #24]
.Ltmp945:
	.loc	27 5024 40 is_stmt 1    @ /usr/bin/../lib/gcc/arm-linux-gnueabihf/6.3.0/../../../../include/c++/6.3.0/bits/basic_string.h:5024:40
	add	r7, r2, r0
.Ltmp946:
	@DEBUG_VALUE: operator+<char, std::char_traits<char>, std::allocator<char> >:__size <- %R7
	.loc	27 870 25               @ /usr/bin/../lib/gcc/arm-linux-gnueabihf/6.3.0/../../../../include/c++/6.3.0/bits/basic_string.h:870:25
	ldr	r6, [r11, #-80]
.Ltmp947:
	.loc	27 869 9 discriminator 1 @ /usr/bin/../lib/gcc/arm-linux-gnueabihf/6.3.0/../../../../include/c++/6.3.0/bits/basic_string.h:869:9
	cmp	r3, r4
	movweq	r6, #15
.Ltmp948:
	.loc	27 5026 7               @ /usr/bin/../lib/gcc/arm-linux-gnueabihf/6.3.0/../../../../include/c++/6.3.0/bits/basic_string.h:5026:7
	cmp	r7, r6
	bls	.LBB15_85
.Ltmp949:
@ BB#84:                                @ %_ZNKSt7__cxx1112basic_stringIcSt11char_traitsIcESaIcEE8capacityEv.exit11.i136
	@DEBUG_VALUE: operator+<char, std::char_traits<char>, std::allocator<char> >:__size <- %R7
	@DEBUG_VALUE: size:this <- %R9
	@DEBUG_VALUE: _M_data:this <- %R9
	.loc	27 870 25               @ /usr/bin/../lib/gcc/arm-linux-gnueabihf/6.3.0/../../../../include/c++/6.3.0/bits/basic_string.h:870:25
	ldr	r6, [sp, #32]
	.loc	27 869 9 discriminator 1 @ /usr/bin/../lib/gcc/arm-linux-gnueabihf/6.3.0/../../../../include/c++/6.3.0/bits/basic_string.h:869:9
	cmp	r1, r10
	movweq	r6, #15
.Ltmp950:
	.loc	27 5027 14              @ /usr/bin/../lib/gcc/arm-linux-gnueabihf/6.3.0/../../../../include/c++/6.3.0/bits/basic_string.h:5027:14
	cmp	r7, r6
	bls	.LBB15_86
.Ltmp951:
.LBB15_85:                              @ %.critedge.i137
	@DEBUG_VALUE: operator+<char, std::char_traits<char>, std::allocator<char> >:__size <- %R7
	@DEBUG_VALUE: size:this <- %R9
	@DEBUG_VALUE: _M_data:this <- %R9
	.loc	27 1084 16 discriminator 2 @ /usr/bin/../lib/gcc/arm-linux-gnueabihf/6.3.0/../../../../include/c++/6.3.0/bits/basic_string.h:1084:16
.Ltmp644:
	sub	r0, r11, #88
.Ltmp952:
	@DEBUG_VALUE: append:this <- %R0
	ldr	r5, [sp, #8]            @ 4-byte Reload
	bl	_ZNSt7__cxx1112basic_stringIcSt11char_traitsIcESaIcEE9_M_appendEPKcj
.Ltmp953:
.Ltmp645:
	b	.LBB15_87
.Ltmp954:
.LBB15_86:
	@DEBUG_VALUE: operator+<char, std::char_traits<char>, std::allocator<char> >:__size <- %R7
	@DEBUG_VALUE: size:this <- %R9
	@DEBUG_VALUE: _M_data:this <- %R9
	.loc	27 1687 9 discriminator 1 @ /usr/bin/../lib/gcc/arm-linux-gnueabihf/6.3.0/../../../../include/c++/6.3.0/bits/basic_string.h:1687:9
.Ltmp642:
.Ltmp955:
	@DEBUG_VALUE: insert:__pos1 <- 0
	@DEBUG_VALUE: replace:__pos <- 0
	@DEBUG_VALUE: replace:__n1 <- 0
	str	r0, [sp]
	add	r0, sp, #24
.Ltmp956:
	@DEBUG_VALUE: size:this <- %R0
	mov	r1, #0
	mov	r2, #0
	ldr	r5, [sp, #8]            @ 4-byte Reload
	bl	_ZNSt7__cxx1112basic_stringIcSt11char_traitsIcESaIcEE10_M_replaceEjjPKcj
.Ltmp957:
.Ltmp643:
.Ltmp958:
.LBB15_87:                              @ %.noexc138
	@DEBUG_VALUE: operator+<char, std::char_traits<char>, std::allocator<char> >:__size <- %R7
	@DEBUG_VALUE: size:this <- %R9
	@DEBUG_VALUE: _M_data:this <- %R9
	@DEBUG_VALUE: _M_local_data:this <- %R8
	@DEBUG_VALUE: basic_string:__str <- %R0
	.loc	27 142 51               @ /usr/bin/../lib/gcc/arm-linux-gnueabihf/6.3.0/../../../../include/c++/6.3.0/bits/basic_string.h:142:51
	add	r2, r8, #8
.Ltmp959:
	.loc	27 110 25               @ /usr/bin/../lib/gcc/arm-linux-gnueabihf/6.3.0/../../../../include/c++/6.3.0/bits/basic_string.h:110:25
	str	r2, [r8]
.Ltmp960:
	.loc	27 136 28               @ /usr/bin/../lib/gcc/arm-linux-gnueabihf/6.3.0/../../../../include/c++/6.3.0/bits/basic_string.h:136:28
	mov	r1, r0
	ldr	r3, [r1], #8
.Ltmp961:
	@DEBUG_VALUE: _M_data:__p <- %R3
	.loc	27 479 6 discriminator 1 @ /usr/bin/../lib/gcc/arm-linux-gnueabihf/6.3.0/../../../../include/c++/6.3.0/bits/basic_string.h:479:6
	cmp	r3, r1
.Ltmp962:
	@DEBUG_VALUE: copy:__s2 <- %R1
	@DEBUG_VALUE: _M_data:__p <- %R1
	@DEBUG_VALUE: assign:__c1 <- %R1
	beq	.LBB15_89
.Ltmp963:
@ BB#88:
	@DEBUG_VALUE: assign:__c1 <- %R1
	@DEBUG_VALUE: _M_data:__p <- %R1
	@DEBUG_VALUE: copy:__s2 <- %R1
	@DEBUG_VALUE: _M_data:__p <- %R3
	@DEBUG_VALUE: basic_string:__str <- %R0
	@DEBUG_VALUE: _M_local_data:this <- %R8
	@DEBUG_VALUE: operator+<char, std::char_traits<char>, std::allocator<char> >:__size <- %R7
	@DEBUG_VALUE: size:this <- %R9
	@DEBUG_VALUE: _M_data:this <- %R9
	@DEBUG_VALUE: _M_data:this <- %R8
	.loc	27 128 26               @ /usr/bin/../lib/gcc/arm-linux-gnueabihf/6.3.0/../../../../include/c++/6.3.0/bits/basic_string.h:128:26
	str	r3, [r8]
.Ltmp964:
	.loc	27 487 24               @ /usr/bin/../lib/gcc/arm-linux-gnueabihf/6.3.0/../../../../include/c++/6.3.0/bits/basic_string.h:487:24
	ldr	r2, [r0, #8]
.Ltmp965:
	@DEBUG_VALUE: _M_capacity:this <- %R8
	@DEBUG_VALUE: _M_capacity:__capacity <- %R2
	.loc	27 160 31               @ /usr/bin/../lib/gcc/arm-linux-gnueabihf/6.3.0/../../../../include/c++/6.3.0/bits/basic_string.h:160:31
	str	r2, [r8, #8]
	b	.LBB15_90
.Ltmp966:
.LBB15_89:
	@DEBUG_VALUE: assign:__c1 <- %R1
	@DEBUG_VALUE: _M_data:__p <- %R1
	@DEBUG_VALUE: copy:__s2 <- %R1
	@DEBUG_VALUE: _M_data:__p <- %R3
	@DEBUG_VALUE: basic_string:__str <- %R0
	@DEBUG_VALUE: _M_local_data:this <- %R8
	@DEBUG_VALUE: operator+<char, std::char_traits<char>, std::allocator<char> >:__size <- %R7
	@DEBUG_VALUE: size:this <- %R9
	@DEBUG_VALUE: _M_data:this <- %R9
	.loc	30 290 33               @ /usr/bin/../lib/gcc/arm-linux-gnueabihf/6.3.0/../../../../include/c++/6.3.0/bits/char_traits.h:290:33
	vld1.8	{d16, d17}, [r3]
.Ltmp967:
	@DEBUG_VALUE: copy:__s1 <- %R2
	vst1.8	{d16, d17}, [r2]
.Ltmp968:
	@DEBUG_VALUE: copy:__n <- 16
.LBB15_90:
	@DEBUG_VALUE: assign:__c1 <- %R1
	@DEBUG_VALUE: _M_data:__p <- %R1
	@DEBUG_VALUE: copy:__s2 <- %R1
	@DEBUG_VALUE: _M_data:__p <- %R3
	@DEBUG_VALUE: basic_string:__str <- %R0
	@DEBUG_VALUE: _M_local_data:this <- %R8
	@DEBUG_VALUE: operator+<char, std::char_traits<char>, std::allocator<char> >:__size <- %R7
	@DEBUG_VALUE: size:this <- %R9
	@DEBUG_VALUE: _M_data:this <- %R9
	@DEBUG_VALUE: _M_length:__length <- %R2
	@DEBUG_VALUE: _M_length:this <- %R8
	.loc	27 811 16               @ /usr/bin/../lib/gcc/arm-linux-gnueabihf/6.3.0/../../../../include/c++/6.3.0/bits/basic_string.h:811:16
	ldr	r2, [r0, #4]
.Ltmp969:
	.loc	27 132 26               @ /usr/bin/../lib/gcc/arm-linux-gnueabihf/6.3.0/../../../../include/c++/6.3.0/bits/basic_string.h:132:26
	str	r2, [r8, #4]
	mov	r2, #0
.Ltmp970:
	@DEBUG_VALUE: _M_length:__length <- 0
	@DEBUG_VALUE: _M_set_length:__n <- 0
	.loc	27 128 26               @ /usr/bin/../lib/gcc/arm-linux-gnueabihf/6.3.0/../../../../include/c++/6.3.0/bits/basic_string.h:128:26
	stm	r0, {r1, r2}
.Ltmp971:
	.loc	30 243 14               @ /usr/bin/../lib/gcc/arm-linux-gnueabihf/6.3.0/../../../../include/c++/6.3.0/bits/char_traits.h:243:14
	strb	r2, [r0, #8]
.Ltmp972:
	.loc	27 136 28               @ /usr/bin/../lib/gcc/arm-linux-gnueabihf/6.3.0/../../../../include/c++/6.3.0/bits/basic_string.h:136:28
	ldr	r0, [sp, #24]
.Ltmp973:
	@DEBUG_VALUE: deallocate:__p <- %R0
	@DEBUG_VALUE: deallocate:__p <- %R0
	.loc	27 180 6                @ /usr/bin/../lib/gcc/arm-linux-gnueabihf/6.3.0/../../../../include/c++/6.3.0/bits/basic_string.h:180:6
	cmp	r0, r10
	beq	.LBB15_92
.Ltmp974:
@ BB#91:
	@DEBUG_VALUE: deallocate:__p <- %R0
	@DEBUG_VALUE: deallocate:__p <- %R0
	@DEBUG_VALUE: _M_length:this <- %R8
	@DEBUG_VALUE: assign:__c1 <- %R1
	@DEBUG_VALUE: _M_data:__p <- %R1
	@DEBUG_VALUE: copy:__s2 <- %R1
	@DEBUG_VALUE: _M_data:__p <- %R3
	@DEBUG_VALUE: _M_local_data:this <- %R8
	@DEBUG_VALUE: operator+<char, std::char_traits<char>, std::allocator<char> >:__size <- %R7
	@DEBUG_VALUE: size:this <- %R9
	@DEBUG_VALUE: _M_data:this <- %R9
	.loc	10 110 9                @ /usr/bin/../lib/gcc/arm-linux-gnueabihf/6.3.0/../../../../include/c++/6.3.0/ext/new_allocator.h:110:9
	bl	_ZdlPv
.Ltmp975:
.LBB15_92:                              @ %_ZNSt7__cxx1112basic_stringIcSt11char_traitsIcESaIcEED2Ev.exit134
	@DEBUG_VALUE: _M_length:this <- %R8
	@DEBUG_VALUE: _M_local_data:this <- %R8
	@DEBUG_VALUE: operator+<char, std::char_traits<char>, std::allocator<char> >:__size <- %R7
	@DEBUG_VALUE: size:this <- %R9
	@DEBUG_VALUE: _M_data:this <- %R9
	.loc	27 136 28               @ /usr/bin/../lib/gcc/arm-linux-gnueabihf/6.3.0/../../../../include/c++/6.3.0/bits/basic_string.h:136:28
	ldr	r0, [r11, #-88]
.Ltmp976:
	@DEBUG_VALUE: deallocate:__p <- %R0
	@DEBUG_VALUE: deallocate:__p <- %R0
	.loc	27 180 6                @ /usr/bin/../lib/gcc/arm-linux-gnueabihf/6.3.0/../../../../include/c++/6.3.0/bits/basic_string.h:180:6
	cmp	r0, r4
	ldr	r4, [sp, #16]           @ 4-byte Reload
	beq	.LBB15_94
.Ltmp977:
@ BB#93:
	@DEBUG_VALUE: deallocate:__p <- %R0
	@DEBUG_VALUE: deallocate:__p <- %R0
	@DEBUG_VALUE: _M_length:this <- %R8
	@DEBUG_VALUE: _M_local_data:this <- %R8
	@DEBUG_VALUE: operator+<char, std::char_traits<char>, std::allocator<char> >:__size <- %R7
	@DEBUG_VALUE: size:this <- %R9
	@DEBUG_VALUE: _M_data:this <- %R9
	.loc	10 110 9                @ /usr/bin/../lib/gcc/arm-linux-gnueabihf/6.3.0/../../../../include/c++/6.3.0/ext/new_allocator.h:110:9
	bl	_ZdlPv
.Ltmp978:
.LBB15_94:                              @ %_ZNSt7__cxx1112basic_stringIcSt11char_traitsIcESaIcEED2Ev.exit133
	@DEBUG_VALUE: _M_length:this <- %R8
	@DEBUG_VALUE: _M_local_data:this <- %R8
	@DEBUG_VALUE: operator+<char, std::char_traits<char>, std::allocator<char> >:__size <- %R7
	@DEBUG_VALUE: size:this <- %R9
	@DEBUG_VALUE: _M_data:this <- %R9
	.loc	27 136 28               @ /usr/bin/../lib/gcc/arm-linux-gnueabihf/6.3.0/../../../../include/c++/6.3.0/bits/basic_string.h:136:28
	ldr	r0, [sp, #48]
.Ltmp979:
	@DEBUG_VALUE: _M_local_data:this <- undef
	@DEBUG_VALUE: _M_data:this <- undef
	@DEBUG_VALUE: _M_is_local:this <- undef
	@DEBUG_VALUE: _M_dispose:this <- undef
	@DEBUG_VALUE: ~basic_string:this <- undef
	@DEBUG_VALUE: deallocate:__p <- %R0
	@DEBUG_VALUE: deallocate:__p <- %R0
	add	r1, sp, #48
.Ltmp980:
	.loc	27 152 57               @ /usr/bin/../lib/gcc/arm-linux-gnueabihf/6.3.0/../../../../include/c++/6.3.0/bits/basic_string.h:152:57
	add	r1, r1, #8
.Ltmp981:
	.loc	27 180 6                @ /usr/bin/../lib/gcc/arm-linux-gnueabihf/6.3.0/../../../../include/c++/6.3.0/bits/basic_string.h:180:6
	cmp	r0, r1
	beq	.LBB15_96
.Ltmp982:
@ BB#95:
	@DEBUG_VALUE: deallocate:__p <- %R0
	@DEBUG_VALUE: deallocate:__p <- %R0
	@DEBUG_VALUE: _M_length:this <- %R8
	@DEBUG_VALUE: _M_local_data:this <- %R8
	@DEBUG_VALUE: operator+<char, std::char_traits<char>, std::allocator<char> >:__size <- %R7
	@DEBUG_VALUE: size:this <- %R9
	@DEBUG_VALUE: _M_data:this <- %R9
	.loc	10 110 9                @ /usr/bin/../lib/gcc/arm-linux-gnueabihf/6.3.0/../../../../include/c++/6.3.0/ext/new_allocator.h:110:9
	bl	_ZdlPv
.Ltmp983:
.LBB15_96:                              @ %_ZNSt7__cxx1112basic_stringIcSt11char_traitsIcESaIcEED2Ev.exit121
	@DEBUG_VALUE: _M_length:this <- %R8
	@DEBUG_VALUE: _M_local_data:this <- %R8
	@DEBUG_VALUE: operator+<char, std::char_traits<char>, std::allocator<char> >:__size <- %R7
	@DEBUG_VALUE: size:this <- %R9
	@DEBUG_VALUE: _M_data:this <- %R9
	.loc	27 136 28               @ /usr/bin/../lib/gcc/arm-linux-gnueabihf/6.3.0/../../../../include/c++/6.3.0/bits/basic_string.h:136:28
	ldr	r0, [r11, #-112]
.Ltmp984:
	@DEBUG_VALUE: deallocate:__p <- %R0
	@DEBUG_VALUE: deallocate:__p <- %R0
	.loc	27 180 6                @ /usr/bin/../lib/gcc/arm-linux-gnueabihf/6.3.0/../../../../include/c++/6.3.0/bits/basic_string.h:180:6
	cmp	r0, r4
	beq	.LBB15_98
.Ltmp985:
@ BB#97:
	@DEBUG_VALUE: deallocate:__p <- %R0
	@DEBUG_VALUE: deallocate:__p <- %R0
	@DEBUG_VALUE: _M_length:this <- %R8
	@DEBUG_VALUE: _M_local_data:this <- %R8
	@DEBUG_VALUE: operator+<char, std::char_traits<char>, std::allocator<char> >:__size <- %R7
	@DEBUG_VALUE: size:this <- %R9
	@DEBUG_VALUE: _M_data:this <- %R9
	.loc	10 110 9                @ /usr/bin/../lib/gcc/arm-linux-gnueabihf/6.3.0/../../../../include/c++/6.3.0/ext/new_allocator.h:110:9
	bl	_ZdlPv
.Ltmp986:
.LBB15_98:                              @ %_ZNSt7__cxx1112basic_stringIcSt11char_traitsIcESaIcEED2Ev.exit120
	@DEBUG_VALUE: _M_length:this <- %R8
	@DEBUG_VALUE: _M_local_data:this <- %R8
	@DEBUG_VALUE: operator+<char, std::char_traits<char>, std::allocator<char> >:__size <- %R7
	@DEBUG_VALUE: size:this <- %R9
	@DEBUG_VALUE: _M_data:this <- %R9
	.loc	27 136 28               @ /usr/bin/../lib/gcc/arm-linux-gnueabihf/6.3.0/../../../../include/c++/6.3.0/bits/basic_string.h:136:28
	ldr	r0, [sp, #72]
.Ltmp987:
	@DEBUG_VALUE: deallocate:__p <- %R0
	@DEBUG_VALUE: deallocate:__p <- %R0
	.loc	27 180 6                @ /usr/bin/../lib/gcc/arm-linux-gnueabihf/6.3.0/../../../../include/c++/6.3.0/bits/basic_string.h:180:6
	ldr	r1, [sp, #4]            @ 4-byte Reload
	cmp	r0, r1
	beq	.LBB15_100
.Ltmp988:
@ BB#99:
	@DEBUG_VALUE: deallocate:__p <- %R0
	@DEBUG_VALUE: deallocate:__p <- %R0
	@DEBUG_VALUE: _M_length:this <- %R8
	@DEBUG_VALUE: _M_local_data:this <- %R8
	@DEBUG_VALUE: operator+<char, std::char_traits<char>, std::allocator<char> >:__size <- %R7
	@DEBUG_VALUE: size:this <- %R9
	@DEBUG_VALUE: _M_data:this <- %R9
	.loc	10 110 9                @ /usr/bin/../lib/gcc/arm-linux-gnueabihf/6.3.0/../../../../include/c++/6.3.0/ext/new_allocator.h:110:9
	bl	_ZdlPv
.Ltmp989:
.LBB15_100:                             @ %_ZNSt7__cxx1112basic_stringIcSt11char_traitsIcESaIcEED2Ev.exit119
	@DEBUG_VALUE: _M_length:this <- %R8
